
/nfs/home/fuwenyi/xiaohe/nexus-am/apps/coremark-mt/build/coremark-mt-riscv64-nutshell.elf:     file format elf64-littleriscv


Disassembly of section .text:

0000000080000000 <_start>:
    80000000:	00000413          	li	s0,0
    80000004:	0000e117          	auipc	sp,0xe
    80000008:	ffc10113          	addi	sp,sp,-4 # 8000e000 <_stack_top+0x4000>
    8000000c:	f14022f3          	csrr	t0,mhartid
    80000010:	00029463          	bnez	t0,80000018 <setup_stack1>

0000000080000014 <to_main>:
    80000014:	1b9060ef          	jal	ra,800069cc <_trm_init>

0000000080000018 <setup_stack1>:
    80000018:	00012117          	auipc	sp,0x12
    8000001c:	fe810113          	addi	sp,sp,-24 # 80012000 <_end>
    80000020:	ff5ff06f          	j	80000014 <to_main>

0000000080000024 <cmp_idx>:
    80000024:	00060a63          	beqz	a2,80000038 <cmp_idx+0x14>
    80000028:	00251503          	lh	a0,2(a0)
    8000002c:	00259783          	lh	a5,2(a1)
    80000030:	40f5053b          	subw	a0,a0,a5
    80000034:	00008067          	ret
    80000038:	00051783          	lh	a5,0(a0)
    8000003c:	0107971b          	slliw	a4,a5,0x10
    80000040:	0107571b          	srliw	a4,a4,0x10
    80000044:	0087571b          	srliw	a4,a4,0x8
    80000048:	f007f793          	andi	a5,a5,-256
    8000004c:	00e7e7b3          	or	a5,a5,a4
    80000050:	00f51023          	sh	a5,0(a0)
    80000054:	00059783          	lh	a5,0(a1)
    80000058:	00251503          	lh	a0,2(a0)
    8000005c:	0107971b          	slliw	a4,a5,0x10
    80000060:	0107571b          	srliw	a4,a4,0x10
    80000064:	0087571b          	srliw	a4,a4,0x8
    80000068:	f007f793          	andi	a5,a5,-256
    8000006c:	00e7e7b3          	or	a5,a5,a4
    80000070:	00f59023          	sh	a5,0(a1)
    80000074:	00259783          	lh	a5,2(a1)
    80000078:	40f5053b          	subw	a0,a0,a5
    8000007c:	00008067          	ret

0000000080000080 <copy_info>:
    80000080:	00059703          	lh	a4,0(a1)
    80000084:	00259783          	lh	a5,2(a1)
    80000088:	00e51023          	sh	a4,0(a0)
    8000008c:	00f51123          	sh	a5,2(a0)
    80000090:	00008067          	ret

0000000080000094 <core_list_init>:
    80000094:	01400f93          	li	t6,20
    80000098:	03f55fbb          	divuw	t6,a0,t6
    8000009c:	ff010113          	addi	sp,sp,-16
    800000a0:	00813423          	sd	s0,8(sp)
    800000a4:	ffff8537          	lui	a0,0xffff8
    800000a8:	0005b023          	sd	zero,0(a1)
    800000ac:	08050893          	addi	a7,a0,128 # ffffffffffff8080 <_pmem_end+0xffffffff77ff8080>
    800000b0:	02058713          	addi	a4,a1,32
    800000b4:	00060e93          	mv	t4,a2
    800000b8:	01058693          	addi	a3,a1,16
    800000bc:	ffef8f9b          	addiw	t6,t6,-2
    800000c0:	020f9793          	slli	a5,t6,0x20
    800000c4:	0207d793          	srli	a5,a5,0x20
    800000c8:	00479813          	slli	a6,a5,0x4
    800000cc:	01058833          	add	a6,a1,a6
    800000d0:	0105b423          	sd	a6,8(a1)
    800000d4:	00279793          	slli	a5,a5,0x2
    800000d8:	00081123          	sh	zero,2(a6)
    800000dc:	01181023          	sh	a7,0(a6)
    800000e0:	00f80333          	add	t1,a6,a5
    800000e4:	000f839b          	sext.w	t2,t6
    800000e8:	00480793          	addi	a5,a6,4
    800000ec:	25077063          	bgeu	a4,a6,8000032c <core_list_init+0x298>
    800000f0:	00880613          	addi	a2,a6,8
    800000f4:	22667c63          	bgeu	a2,t1,8000032c <core_list_init+0x298>
    800000f8:	00f5bc23          	sd	a5,24(a1)
    800000fc:	0005b823          	sd	zero,16(a1)
    80000100:	00d5b023          	sd	a3,0(a1)
    80000104:	fff54513          	not	a0,a0
    80000108:	fff00793          	li	a5,-1
    8000010c:	00f81223          	sh	a5,4(a6)
    80000110:	00a81323          	sh	a0,6(a6)
    80000114:	06038a63          	beqz	t2,80000188 <core_list_init+0xf4>
    80000118:	030e9413          	slli	s0,t4,0x30
    8000011c:	ffff82b7          	lui	t0,0xffff8
    80000120:	03045413          	srli	s0,s0,0x30
    80000124:	00000513          	li	a0,0
    80000128:	fff2c293          	not	t0,t0
    8000012c:	01070e13          	addi	t3,a4,16
    80000130:	050e7c63          	bgeu	t3,a6,80000188 <core_list_init+0xf4>
    80000134:	00460f13          	addi	t5,a2,4
    80000138:	046f7463          	bgeu	t5,t1,80000180 <core_list_init+0xec>
    8000013c:	03051893          	slli	a7,a0,0x30
    80000140:	0308d893          	srli	a7,a7,0x30
    80000144:	0088c7b3          	xor	a5,a7,s0
    80000148:	0037979b          	slliw	a5,a5,0x3
    8000014c:	0787f793          	andi	a5,a5,120
    80000150:	0078f893          	andi	a7,a7,7
    80000154:	00d73023          	sd	a3,0(a4)
    80000158:	0117e7b3          	or	a5,a5,a7
    8000015c:	00e5b023          	sd	a4,0(a1)
    80000160:	0087969b          	slliw	a3,a5,0x8
    80000164:	00c73423          	sd	a2,8(a4)
    80000168:	00d7e7b3          	or	a5,a5,a3
    8000016c:	00f61023          	sh	a5,0(a2)
    80000170:	00561123          	sh	t0,2(a2)
    80000174:	00070693          	mv	a3,a4
    80000178:	000f0613          	mv	a2,t5
    8000017c:	000e0713          	mv	a4,t3
    80000180:	0015051b          	addiw	a0,a0,1
    80000184:	faa394e3          	bne	t2,a0,8000012c <core_list_init+0x98>
    80000188:	0006b603          	ld	a2,0(a3)
    8000018c:	06060c63          	beqz	a2,80000204 <core_list_init+0x170>
    80000190:	00500793          	li	a5,5
    80000194:	000048b7          	lui	a7,0x4
    80000198:	02ffdfbb          	divuw	t6,t6,a5
    8000019c:	00100713          	li	a4,1
    800001a0:	20000793          	li	a5,512
    800001a4:	fff88893          	addi	a7,a7,-1 # 3fff <_start-0x7fffc001>
    800001a8:	0280006f          	j	800001d0 <core_list_init+0x13c>
    800001ac:	00063503          	ld	a0,0(a2)
    800001b0:	1007879b          	addiw	a5,a5,256
    800001b4:	00e81123          	sh	a4,2(a6)
    800001b8:	03079793          	slli	a5,a5,0x30
    800001bc:	0017071b          	addiw	a4,a4,1
    800001c0:	0307d793          	srli	a5,a5,0x30
    800001c4:	04050063          	beqz	a0,80000204 <core_list_init+0x170>
    800001c8:	00060693          	mv	a3,a2
    800001cc:	00050613          	mv	a2,a0
    800001d0:	0086b803          	ld	a6,8(a3)
    800001d4:	fdf76ce3          	bltu	a4,t6,800001ac <core_list_init+0x118>
    800001d8:	01d74533          	xor	a0,a4,t4
    800001dc:	7007f693          	andi	a3,a5,1792
    800001e0:	00a6e6b3          	or	a3,a3,a0
    800001e4:	00063503          	ld	a0,0(a2)
    800001e8:	0116f6b3          	and	a3,a3,a7
    800001ec:	1007879b          	addiw	a5,a5,256
    800001f0:	03079793          	slli	a5,a5,0x30
    800001f4:	00d81123          	sh	a3,2(a6)
    800001f8:	0017071b          	addiw	a4,a4,1
    800001fc:	0307d793          	srli	a5,a5,0x30
    80000200:	fc0514e3          	bnez	a0,800001c8 <core_list_init+0x134>
    80000204:	00100f13          	li	t5,1
    80000208:	00000813          	li	a6,0
    8000020c:	00000513          	li	a0,0
    80000210:	00000293          	li	t0,0
    80000214:	00100393          	li	t2,1
    80000218:	0012829b          	addiw	t0,t0,1 # ffffffffffff8001 <_pmem_end+0xffffffff77ff8001>
    8000021c:	00058793          	mv	a5,a1
    80000220:	00000713          	li	a4,0
    80000224:	0007b783          	ld	a5,0(a5)
    80000228:	0017071b          	addiw	a4,a4,1
    8000022c:	00078463          	beqz	a5,80000234 <core_list_init+0x1a0>
    80000230:	ffe71ae3          	bne	a4,t5,80000224 <core_list_init+0x190>
    80000234:	000f0613          	mv	a2,t5
    80000238:	06070c63          	beqz	a4,800002b0 <core_list_init+0x21c>
    8000023c:	08060c63          	beqz	a2,800002d4 <core_list_init+0x240>
    80000240:	08078a63          	beqz	a5,800002d4 <core_list_init+0x240>
    80000244:	0085be03          	ld	t3,8(a1)
    80000248:	0087b303          	ld	t1,8(a5)
    8000024c:	000e1683          	lh	a3,0(t3)
    80000250:	00231f83          	lh	t6,2(t1)
    80000254:	002e1883          	lh	a7,2(t3)
    80000258:	01069e9b          	slliw	t4,a3,0x10
    8000025c:	010ede9b          	srliw	t4,t4,0x10
    80000260:	f006f693          	andi	a3,a3,-256
    80000264:	008ede9b          	srliw	t4,t4,0x8
    80000268:	01d6e6b3          	or	a3,a3,t4
    8000026c:	00de1023          	sh	a3,0(t3)
    80000270:	00031683          	lh	a3,0(t1)
    80000274:	41f888bb          	subw	a7,a7,t6
    80000278:	01069e1b          	slliw	t3,a3,0x10
    8000027c:	010e5e1b          	srliw	t3,t3,0x10
    80000280:	f006f693          	andi	a3,a3,-256
    80000284:	008e5e1b          	srliw	t3,t3,0x8
    80000288:	01c6e6b3          	or	a3,a3,t3
    8000028c:	00d31023          	sh	a3,0(t1)
    80000290:	05105263          	blez	a7,800002d4 <core_list_init+0x240>
    80000294:	00078693          	mv	a3,a5
    80000298:	0007b783          	ld	a5,0(a5)
    8000029c:	fff6061b          	addiw	a2,a2,-1
    800002a0:	02080463          	beqz	a6,800002c8 <core_list_init+0x234>
    800002a4:	00d83023          	sd	a3,0(a6)
    800002a8:	00068813          	mv	a6,a3
    800002ac:	f80718e3          	bnez	a4,8000023c <core_list_init+0x1a8>
    800002b0:	02060a63          	beqz	a2,800002e4 <core_list_init+0x250>
    800002b4:	02078e63          	beqz	a5,800002f0 <core_list_init+0x25c>
    800002b8:	00078693          	mv	a3,a5
    800002bc:	fff6061b          	addiw	a2,a2,-1
    800002c0:	0007b783          	ld	a5,0(a5)
    800002c4:	fe0810e3          	bnez	a6,800002a4 <core_list_init+0x210>
    800002c8:	00068513          	mv	a0,a3
    800002cc:	00068813          	mv	a6,a3
    800002d0:	fddff06f          	j	800002ac <core_list_init+0x218>
    800002d4:	00058693          	mv	a3,a1
    800002d8:	fff7071b          	addiw	a4,a4,-1
    800002dc:	0005b583          	ld	a1,0(a1)
    800002e0:	fc1ff06f          	j	800002a0 <core_list_init+0x20c>
    800002e4:	00078663          	beqz	a5,800002f0 <core_list_init+0x25c>
    800002e8:	00078593          	mv	a1,a5
    800002ec:	f2dff06f          	j	80000218 <core_list_init+0x184>
    800002f0:	00083023          	sd	zero,0(a6)
    800002f4:	02728263          	beq	t0,t2,80000318 <core_list_init+0x284>
    800002f8:	001f1f1b          	slliw	t5,t5,0x1
    800002fc:	02050463          	beqz	a0,80000324 <core_list_init+0x290>
    80000300:	00050793          	mv	a5,a0
    80000304:	00000293          	li	t0,0
    80000308:	00000813          	li	a6,0
    8000030c:	00000513          	li	a0,0
    80000310:	00078593          	mv	a1,a5
    80000314:	f05ff06f          	j	80000218 <core_list_init+0x184>
    80000318:	00813403          	ld	s0,8(sp)
    8000031c:	01010113          	addi	sp,sp,16
    80000320:	00008067          	ret
    80000324:	00003023          	sd	zero,0(zero) # 0 <_start-0x80000000>
    80000328:	00100073          	ebreak
    8000032c:	00068713          	mv	a4,a3
    80000330:	00078613          	mv	a2,a5
    80000334:	00000693          	li	a3,0
    80000338:	dddff06f          	j	80000114 <core_list_init+0x80>

000000008000033c <core_list_insert_new>:
    8000033c:	00063803          	ld	a6,0(a2)
    80000340:	01080893          	addi	a7,a6,16
    80000344:	04e8f663          	bgeu	a7,a4,80000390 <core_list_insert_new+0x54>
    80000348:	0006b703          	ld	a4,0(a3)
    8000034c:	00470313          	addi	t1,a4,4
    80000350:	04f37063          	bgeu	t1,a5,80000390 <core_list_insert_new+0x54>
    80000354:	01163023          	sd	a7,0(a2)
    80000358:	00053783          	ld	a5,0(a0)
    8000035c:	00059883          	lh	a7,0(a1)
    80000360:	00259603          	lh	a2,2(a1)
    80000364:	00f83023          	sd	a5,0(a6)
    80000368:	01053023          	sd	a6,0(a0)
    8000036c:	00e83423          	sd	a4,8(a6)
    80000370:	0006b783          	ld	a5,0(a3)
    80000374:	00080513          	mv	a0,a6
    80000378:	00478793          	addi	a5,a5,4
    8000037c:	00f6b023          	sd	a5,0(a3)
    80000380:	00883783          	ld	a5,8(a6)
    80000384:	01179023          	sh	a7,0(a5)
    80000388:	00c79123          	sh	a2,2(a5)
    8000038c:	00008067          	ret
    80000390:	00000813          	li	a6,0
    80000394:	00080513          	mv	a0,a6
    80000398:	00008067          	ret

000000008000039c <core_list_remove>:
    8000039c:	00050793          	mv	a5,a0
    800003a0:	00053503          	ld	a0,0(a0)
    800003a4:	0087b683          	ld	a3,8(a5)
    800003a8:	00853603          	ld	a2,8(a0)
    800003ac:	00053703          	ld	a4,0(a0)
    800003b0:	00c7b423          	sd	a2,8(a5)
    800003b4:	00d53423          	sd	a3,8(a0)
    800003b8:	00e7b023          	sd	a4,0(a5)
    800003bc:	00053023          	sd	zero,0(a0)
    800003c0:	00008067          	ret

00000000800003c4 <core_list_undo_remove>:
    800003c4:	0085b603          	ld	a2,8(a1)
    800003c8:	00853683          	ld	a3,8(a0)
    800003cc:	0005b703          	ld	a4,0(a1)
    800003d0:	00c53423          	sd	a2,8(a0)
    800003d4:	00d5b423          	sd	a3,8(a1)
    800003d8:	00e53023          	sd	a4,0(a0)
    800003dc:	00a5b023          	sd	a0,0(a1)
    800003e0:	00008067          	ret

00000000800003e4 <core_list_find>:
    800003e4:	00259703          	lh	a4,2(a1)
    800003e8:	02074263          	bltz	a4,8000040c <core_list_find+0x28>
    800003ec:	00051863          	bnez	a0,800003fc <core_list_find+0x18>
    800003f0:	0480006f          	j	80000438 <core_list_find+0x54>
    800003f4:	00053503          	ld	a0,0(a0)
    800003f8:	02050c63          	beqz	a0,80000430 <core_list_find+0x4c>
    800003fc:	00853783          	ld	a5,8(a0)
    80000400:	00279783          	lh	a5,2(a5)
    80000404:	fee798e3          	bne	a5,a4,800003f4 <core_list_find+0x10>
    80000408:	00008067          	ret
    8000040c:	02050263          	beqz	a0,80000430 <core_list_find+0x4c>
    80000410:	00059703          	lh	a4,0(a1)
    80000414:	00c0006f          	j	80000420 <core_list_find+0x3c>
    80000418:	00053503          	ld	a0,0(a0)
    8000041c:	00050c63          	beqz	a0,80000434 <core_list_find+0x50>
    80000420:	00853783          	ld	a5,8(a0)
    80000424:	0007c783          	lbu	a5,0(a5)
    80000428:	fee798e3          	bne	a5,a4,80000418 <core_list_find+0x34>
    8000042c:	00008067          	ret
    80000430:	00000513          	li	a0,0
    80000434:	00008067          	ret
    80000438:	00008067          	ret

000000008000043c <core_list_reverse>:
    8000043c:	02050063          	beqz	a0,8000045c <core_list_reverse+0x20>
    80000440:	00000713          	li	a4,0
    80000444:	0080006f          	j	8000044c <core_list_reverse+0x10>
    80000448:	00078513          	mv	a0,a5
    8000044c:	00053783          	ld	a5,0(a0)
    80000450:	00e53023          	sd	a4,0(a0)
    80000454:	00050713          	mv	a4,a0
    80000458:	fe0798e3          	bnez	a5,80000448 <core_list_reverse+0xc>
    8000045c:	00008067          	ret

0000000080000460 <core_list_mergesort>:
    80000460:	fa010113          	addi	sp,sp,-96
    80000464:	04913423          	sd	s1,72(sp)
    80000468:	03513423          	sd	s5,40(sp)
    8000046c:	01713c23          	sd	s7,24(sp)
    80000470:	01913423          	sd	s9,8(sp)
    80000474:	01a13023          	sd	s10,0(sp)
    80000478:	04113c23          	sd	ra,88(sp)
    8000047c:	04813823          	sd	s0,80(sp)
    80000480:	05213023          	sd	s2,64(sp)
    80000484:	03313c23          	sd	s3,56(sp)
    80000488:	03413823          	sd	s4,48(sp)
    8000048c:	03613023          	sd	s6,32(sp)
    80000490:	01813823          	sd	s8,16(sp)
    80000494:	00050493          	mv	s1,a0
    80000498:	00058b93          	mv	s7,a1
    8000049c:	00060d13          	mv	s10,a2
    800004a0:	00100a93          	li	s5,1
    800004a4:	00100c93          	li	s9,1
    800004a8:	0c048063          	beqz	s1,80000568 <core_list_mergesort+0x108>
    800004ac:	00000c13          	li	s8,0
    800004b0:	00000913          	li	s2,0
    800004b4:	00000b13          	li	s6,0
    800004b8:	001c0c1b          	addiw	s8,s8,1
    800004bc:	00048793          	mv	a5,s1
    800004c0:	00000413          	li	s0,0
    800004c4:	0007b783          	ld	a5,0(a5)
    800004c8:	0014041b          	addiw	s0,s0,1
    800004cc:	00078463          	beqz	a5,800004d4 <core_list_mergesort+0x74>
    800004d0:	fe8a9ae3          	bne	s5,s0,800004c4 <core_list_mergesort+0x64>
    800004d4:	00048a13          	mv	s4,s1
    800004d8:	000a8993          	mv	s3,s5
    800004dc:	00078493          	mv	s1,a5
    800004e0:	02040e63          	beqz	s0,8000051c <core_list_mergesort+0xbc>
    800004e4:	04098e63          	beqz	s3,80000540 <core_list_mergesort+0xe0>
    800004e8:	04048c63          	beqz	s1,80000540 <core_list_mergesort+0xe0>
    800004ec:	0084b583          	ld	a1,8(s1)
    800004f0:	008a3503          	ld	a0,8(s4)
    800004f4:	000d0613          	mv	a2,s10
    800004f8:	000b80e7          	jalr	s7
    800004fc:	04a05263          	blez	a0,80000540 <core_list_mergesort+0xe0>
    80000500:	00048793          	mv	a5,s1
    80000504:	0004b483          	ld	s1,0(s1)
    80000508:	fff9899b          	addiw	s3,s3,-1
    8000050c:	02090463          	beqz	s2,80000534 <core_list_mergesort+0xd4>
    80000510:	00f93023          	sd	a5,0(s2)
    80000514:	00078913          	mv	s2,a5
    80000518:	fc0416e3          	bnez	s0,800004e4 <core_list_mergesort+0x84>
    8000051c:	02098a63          	beqz	s3,80000550 <core_list_mergesort+0xf0>
    80000520:	02048a63          	beqz	s1,80000554 <core_list_mergesort+0xf4>
    80000524:	00048793          	mv	a5,s1
    80000528:	fff9899b          	addiw	s3,s3,-1
    8000052c:	0004b483          	ld	s1,0(s1)
    80000530:	fe0910e3          	bnez	s2,80000510 <core_list_mergesort+0xb0>
    80000534:	00078b13          	mv	s6,a5
    80000538:	00078913          	mv	s2,a5
    8000053c:	fddff06f          	j	80000518 <core_list_mergesort+0xb8>
    80000540:	000a0793          	mv	a5,s4
    80000544:	fff4041b          	addiw	s0,s0,-1
    80000548:	000a3a03          	ld	s4,0(s4)
    8000054c:	fc1ff06f          	j	8000050c <core_list_mergesort+0xac>
    80000550:	f60494e3          	bnez	s1,800004b8 <core_list_mergesort+0x58>
    80000554:	00093023          	sd	zero,0(s2)
    80000558:	019c0c63          	beq	s8,s9,80000570 <core_list_mergesort+0x110>
    8000055c:	001a9a9b          	slliw	s5,s5,0x1
    80000560:	000b0493          	mv	s1,s6
    80000564:	f45ff06f          	j	800004a8 <core_list_mergesort+0x48>
    80000568:	00003023          	sd	zero,0(zero) # 0 <_start-0x80000000>
    8000056c:	00100073          	ebreak
    80000570:	05813083          	ld	ra,88(sp)
    80000574:	05013403          	ld	s0,80(sp)
    80000578:	04813483          	ld	s1,72(sp)
    8000057c:	04013903          	ld	s2,64(sp)
    80000580:	03813983          	ld	s3,56(sp)
    80000584:	03013a03          	ld	s4,48(sp)
    80000588:	02813a83          	ld	s5,40(sp)
    8000058c:	01813b83          	ld	s7,24(sp)
    80000590:	01013c03          	ld	s8,16(sp)
    80000594:	00813c83          	ld	s9,8(sp)
    80000598:	00013d03          	ld	s10,0(sp)
    8000059c:	000b0513          	mv	a0,s6
    800005a0:	02013b03          	ld	s6,32(sp)
    800005a4:	06010113          	addi	sp,sp,96
    800005a8:	00008067          	ret

00000000800005ac <getHartId>:
    800005ac:	f1402573          	csrr	a0,mhartid
    800005b0:	0005051b          	sext.w	a0,a0
    800005b4:	00008067          	ret

00000000800005b8 <riscvPause>:
    800005b8:	7c251073          	csrw	0x7c2,a0
    800005bc:	00008067          	ret

00000000800005c0 <matrix_test>:
    800005c0:	fd010113          	addi	sp,sp,-48
    800005c4:	00050813          	mv	a6,a0
    800005c8:	fffffe37          	lui	t3,0xfffff
    800005cc:	03071313          	slli	t1,a4,0x30
    800005d0:	02813423          	sd	s0,40(sp)
    800005d4:	02913023          	sd	s1,32(sp)
    800005d8:	01213c23          	sd	s2,24(sp)
    800005dc:	01313823          	sd	s3,16(sp)
    800005e0:	01413423          	sd	s4,8(sp)
    800005e4:	00058893          	mv	a7,a1
    800005e8:	00068513          	mv	a0,a3
    800005ec:	00060593          	mv	a1,a2
    800005f0:	01c76e33          	or	t3,a4,t3
    800005f4:	03035313          	srli	t1,t1,0x30
    800005f8:	700802e3          	beqz	a6,800014fc <matrix_test+0xf3c>
    800005fc:	00070e93          	mv	t4,a4
    80000600:	00080613          	mv	a2,a6
    80000604:	00000f93          	li	t6,0
    80000608:	00000f13          	li	t5,0
    8000060c:	000f8713          	mv	a4,t6
    80000610:	02071693          	slli	a3,a4,0x20
    80000614:	01f6d793          	srli	a5,a3,0x1f
    80000618:	00f587b3          	add	a5,a1,a5
    8000061c:	0007d683          	lhu	a3,0(a5)
    80000620:	0017071b          	addiw	a4,a4,1
    80000624:	006686bb          	addw	a3,a3,t1
    80000628:	00d79023          	sh	a3,0(a5)
    8000062c:	fee612e3          	bne	a2,a4,80000610 <matrix_test+0x50>
    80000630:	001f029b          	addiw	t0,t5,1
    80000634:	01f80fbb          	addw	t6,a6,t6
    80000638:	00c8063b          	addw	a2,a6,a2
    8000063c:	00580663          	beq	a6,t0,80000648 <matrix_test+0x88>
    80000640:	00028f13          	mv	t5,t0
    80000644:	fc9ff06f          	j	8000060c <matrix_test+0x4c>
    80000648:	000e8e9b          	sext.w	t4,t4
    8000064c:	00080613          	mv	a2,a6
    80000650:	00000f93          	li	t6,0
    80000654:	00000393          	li	t2,0
    80000658:	000f8713          	mv	a4,t6
    8000065c:	02071793          	slli	a5,a4,0x20
    80000660:	0207d793          	srli	a5,a5,0x20
    80000664:	00179693          	slli	a3,a5,0x1
    80000668:	00d586b3          	add	a3,a1,a3
    8000066c:	00069683          	lh	a3,0(a3)
    80000670:	00279793          	slli	a5,a5,0x2
    80000674:	00f887b3          	add	a5,a7,a5
    80000678:	03d686bb          	mulw	a3,a3,t4
    8000067c:	0017071b          	addiw	a4,a4,1
    80000680:	00d7a023          	sw	a3,0(a5)
    80000684:	fcc71ce3          	bne	a4,a2,8000065c <matrix_test+0x9c>
    80000688:	0013879b          	addiw	a5,t2,1
    8000068c:	01f28fbb          	addw	t6,t0,t6
    80000690:	00e2863b          	addw	a2,t0,a4
    80000694:	007f0663          	beq	t5,t2,800006a0 <matrix_test+0xe0>
    80000698:	00078393          	mv	t2,a5
    8000069c:	fbdff06f          	j	80000658 <matrix_test+0x98>
    800006a0:	000e049b          	sext.w	s1,t3
    800006a4:	00028393          	mv	t2,t0
    800006a8:	00000913          	li	s2,0
    800006ac:	00000713          	li	a4,0
    800006b0:	00000613          	li	a2,0
    800006b4:	00000f93          	li	t6,0
    800006b8:	00000993          	li	s3,0
    800006bc:	00090693          	mv	a3,s2
    800006c0:	01c0006f          	j	800006dc <matrix_test+0x11c>
    800006c4:	03079413          	slli	s0,a5,0x30
    800006c8:	0107971b          	slliw	a4,a5,0x10
    800006cc:	0016869b          	addiw	a3,a3,1
    800006d0:	03045413          	srli	s0,s0,0x30
    800006d4:	4107571b          	sraiw	a4,a4,0x10
    800006d8:	04768863          	beq	a3,t2,80000728 <matrix_test+0x168>
    800006dc:	02069793          	slli	a5,a3,0x20
    800006e0:	01e7de93          	srli	t4,a5,0x1e
    800006e4:	01d88eb3          	add	t4,a7,t4
    800006e8:	00060793          	mv	a5,a2
    800006ec:	000ea603          	lw	a2,0(t4)
    800006f0:	03071713          	slli	a4,a4,0x30
    800006f4:	03075713          	srli	a4,a4,0x30
    800006f8:	00c7a7b3          	slt	a5,a5,a2
    800006fc:	01f60fbb          	addw	t6,a2,t6
    80000700:	00a70e9b          	addiw	t4,a4,10
    80000704:	00e787bb          	addw	a5,a5,a4
    80000708:	fbf4dee3          	bge	s1,t6,800006c4 <matrix_test+0x104>
    8000070c:	030e9413          	slli	s0,t4,0x30
    80000710:	010e971b          	slliw	a4,t4,0x10
    80000714:	0016869b          	addiw	a3,a3,1
    80000718:	03045413          	srli	s0,s0,0x30
    8000071c:	4107571b          	sraiw	a4,a4,0x10
    80000720:	00000f93          	li	t6,0
    80000724:	fa769ce3          	bne	a3,t2,800006dc <matrix_test+0x11c>
    80000728:	0019879b          	addiw	a5,s3,1
    8000072c:	00d283bb          	addw	t2,t0,a3
    80000730:	0122893b          	addw	s2,t0,s2
    80000734:	013f0663          	beq	t5,s3,80000740 <matrix_test+0x180>
    80000738:	00078993          	mv	s3,a5
    8000073c:	f81ff06f          	j	800006bc <matrix_test+0xfc>
    80000740:	0ff77793          	zext.b	a5,a4
    80000744:	0017f693          	andi	a3,a5,1
    80000748:	0000a737          	lui	a4,0xa
    8000074c:	40d006b3          	neg	a3,a3
    80000750:	00170713          	addi	a4,a4,1 # a001 <_start-0x7fff5fff>
    80000754:	00d77733          	and	a4,a4,a3
    80000758:	0017d693          	srli	a3,a5,0x1
    8000075c:	00e6c6b3          	xor	a3,a3,a4
    80000760:	0016f693          	andi	a3,a3,1
    80000764:	00845413          	srli	s0,s0,0x8
    80000768:	0027d793          	srli	a5,a5,0x2
    8000076c:	00175713          	srli	a4,a4,0x1
    80000770:	00068c63          	beqz	a3,80000788 <matrix_test+0x1c8>
    80000774:	ffffa6b7          	lui	a3,0xffffa
    80000778:	00168693          	addi	a3,a3,1 # ffffffffffffa001 <_pmem_end+0xffffffff77ffa001>
    8000077c:	00d74733          	xor	a4,a4,a3
    80000780:	03071713          	slli	a4,a4,0x30
    80000784:	03075713          	srli	a4,a4,0x30
    80000788:	00e7c633          	xor	a2,a5,a4
    8000078c:	00167613          	andi	a2,a2,1
    80000790:	0017d693          	srli	a3,a5,0x1
    80000794:	00175f93          	srli	t6,a4,0x1
    80000798:	00060c63          	beqz	a2,800007b0 <matrix_test+0x1f0>
    8000079c:	ffffa737          	lui	a4,0xffffa
    800007a0:	00170713          	addi	a4,a4,1 # ffffffffffffa001 <_pmem_end+0xffffffff77ffa001>
    800007a4:	00efcfb3          	xor	t6,t6,a4
    800007a8:	030f9f93          	slli	t6,t6,0x30
    800007ac:	030fdf93          	srli	t6,t6,0x30
    800007b0:	00dfc6b3          	xor	a3,t6,a3
    800007b4:	0016f693          	andi	a3,a3,1
    800007b8:	0027d713          	srli	a4,a5,0x2
    800007bc:	001fdf93          	srli	t6,t6,0x1
    800007c0:	00068c63          	beqz	a3,800007d8 <matrix_test+0x218>
    800007c4:	ffffa6b7          	lui	a3,0xffffa
    800007c8:	00168693          	addi	a3,a3,1 # ffffffffffffa001 <_pmem_end+0xffffffff77ffa001>
    800007cc:	00dfcfb3          	xor	t6,t6,a3
    800007d0:	030f9f93          	slli	t6,t6,0x30
    800007d4:	030fdf93          	srli	t6,t6,0x30
    800007d8:	00efc733          	xor	a4,t6,a4
    800007dc:	00177713          	andi	a4,a4,1
    800007e0:	0037d693          	srli	a3,a5,0x3
    800007e4:	001fdf93          	srli	t6,t6,0x1
    800007e8:	00070c63          	beqz	a4,80000800 <matrix_test+0x240>
    800007ec:	ffffa737          	lui	a4,0xffffa
    800007f0:	00170713          	addi	a4,a4,1 # ffffffffffffa001 <_pmem_end+0xffffffff77ffa001>
    800007f4:	00efcfb3          	xor	t6,t6,a4
    800007f8:	030f9f93          	slli	t6,t6,0x30
    800007fc:	030fdf93          	srli	t6,t6,0x30
    80000800:	01f6c6b3          	xor	a3,a3,t6
    80000804:	0016f693          	andi	a3,a3,1
    80000808:	0047d713          	srli	a4,a5,0x4
    8000080c:	001fdf93          	srli	t6,t6,0x1
    80000810:	00068c63          	beqz	a3,80000828 <matrix_test+0x268>
    80000814:	ffffa6b7          	lui	a3,0xffffa
    80000818:	00168693          	addi	a3,a3,1 # ffffffffffffa001 <_pmem_end+0xffffffff77ffa001>
    8000081c:	00dfcfb3          	xor	t6,t6,a3
    80000820:	030f9f93          	slli	t6,t6,0x30
    80000824:	030fdf93          	srli	t6,t6,0x30
    80000828:	00efc733          	xor	a4,t6,a4
    8000082c:	00177713          	andi	a4,a4,1
    80000830:	0057d793          	srli	a5,a5,0x5
    80000834:	001fdf93          	srli	t6,t6,0x1
    80000838:	00070c63          	beqz	a4,80000850 <matrix_test+0x290>
    8000083c:	ffffa737          	lui	a4,0xffffa
    80000840:	00170713          	addi	a4,a4,1 # ffffffffffffa001 <_pmem_end+0xffffffff77ffa001>
    80000844:	00efcfb3          	xor	t6,t6,a4
    80000848:	030f9f93          	slli	t6,t6,0x30
    8000084c:	030fdf93          	srli	t6,t6,0x30
    80000850:	001ff713          	andi	a4,t6,1
    80000854:	001fdf93          	srli	t6,t6,0x1
    80000858:	00f70c63          	beq	a4,a5,80000870 <matrix_test+0x2b0>
    8000085c:	ffffa7b7          	lui	a5,0xffffa
    80000860:	00178793          	addi	a5,a5,1 # ffffffffffffa001 <_pmem_end+0xffffffff77ffa001>
    80000864:	00ffcfb3          	xor	t6,t6,a5
    80000868:	030f9f93          	slli	t6,t6,0x30
    8000086c:	030fdf93          	srli	t6,t6,0x30
    80000870:	01f447b3          	xor	a5,s0,t6
    80000874:	0017f793          	andi	a5,a5,1
    80000878:	00145713          	srli	a4,s0,0x1
    8000087c:	001fdf93          	srli	t6,t6,0x1
    80000880:	00078c63          	beqz	a5,80000898 <matrix_test+0x2d8>
    80000884:	ffffa7b7          	lui	a5,0xffffa
    80000888:	00178793          	addi	a5,a5,1 # ffffffffffffa001 <_pmem_end+0xffffffff77ffa001>
    8000088c:	00ffcfb3          	xor	t6,t6,a5
    80000890:	030f9f93          	slli	t6,t6,0x30
    80000894:	030fdf93          	srli	t6,t6,0x30
    80000898:	01f74733          	xor	a4,a4,t6
    8000089c:	00177713          	andi	a4,a4,1
    800008a0:	00245793          	srli	a5,s0,0x2
    800008a4:	001fdf93          	srli	t6,t6,0x1
    800008a8:	00070c63          	beqz	a4,800008c0 <matrix_test+0x300>
    800008ac:	ffffa737          	lui	a4,0xffffa
    800008b0:	00170713          	addi	a4,a4,1 # ffffffffffffa001 <_pmem_end+0xffffffff77ffa001>
    800008b4:	00efcfb3          	xor	t6,t6,a4
    800008b8:	030f9f93          	slli	t6,t6,0x30
    800008bc:	030fdf93          	srli	t6,t6,0x30
    800008c0:	01f7c7b3          	xor	a5,a5,t6
    800008c4:	0017f793          	andi	a5,a5,1
    800008c8:	00345713          	srli	a4,s0,0x3
    800008cc:	001fdf93          	srli	t6,t6,0x1
    800008d0:	00078c63          	beqz	a5,800008e8 <matrix_test+0x328>
    800008d4:	ffffa7b7          	lui	a5,0xffffa
    800008d8:	00178793          	addi	a5,a5,1 # ffffffffffffa001 <_pmem_end+0xffffffff77ffa001>
    800008dc:	00ffcfb3          	xor	t6,t6,a5
    800008e0:	030f9f93          	slli	t6,t6,0x30
    800008e4:	030fdf93          	srli	t6,t6,0x30
    800008e8:	01f74733          	xor	a4,a4,t6
    800008ec:	00177713          	andi	a4,a4,1
    800008f0:	00445793          	srli	a5,s0,0x4
    800008f4:	001fdf93          	srli	t6,t6,0x1
    800008f8:	00070c63          	beqz	a4,80000910 <matrix_test+0x350>
    800008fc:	ffffa737          	lui	a4,0xffffa
    80000900:	00170713          	addi	a4,a4,1 # ffffffffffffa001 <_pmem_end+0xffffffff77ffa001>
    80000904:	00efcfb3          	xor	t6,t6,a4
    80000908:	030f9f93          	slli	t6,t6,0x30
    8000090c:	030fdf93          	srli	t6,t6,0x30
    80000910:	01f7c7b3          	xor	a5,a5,t6
    80000914:	0017f793          	andi	a5,a5,1
    80000918:	00545713          	srli	a4,s0,0x5
    8000091c:	001fdf93          	srli	t6,t6,0x1
    80000920:	00078c63          	beqz	a5,80000938 <matrix_test+0x378>
    80000924:	ffffa7b7          	lui	a5,0xffffa
    80000928:	00178793          	addi	a5,a5,1 # ffffffffffffa001 <_pmem_end+0xffffffff77ffa001>
    8000092c:	00ffcfb3          	xor	t6,t6,a5
    80000930:	030f9f93          	slli	t6,t6,0x30
    80000934:	030fdf93          	srli	t6,t6,0x30
    80000938:	01f74733          	xor	a4,a4,t6
    8000093c:	00177713          	andi	a4,a4,1
    80000940:	00645793          	srli	a5,s0,0x6
    80000944:	001fdf93          	srli	t6,t6,0x1
    80000948:	00070c63          	beqz	a4,80000960 <matrix_test+0x3a0>
    8000094c:	ffffa737          	lui	a4,0xffffa
    80000950:	00170713          	addi	a4,a4,1 # ffffffffffffa001 <_pmem_end+0xffffffff77ffa001>
    80000954:	00efcfb3          	xor	t6,t6,a4
    80000958:	030f9f93          	slli	t6,t6,0x30
    8000095c:	030fdf93          	srli	t6,t6,0x30
    80000960:	01f7c7b3          	xor	a5,a5,t6
    80000964:	0017f793          	andi	a5,a5,1
    80000968:	00745413          	srli	s0,s0,0x7
    8000096c:	001fdf93          	srli	t6,t6,0x1
    80000970:	00078c63          	beqz	a5,80000988 <matrix_test+0x3c8>
    80000974:	ffffa7b7          	lui	a5,0xffffa
    80000978:	00178793          	addi	a5,a5,1 # ffffffffffffa001 <_pmem_end+0xffffffff77ffa001>
    8000097c:	00ffcfb3          	xor	t6,t6,a5
    80000980:	030f9f93          	slli	t6,t6,0x30
    80000984:	030fdf93          	srli	t6,t6,0x30
    80000988:	001ff793          	andi	a5,t6,1
    8000098c:	001fdf93          	srli	t6,t6,0x1
    80000990:	00878c63          	beq	a5,s0,800009a8 <matrix_test+0x3e8>
    80000994:	ffffa7b7          	lui	a5,0xffffa
    80000998:	00178793          	addi	a5,a5,1 # ffffffffffffa001 <_pmem_end+0xffffffff77ffa001>
    8000099c:	00ffcfb3          	xor	t6,t6,a5
    800009a0:	030f9f93          	slli	t6,t6,0x30
    800009a4:	030fdf93          	srli	t6,t6,0x30
    800009a8:	360802e3          	beqz	a6,8000150c <matrix_test+0xf4c>
    800009ac:	fff8049b          	addiw	s1,a6,-1
    800009b0:	02049793          	slli	a5,s1,0x20
    800009b4:	01e7d493          	srli	s1,a5,0x1e
    800009b8:	00488793          	addi	a5,a7,4
    800009bc:	00088393          	mv	t2,a7
    800009c0:	00f484b3          	add	s1,s1,a5
    800009c4:	00080293          	mv	t0,a6
    800009c8:	00000413          	li	s0,0
    800009cc:	00050613          	mv	a2,a0
    800009d0:	00040793          	mv	a5,s0
    800009d4:	00000e93          	li	t4,0
    800009d8:	02079713          	slli	a4,a5,0x20
    800009dc:	01f75693          	srli	a3,a4,0x1f
    800009e0:	00d586b3          	add	a3,a1,a3
    800009e4:	00061f03          	lh	t5,0(a2)
    800009e8:	00069703          	lh	a4,0(a3)
    800009ec:	0017879b          	addiw	a5,a5,1
    800009f0:	00260613          	addi	a2,a2,2
    800009f4:	03e7073b          	mulw	a4,a4,t5
    800009f8:	01d70ebb          	addw	t4,a4,t4
    800009fc:	fc579ee3          	bne	a5,t0,800009d8 <matrix_test+0x418>
    80000a00:	01d3a023          	sw	t4,0(t2)
    80000a04:	00438393          	addi	t2,t2,4
    80000a08:	0088043b          	addw	s0,a6,s0
    80000a0c:	00f802bb          	addw	t0,a6,a5
    80000a10:	fa939ee3          	bne	t2,s1,800009cc <matrix_test+0x40c>
    80000a14:	000e041b          	sext.w	s0,t3
    80000a18:	00080293          	mv	t0,a6
    80000a1c:	00000913          	li	s2,0
    80000a20:	00000713          	li	a4,0
    80000a24:	00000613          	li	a2,0
    80000a28:	00000f13          	li	t5,0
    80000a2c:	00000493          	li	s1,0
    80000a30:	00090693          	mv	a3,s2
    80000a34:	01c0006f          	j	80000a50 <matrix_test+0x490>
    80000a38:	03079393          	slli	t2,a5,0x30
    80000a3c:	0107971b          	slliw	a4,a5,0x10
    80000a40:	0016869b          	addiw	a3,a3,1
    80000a44:	0303d393          	srli	t2,t2,0x30
    80000a48:	4107571b          	sraiw	a4,a4,0x10
    80000a4c:	04568863          	beq	a3,t0,80000a9c <matrix_test+0x4dc>
    80000a50:	02069793          	slli	a5,a3,0x20
    80000a54:	01e7de93          	srli	t4,a5,0x1e
    80000a58:	01d88eb3          	add	t4,a7,t4
    80000a5c:	00060793          	mv	a5,a2
    80000a60:	000ea603          	lw	a2,0(t4)
    80000a64:	03071713          	slli	a4,a4,0x30
    80000a68:	03075713          	srli	a4,a4,0x30
    80000a6c:	00c7a7b3          	slt	a5,a5,a2
    80000a70:	01e60f3b          	addw	t5,a2,t5
    80000a74:	00a70e9b          	addiw	t4,a4,10
    80000a78:	00e787bb          	addw	a5,a5,a4
    80000a7c:	fbe45ee3          	bge	s0,t5,80000a38 <matrix_test+0x478>
    80000a80:	030e9393          	slli	t2,t4,0x30
    80000a84:	010e971b          	slliw	a4,t4,0x10
    80000a88:	0016869b          	addiw	a3,a3,1
    80000a8c:	0303d393          	srli	t2,t2,0x30
    80000a90:	4107571b          	sraiw	a4,a4,0x10
    80000a94:	00000f13          	li	t5,0
    80000a98:	fa569ce3          	bne	a3,t0,80000a50 <matrix_test+0x490>
    80000a9c:	0014849b          	addiw	s1,s1,1
    80000aa0:	00d802bb          	addw	t0,a6,a3
    80000aa4:	0128093b          	addw	s2,a6,s2
    80000aa8:	f89814e3          	bne	a6,s1,80000a30 <matrix_test+0x470>
    80000aac:	0ff77713          	zext.b	a4,a4
    80000ab0:	0083d393          	srli	t2,t2,0x8
    80000ab4:	01f746b3          	xor	a3,a4,t6
    80000ab8:	0016f693          	andi	a3,a3,1
    80000abc:	00175613          	srli	a2,a4,0x1
    80000ac0:	001fd793          	srli	a5,t6,0x1
    80000ac4:	00068c63          	beqz	a3,80000adc <matrix_test+0x51c>
    80000ac8:	ffffa6b7          	lui	a3,0xffffa
    80000acc:	00168693          	addi	a3,a3,1 # ffffffffffffa001 <_pmem_end+0xffffffff77ffa001>
    80000ad0:	00d7c7b3          	xor	a5,a5,a3
    80000ad4:	03079793          	slli	a5,a5,0x30
    80000ad8:	0307d793          	srli	a5,a5,0x30
    80000adc:	00f64633          	xor	a2,a2,a5
    80000ae0:	00167613          	andi	a2,a2,1
    80000ae4:	00275693          	srli	a3,a4,0x2
    80000ae8:	0017d793          	srli	a5,a5,0x1
    80000aec:	00060c63          	beqz	a2,80000b04 <matrix_test+0x544>
    80000af0:	ffffa637          	lui	a2,0xffffa
    80000af4:	00160613          	addi	a2,a2,1 # ffffffffffffa001 <_pmem_end+0xffffffff77ffa001>
    80000af8:	00c7c7b3          	xor	a5,a5,a2
    80000afc:	03079793          	slli	a5,a5,0x30
    80000b00:	0307d793          	srli	a5,a5,0x30
    80000b04:	00f6c6b3          	xor	a3,a3,a5
    80000b08:	0016f693          	andi	a3,a3,1
    80000b0c:	00375613          	srli	a2,a4,0x3
    80000b10:	0017d793          	srli	a5,a5,0x1
    80000b14:	00068c63          	beqz	a3,80000b2c <matrix_test+0x56c>
    80000b18:	ffffa6b7          	lui	a3,0xffffa
    80000b1c:	00168693          	addi	a3,a3,1 # ffffffffffffa001 <_pmem_end+0xffffffff77ffa001>
    80000b20:	00d7c7b3          	xor	a5,a5,a3
    80000b24:	03079793          	slli	a5,a5,0x30
    80000b28:	0307d793          	srli	a5,a5,0x30
    80000b2c:	00f64633          	xor	a2,a2,a5
    80000b30:	00167613          	andi	a2,a2,1
    80000b34:	00475693          	srli	a3,a4,0x4
    80000b38:	0017d793          	srli	a5,a5,0x1
    80000b3c:	00060c63          	beqz	a2,80000b54 <matrix_test+0x594>
    80000b40:	ffffa637          	lui	a2,0xffffa
    80000b44:	00160613          	addi	a2,a2,1 # ffffffffffffa001 <_pmem_end+0xffffffff77ffa001>
    80000b48:	00c7c7b3          	xor	a5,a5,a2
    80000b4c:	03079793          	slli	a5,a5,0x30
    80000b50:	0307d793          	srli	a5,a5,0x30
    80000b54:	00f6c6b3          	xor	a3,a3,a5
    80000b58:	0016f693          	andi	a3,a3,1
    80000b5c:	00575613          	srli	a2,a4,0x5
    80000b60:	0017d793          	srli	a5,a5,0x1
    80000b64:	00068c63          	beqz	a3,80000b7c <matrix_test+0x5bc>
    80000b68:	ffffa6b7          	lui	a3,0xffffa
    80000b6c:	00168693          	addi	a3,a3,1 # ffffffffffffa001 <_pmem_end+0xffffffff77ffa001>
    80000b70:	00d7c7b3          	xor	a5,a5,a3
    80000b74:	03079793          	slli	a5,a5,0x30
    80000b78:	0307d793          	srli	a5,a5,0x30
    80000b7c:	00f64633          	xor	a2,a2,a5
    80000b80:	00167613          	andi	a2,a2,1
    80000b84:	00675693          	srli	a3,a4,0x6
    80000b88:	0017d793          	srli	a5,a5,0x1
    80000b8c:	00060c63          	beqz	a2,80000ba4 <matrix_test+0x5e4>
    80000b90:	ffffa637          	lui	a2,0xffffa
    80000b94:	00160613          	addi	a2,a2,1 # ffffffffffffa001 <_pmem_end+0xffffffff77ffa001>
    80000b98:	00c7c7b3          	xor	a5,a5,a2
    80000b9c:	03079793          	slli	a5,a5,0x30
    80000ba0:	0307d793          	srli	a5,a5,0x30
    80000ba4:	00f6c6b3          	xor	a3,a3,a5
    80000ba8:	0016f693          	andi	a3,a3,1
    80000bac:	00775713          	srli	a4,a4,0x7
    80000bb0:	0017d793          	srli	a5,a5,0x1
    80000bb4:	00068c63          	beqz	a3,80000bcc <matrix_test+0x60c>
    80000bb8:	ffffa6b7          	lui	a3,0xffffa
    80000bbc:	00168693          	addi	a3,a3,1 # ffffffffffffa001 <_pmem_end+0xffffffff77ffa001>
    80000bc0:	00d7c7b3          	xor	a5,a5,a3
    80000bc4:	03079793          	slli	a5,a5,0x30
    80000bc8:	0307d793          	srli	a5,a5,0x30
    80000bcc:	0017f693          	andi	a3,a5,1
    80000bd0:	0017d793          	srli	a5,a5,0x1
    80000bd4:	00e68c63          	beq	a3,a4,80000bec <matrix_test+0x62c>
    80000bd8:	ffffa737          	lui	a4,0xffffa
    80000bdc:	00170713          	addi	a4,a4,1 # ffffffffffffa001 <_pmem_end+0xffffffff77ffa001>
    80000be0:	00e7c7b3          	xor	a5,a5,a4
    80000be4:	03079793          	slli	a5,a5,0x30
    80000be8:	0307d793          	srli	a5,a5,0x30
    80000bec:	0077c6b3          	xor	a3,a5,t2
    80000bf0:	0016f693          	andi	a3,a3,1
    80000bf4:	0013d713          	srli	a4,t2,0x1
    80000bf8:	0017d793          	srli	a5,a5,0x1
    80000bfc:	00068c63          	beqz	a3,80000c14 <matrix_test+0x654>
    80000c00:	ffffa6b7          	lui	a3,0xffffa
    80000c04:	00168693          	addi	a3,a3,1 # ffffffffffffa001 <_pmem_end+0xffffffff77ffa001>
    80000c08:	00d7c7b3          	xor	a5,a5,a3
    80000c0c:	03079793          	slli	a5,a5,0x30
    80000c10:	0307d793          	srli	a5,a5,0x30
    80000c14:	00e7c733          	xor	a4,a5,a4
    80000c18:	00177713          	andi	a4,a4,1
    80000c1c:	0023d693          	srli	a3,t2,0x2
    80000c20:	0017d793          	srli	a5,a5,0x1
    80000c24:	00070c63          	beqz	a4,80000c3c <matrix_test+0x67c>
    80000c28:	ffffa737          	lui	a4,0xffffa
    80000c2c:	00170713          	addi	a4,a4,1 # ffffffffffffa001 <_pmem_end+0xffffffff77ffa001>
    80000c30:	00e7c7b3          	xor	a5,a5,a4
    80000c34:	03079793          	slli	a5,a5,0x30
    80000c38:	0307d793          	srli	a5,a5,0x30
    80000c3c:	00f6c6b3          	xor	a3,a3,a5
    80000c40:	0016f693          	andi	a3,a3,1
    80000c44:	0033d713          	srli	a4,t2,0x3
    80000c48:	0017d793          	srli	a5,a5,0x1
    80000c4c:	00068c63          	beqz	a3,80000c64 <matrix_test+0x6a4>
    80000c50:	ffffa6b7          	lui	a3,0xffffa
    80000c54:	00168693          	addi	a3,a3,1 # ffffffffffffa001 <_pmem_end+0xffffffff77ffa001>
    80000c58:	00d7c7b3          	xor	a5,a5,a3
    80000c5c:	03079793          	slli	a5,a5,0x30
    80000c60:	0307d793          	srli	a5,a5,0x30
    80000c64:	00f74733          	xor	a4,a4,a5
    80000c68:	00177713          	andi	a4,a4,1
    80000c6c:	0043d693          	srli	a3,t2,0x4
    80000c70:	0017d793          	srli	a5,a5,0x1
    80000c74:	00070c63          	beqz	a4,80000c8c <matrix_test+0x6cc>
    80000c78:	ffffa737          	lui	a4,0xffffa
    80000c7c:	00170713          	addi	a4,a4,1 # ffffffffffffa001 <_pmem_end+0xffffffff77ffa001>
    80000c80:	00e7c7b3          	xor	a5,a5,a4
    80000c84:	03079793          	slli	a5,a5,0x30
    80000c88:	0307d793          	srli	a5,a5,0x30
    80000c8c:	00f6c6b3          	xor	a3,a3,a5
    80000c90:	0016f693          	andi	a3,a3,1
    80000c94:	0053d713          	srli	a4,t2,0x5
    80000c98:	0017d793          	srli	a5,a5,0x1
    80000c9c:	00068c63          	beqz	a3,80000cb4 <matrix_test+0x6f4>
    80000ca0:	ffffa6b7          	lui	a3,0xffffa
    80000ca4:	00168693          	addi	a3,a3,1 # ffffffffffffa001 <_pmem_end+0xffffffff77ffa001>
    80000ca8:	00d7c7b3          	xor	a5,a5,a3
    80000cac:	03079793          	slli	a5,a5,0x30
    80000cb0:	0307d793          	srli	a5,a5,0x30
    80000cb4:	00f74733          	xor	a4,a4,a5
    80000cb8:	00177713          	andi	a4,a4,1
    80000cbc:	0063d693          	srli	a3,t2,0x6
    80000cc0:	0017d793          	srli	a5,a5,0x1
    80000cc4:	00070c63          	beqz	a4,80000cdc <matrix_test+0x71c>
    80000cc8:	ffffa737          	lui	a4,0xffffa
    80000ccc:	00170713          	addi	a4,a4,1 # ffffffffffffa001 <_pmem_end+0xffffffff77ffa001>
    80000cd0:	00e7c7b3          	xor	a5,a5,a4
    80000cd4:	03079793          	slli	a5,a5,0x30
    80000cd8:	0307d793          	srli	a5,a5,0x30
    80000cdc:	00f6c6b3          	xor	a3,a3,a5
    80000ce0:	0016f693          	andi	a3,a3,1
    80000ce4:	0073d713          	srli	a4,t2,0x7
    80000ce8:	0017d793          	srli	a5,a5,0x1
    80000cec:	00068c63          	beqz	a3,80000d04 <matrix_test+0x744>
    80000cf0:	ffffa6b7          	lui	a3,0xffffa
    80000cf4:	00168693          	addi	a3,a3,1 # ffffffffffffa001 <_pmem_end+0xffffffff77ffa001>
    80000cf8:	00d7c7b3          	xor	a5,a5,a3
    80000cfc:	03079793          	slli	a5,a5,0x30
    80000d00:	0307d793          	srli	a5,a5,0x30
    80000d04:	0017f693          	andi	a3,a5,1
    80000d08:	0017d393          	srli	t2,a5,0x1
    80000d0c:	00e68c63          	beq	a3,a4,80000d24 <matrix_test+0x764>
    80000d10:	ffffa7b7          	lui	a5,0xffffa
    80000d14:	00178793          	addi	a5,a5,1 # ffffffffffffa001 <_pmem_end+0xffffffff77ffa001>
    80000d18:	00f3c3b3          	xor	t2,t2,a5
    80000d1c:	03039393          	slli	t2,t2,0x30
    80000d20:	0303d393          	srli	t2,t2,0x30
    80000d24:	00080f13          	mv	t5,a6
    80000d28:	00000413          	li	s0,0
    80000d2c:	00000493          	li	s1,0
    80000d30:	00000793          	li	a5,0
    80000d34:	06080a63          	beqz	a6,80000da8 <matrix_test+0x7e8>
    80000d38:	00000293          	li	t0,0
    80000d3c:	00540fbb          	addw	t6,s0,t0
    80000d40:	020f9793          	slli	a5,t6,0x20
    80000d44:	01e7df93          	srli	t6,a5,0x1e
    80000d48:	01f88fb3          	add	t6,a7,t6
    80000d4c:	00028613          	mv	a2,t0
    80000d50:	00040793          	mv	a5,s0
    80000d54:	00000e93          	li	t4,0
    80000d58:	02079693          	slli	a3,a5,0x20
    80000d5c:	02061913          	slli	s2,a2,0x20
    80000d60:	01f6d713          	srli	a4,a3,0x1f
    80000d64:	01f95693          	srli	a3,s2,0x1f
    80000d68:	00e58733          	add	a4,a1,a4
    80000d6c:	00d506b3          	add	a3,a0,a3
    80000d70:	00071703          	lh	a4,0(a4)
    80000d74:	00069683          	lh	a3,0(a3)
    80000d78:	0017879b          	addiw	a5,a5,1
    80000d7c:	00c8063b          	addw	a2,a6,a2
    80000d80:	02d7073b          	mulw	a4,a4,a3
    80000d84:	01d70ebb          	addw	t4,a4,t4
    80000d88:	fde798e3          	bne	a5,t5,80000d58 <matrix_test+0x798>
    80000d8c:	01dfa023          	sw	t4,0(t6)
    80000d90:	00128f9b          	addiw	t6,t0,1
    80000d94:	5ff80c63          	beq	a6,t6,8000138c <matrix_test+0xdcc>
    80000d98:	000f8293          	mv	t0,t6
    80000d9c:	fa1ff06f          	j	80000d3c <matrix_test+0x77c>
    80000da0:	0ff77793          	zext.b	a5,a4
    80000da4:	0084d493          	srli	s1,s1,0x8
    80000da8:	0077c733          	xor	a4,a5,t2
    80000dac:	00177713          	andi	a4,a4,1
    80000db0:	0017d693          	srli	a3,a5,0x1
    80000db4:	0013d293          	srli	t0,t2,0x1
    80000db8:	00070c63          	beqz	a4,80000dd0 <matrix_test+0x810>
    80000dbc:	ffffa737          	lui	a4,0xffffa
    80000dc0:	00170713          	addi	a4,a4,1 # ffffffffffffa001 <_pmem_end+0xffffffff77ffa001>
    80000dc4:	00e2c2b3          	xor	t0,t0,a4
    80000dc8:	03029293          	slli	t0,t0,0x30
    80000dcc:	0302d293          	srli	t0,t0,0x30
    80000dd0:	00d2c6b3          	xor	a3,t0,a3
    80000dd4:	0016f693          	andi	a3,a3,1
    80000dd8:	0027d713          	srli	a4,a5,0x2
    80000ddc:	0012d293          	srli	t0,t0,0x1
    80000de0:	00068c63          	beqz	a3,80000df8 <matrix_test+0x838>
    80000de4:	ffffa6b7          	lui	a3,0xffffa
    80000de8:	00168693          	addi	a3,a3,1 # ffffffffffffa001 <_pmem_end+0xffffffff77ffa001>
    80000dec:	00d2c2b3          	xor	t0,t0,a3
    80000df0:	03029293          	slli	t0,t0,0x30
    80000df4:	0302d293          	srli	t0,t0,0x30
    80000df8:	00574733          	xor	a4,a4,t0
    80000dfc:	00177713          	andi	a4,a4,1
    80000e00:	0037d693          	srli	a3,a5,0x3
    80000e04:	0012d293          	srli	t0,t0,0x1
    80000e08:	00070c63          	beqz	a4,80000e20 <matrix_test+0x860>
    80000e0c:	ffffa737          	lui	a4,0xffffa
    80000e10:	00170713          	addi	a4,a4,1 # ffffffffffffa001 <_pmem_end+0xffffffff77ffa001>
    80000e14:	00e2c2b3          	xor	t0,t0,a4
    80000e18:	03029293          	slli	t0,t0,0x30
    80000e1c:	0302d293          	srli	t0,t0,0x30
    80000e20:	0056c6b3          	xor	a3,a3,t0
    80000e24:	0016f693          	andi	a3,a3,1
    80000e28:	0047d713          	srli	a4,a5,0x4
    80000e2c:	0012d293          	srli	t0,t0,0x1
    80000e30:	00068c63          	beqz	a3,80000e48 <matrix_test+0x888>
    80000e34:	ffffa6b7          	lui	a3,0xffffa
    80000e38:	00168693          	addi	a3,a3,1 # ffffffffffffa001 <_pmem_end+0xffffffff77ffa001>
    80000e3c:	00d2c2b3          	xor	t0,t0,a3
    80000e40:	03029293          	slli	t0,t0,0x30
    80000e44:	0302d293          	srli	t0,t0,0x30
    80000e48:	00574733          	xor	a4,a4,t0
    80000e4c:	00177713          	andi	a4,a4,1
    80000e50:	0057d693          	srli	a3,a5,0x5
    80000e54:	0012d293          	srli	t0,t0,0x1
    80000e58:	00070c63          	beqz	a4,80000e70 <matrix_test+0x8b0>
    80000e5c:	ffffa737          	lui	a4,0xffffa
    80000e60:	00170713          	addi	a4,a4,1 # ffffffffffffa001 <_pmem_end+0xffffffff77ffa001>
    80000e64:	00e2c2b3          	xor	t0,t0,a4
    80000e68:	03029293          	slli	t0,t0,0x30
    80000e6c:	0302d293          	srli	t0,t0,0x30
    80000e70:	00d2c6b3          	xor	a3,t0,a3
    80000e74:	0016f693          	andi	a3,a3,1
    80000e78:	0067d713          	srli	a4,a5,0x6
    80000e7c:	0012d293          	srli	t0,t0,0x1
    80000e80:	00068c63          	beqz	a3,80000e98 <matrix_test+0x8d8>
    80000e84:	ffffa6b7          	lui	a3,0xffffa
    80000e88:	00168693          	addi	a3,a3,1 # ffffffffffffa001 <_pmem_end+0xffffffff77ffa001>
    80000e8c:	00d2c2b3          	xor	t0,t0,a3
    80000e90:	03029293          	slli	t0,t0,0x30
    80000e94:	0302d293          	srli	t0,t0,0x30
    80000e98:	00e2c733          	xor	a4,t0,a4
    80000e9c:	00177713          	andi	a4,a4,1
    80000ea0:	0077d793          	srli	a5,a5,0x7
    80000ea4:	0012d293          	srli	t0,t0,0x1
    80000ea8:	00070c63          	beqz	a4,80000ec0 <matrix_test+0x900>
    80000eac:	ffffa737          	lui	a4,0xffffa
    80000eb0:	00170713          	addi	a4,a4,1 # ffffffffffffa001 <_pmem_end+0xffffffff77ffa001>
    80000eb4:	00e2c2b3          	xor	t0,t0,a4
    80000eb8:	03029293          	slli	t0,t0,0x30
    80000ebc:	0302d293          	srli	t0,t0,0x30
    80000ec0:	0012f713          	andi	a4,t0,1
    80000ec4:	0012d293          	srli	t0,t0,0x1
    80000ec8:	00f70c63          	beq	a4,a5,80000ee0 <matrix_test+0x920>
    80000ecc:	ffffa7b7          	lui	a5,0xffffa
    80000ed0:	00178793          	addi	a5,a5,1 # ffffffffffffa001 <_pmem_end+0xffffffff77ffa001>
    80000ed4:	00f2c2b3          	xor	t0,t0,a5
    80000ed8:	03029293          	slli	t0,t0,0x30
    80000edc:	0302d293          	srli	t0,t0,0x30
    80000ee0:	0092c7b3          	xor	a5,t0,s1
    80000ee4:	0017f793          	andi	a5,a5,1
    80000ee8:	0014d713          	srli	a4,s1,0x1
    80000eec:	0012d293          	srli	t0,t0,0x1
    80000ef0:	00078c63          	beqz	a5,80000f08 <matrix_test+0x948>
    80000ef4:	ffffa7b7          	lui	a5,0xffffa
    80000ef8:	00178793          	addi	a5,a5,1 # ffffffffffffa001 <_pmem_end+0xffffffff77ffa001>
    80000efc:	00f2c2b3          	xor	t0,t0,a5
    80000f00:	03029293          	slli	t0,t0,0x30
    80000f04:	0302d293          	srli	t0,t0,0x30
    80000f08:	00e2c733          	xor	a4,t0,a4
    80000f0c:	00177713          	andi	a4,a4,1
    80000f10:	0024d793          	srli	a5,s1,0x2
    80000f14:	0012d293          	srli	t0,t0,0x1
    80000f18:	00070c63          	beqz	a4,80000f30 <matrix_test+0x970>
    80000f1c:	ffffa737          	lui	a4,0xffffa
    80000f20:	00170713          	addi	a4,a4,1 # ffffffffffffa001 <_pmem_end+0xffffffff77ffa001>
    80000f24:	00e2c2b3          	xor	t0,t0,a4
    80000f28:	03029293          	slli	t0,t0,0x30
    80000f2c:	0302d293          	srli	t0,t0,0x30
    80000f30:	00f2c7b3          	xor	a5,t0,a5
    80000f34:	0017f793          	andi	a5,a5,1
    80000f38:	0034d713          	srli	a4,s1,0x3
    80000f3c:	0012d293          	srli	t0,t0,0x1
    80000f40:	00078c63          	beqz	a5,80000f58 <matrix_test+0x998>
    80000f44:	ffffa7b7          	lui	a5,0xffffa
    80000f48:	00178793          	addi	a5,a5,1 # ffffffffffffa001 <_pmem_end+0xffffffff77ffa001>
    80000f4c:	00f2c2b3          	xor	t0,t0,a5
    80000f50:	03029293          	slli	t0,t0,0x30
    80000f54:	0302d293          	srli	t0,t0,0x30
    80000f58:	00e2c733          	xor	a4,t0,a4
    80000f5c:	00177713          	andi	a4,a4,1
    80000f60:	0044d793          	srli	a5,s1,0x4
    80000f64:	0012d293          	srli	t0,t0,0x1
    80000f68:	00070c63          	beqz	a4,80000f80 <matrix_test+0x9c0>
    80000f6c:	ffffa737          	lui	a4,0xffffa
    80000f70:	00170713          	addi	a4,a4,1 # ffffffffffffa001 <_pmem_end+0xffffffff77ffa001>
    80000f74:	00e2c2b3          	xor	t0,t0,a4
    80000f78:	03029293          	slli	t0,t0,0x30
    80000f7c:	0302d293          	srli	t0,t0,0x30
    80000f80:	00f2c7b3          	xor	a5,t0,a5
    80000f84:	0017f793          	andi	a5,a5,1
    80000f88:	0054d713          	srli	a4,s1,0x5
    80000f8c:	0012d293          	srli	t0,t0,0x1
    80000f90:	00078c63          	beqz	a5,80000fa8 <matrix_test+0x9e8>
    80000f94:	ffffa7b7          	lui	a5,0xffffa
    80000f98:	00178793          	addi	a5,a5,1 # ffffffffffffa001 <_pmem_end+0xffffffff77ffa001>
    80000f9c:	00f2c2b3          	xor	t0,t0,a5
    80000fa0:	03029293          	slli	t0,t0,0x30
    80000fa4:	0302d293          	srli	t0,t0,0x30
    80000fa8:	00574733          	xor	a4,a4,t0
    80000fac:	00177713          	andi	a4,a4,1
    80000fb0:	0064d793          	srli	a5,s1,0x6
    80000fb4:	0012d293          	srli	t0,t0,0x1
    80000fb8:	00070c63          	beqz	a4,80000fd0 <matrix_test+0xa10>
    80000fbc:	ffffa737          	lui	a4,0xffffa
    80000fc0:	00170713          	addi	a4,a4,1 # ffffffffffffa001 <_pmem_end+0xffffffff77ffa001>
    80000fc4:	00e2c2b3          	xor	t0,t0,a4
    80000fc8:	03029293          	slli	t0,t0,0x30
    80000fcc:	0302d293          	srli	t0,t0,0x30
    80000fd0:	0057c7b3          	xor	a5,a5,t0
    80000fd4:	0017f793          	andi	a5,a5,1
    80000fd8:	0074d493          	srli	s1,s1,0x7
    80000fdc:	0012d293          	srli	t0,t0,0x1
    80000fe0:	00078c63          	beqz	a5,80000ff8 <matrix_test+0xa38>
    80000fe4:	ffffa7b7          	lui	a5,0xffffa
    80000fe8:	00178793          	addi	a5,a5,1 # ffffffffffffa001 <_pmem_end+0xffffffff77ffa001>
    80000fec:	00f2c2b3          	xor	t0,t0,a5
    80000ff0:	03029293          	slli	t0,t0,0x30
    80000ff4:	0302d293          	srli	t0,t0,0x30
    80000ff8:	0012f793          	andi	a5,t0,1
    80000ffc:	0012d293          	srli	t0,t0,0x1
    80001000:	00978c63          	beq	a5,s1,80001018 <matrix_test+0xa58>
    80001004:	ffffa7b7          	lui	a5,0xffffa
    80001008:	00178793          	addi	a5,a5,1 # ffffffffffffa001 <_pmem_end+0xffffffff77ffa001>
    8000100c:	00f2c2b3          	xor	t0,t0,a5
    80001010:	03029293          	slli	t0,t0,0x30
    80001014:	0302d293          	srli	t0,t0,0x30
    80001018:	00080f13          	mv	t5,a6
    8000101c:	00000413          	li	s0,0
    80001020:	00000493          	li	s1,0
    80001024:	00000693          	li	a3,0
    80001028:	00000713          	li	a4,0
    8000102c:	08080463          	beqz	a6,800010b4 <matrix_test+0xaf4>
    80001030:	00000f93          	li	t6,0
    80001034:	008f83bb          	addw	t2,t6,s0
    80001038:	02039793          	slli	a5,t2,0x20
    8000103c:	01e7d393          	srli	t2,a5,0x1e
    80001040:	007883b3          	add	t2,a7,t2
    80001044:	000f8613          	mv	a2,t6
    80001048:	00040693          	mv	a3,s0
    8000104c:	00000e93          	li	t4,0
    80001050:	02069713          	slli	a4,a3,0x20
    80001054:	02061913          	slli	s2,a2,0x20
    80001058:	01f75793          	srli	a5,a4,0x1f
    8000105c:	01f95713          	srli	a4,s2,0x1f
    80001060:	00f587b3          	add	a5,a1,a5
    80001064:	00e50733          	add	a4,a0,a4
    80001068:	00071703          	lh	a4,0(a4)
    8000106c:	00079783          	lh	a5,0(a5)
    80001070:	0016869b          	addiw	a3,a3,1
    80001074:	00c8063b          	addw	a2,a6,a2
    80001078:	02e787bb          	mulw	a5,a5,a4
    8000107c:	4027d71b          	sraiw	a4,a5,0x2
    80001080:	4057d79b          	sraiw	a5,a5,0x5
    80001084:	00f77713          	andi	a4,a4,15
    80001088:	07f7f793          	andi	a5,a5,127
    8000108c:	02f707bb          	mulw	a5,a4,a5
    80001090:	01d78ebb          	addw	t4,a5,t4
    80001094:	fadf1ee3          	bne	t5,a3,80001050 <matrix_test+0xa90>
    80001098:	01d3a023          	sw	t4,0(t2)
    8000109c:	001f839b          	addiw	t2,t6,1
    800010a0:	30780263          	beq	a6,t2,800013a4 <matrix_test+0xde4>
    800010a4:	00038f93          	mv	t6,t2
    800010a8:	f8dff06f          	j	80001034 <matrix_test+0xa74>
    800010ac:	0ff77713          	zext.b	a4,a4
    800010b0:	00845693          	srli	a3,s0,0x8
    800010b4:	00e2c633          	xor	a2,t0,a4
    800010b8:	00167613          	andi	a2,a2,1
    800010bc:	00175513          	srli	a0,a4,0x1
    800010c0:	0012d793          	srli	a5,t0,0x1
    800010c4:	00060c63          	beqz	a2,800010dc <matrix_test+0xb1c>
    800010c8:	ffffa637          	lui	a2,0xffffa
    800010cc:	00160613          	addi	a2,a2,1 # ffffffffffffa001 <_pmem_end+0xffffffff77ffa001>
    800010d0:	00c7c7b3          	xor	a5,a5,a2
    800010d4:	03079793          	slli	a5,a5,0x30
    800010d8:	0307d793          	srli	a5,a5,0x30
    800010dc:	00a7c533          	xor	a0,a5,a0
    800010e0:	00157513          	andi	a0,a0,1
    800010e4:	00275613          	srli	a2,a4,0x2
    800010e8:	0017d793          	srli	a5,a5,0x1
    800010ec:	00050c63          	beqz	a0,80001104 <matrix_test+0xb44>
    800010f0:	ffffa537          	lui	a0,0xffffa
    800010f4:	00150513          	addi	a0,a0,1 # ffffffffffffa001 <_pmem_end+0xffffffff77ffa001>
    800010f8:	00a7c7b3          	xor	a5,a5,a0
    800010fc:	03079793          	slli	a5,a5,0x30
    80001100:	0307d793          	srli	a5,a5,0x30
    80001104:	00c7c633          	xor	a2,a5,a2
    80001108:	00167613          	andi	a2,a2,1
    8000110c:	00375513          	srli	a0,a4,0x3
    80001110:	0017d793          	srli	a5,a5,0x1
    80001114:	00060c63          	beqz	a2,8000112c <matrix_test+0xb6c>
    80001118:	ffffa637          	lui	a2,0xffffa
    8000111c:	00160613          	addi	a2,a2,1 # ffffffffffffa001 <_pmem_end+0xffffffff77ffa001>
    80001120:	00c7c7b3          	xor	a5,a5,a2
    80001124:	03079793          	slli	a5,a5,0x30
    80001128:	0307d793          	srli	a5,a5,0x30
    8000112c:	00f54533          	xor	a0,a0,a5
    80001130:	00157513          	andi	a0,a0,1
    80001134:	00475613          	srli	a2,a4,0x4
    80001138:	0017d793          	srli	a5,a5,0x1
    8000113c:	00050c63          	beqz	a0,80001154 <matrix_test+0xb94>
    80001140:	ffffa537          	lui	a0,0xffffa
    80001144:	00150513          	addi	a0,a0,1 # ffffffffffffa001 <_pmem_end+0xffffffff77ffa001>
    80001148:	00a7c7b3          	xor	a5,a5,a0
    8000114c:	03079793          	slli	a5,a5,0x30
    80001150:	0307d793          	srli	a5,a5,0x30
    80001154:	00f64633          	xor	a2,a2,a5
    80001158:	00167613          	andi	a2,a2,1
    8000115c:	00575513          	srli	a0,a4,0x5
    80001160:	0017d793          	srli	a5,a5,0x1
    80001164:	00060c63          	beqz	a2,8000117c <matrix_test+0xbbc>
    80001168:	ffffa637          	lui	a2,0xffffa
    8000116c:	00160613          	addi	a2,a2,1 # ffffffffffffa001 <_pmem_end+0xffffffff77ffa001>
    80001170:	00c7c7b3          	xor	a5,a5,a2
    80001174:	03079793          	slli	a5,a5,0x30
    80001178:	0307d793          	srli	a5,a5,0x30
    8000117c:	00f54533          	xor	a0,a0,a5
    80001180:	00157513          	andi	a0,a0,1
    80001184:	00675613          	srli	a2,a4,0x6
    80001188:	0017d793          	srli	a5,a5,0x1
    8000118c:	00050c63          	beqz	a0,800011a4 <matrix_test+0xbe4>
    80001190:	ffffa537          	lui	a0,0xffffa
    80001194:	00150513          	addi	a0,a0,1 # ffffffffffffa001 <_pmem_end+0xffffffff77ffa001>
    80001198:	00a7c7b3          	xor	a5,a5,a0
    8000119c:	03079793          	slli	a5,a5,0x30
    800011a0:	0307d793          	srli	a5,a5,0x30
    800011a4:	00c7c633          	xor	a2,a5,a2
    800011a8:	00167613          	andi	a2,a2,1
    800011ac:	00775713          	srli	a4,a4,0x7
    800011b0:	0017d793          	srli	a5,a5,0x1
    800011b4:	00060c63          	beqz	a2,800011cc <matrix_test+0xc0c>
    800011b8:	ffffa637          	lui	a2,0xffffa
    800011bc:	00160613          	addi	a2,a2,1 # ffffffffffffa001 <_pmem_end+0xffffffff77ffa001>
    800011c0:	00c7c7b3          	xor	a5,a5,a2
    800011c4:	03079793          	slli	a5,a5,0x30
    800011c8:	0307d793          	srli	a5,a5,0x30
    800011cc:	0017f613          	andi	a2,a5,1
    800011d0:	0017d793          	srli	a5,a5,0x1
    800011d4:	00e60c63          	beq	a2,a4,800011ec <matrix_test+0xc2c>
    800011d8:	ffffa737          	lui	a4,0xffffa
    800011dc:	00170713          	addi	a4,a4,1 # ffffffffffffa001 <_pmem_end+0xffffffff77ffa001>
    800011e0:	00e7c7b3          	xor	a5,a5,a4
    800011e4:	03079793          	slli	a5,a5,0x30
    800011e8:	0307d793          	srli	a5,a5,0x30
    800011ec:	00f6c733          	xor	a4,a3,a5
    800011f0:	00177713          	andi	a4,a4,1
    800011f4:	0016d613          	srli	a2,a3,0x1
    800011f8:	0017d793          	srli	a5,a5,0x1
    800011fc:	00070c63          	beqz	a4,80001214 <matrix_test+0xc54>
    80001200:	ffffa737          	lui	a4,0xffffa
    80001204:	00170713          	addi	a4,a4,1 # ffffffffffffa001 <_pmem_end+0xffffffff77ffa001>
    80001208:	00e7c7b3          	xor	a5,a5,a4
    8000120c:	03079793          	slli	a5,a5,0x30
    80001210:	0307d793          	srli	a5,a5,0x30
    80001214:	00f64633          	xor	a2,a2,a5
    80001218:	00167613          	andi	a2,a2,1
    8000121c:	0026d713          	srli	a4,a3,0x2
    80001220:	0017d793          	srli	a5,a5,0x1
    80001224:	00060c63          	beqz	a2,8000123c <matrix_test+0xc7c>
    80001228:	ffffa637          	lui	a2,0xffffa
    8000122c:	00160613          	addi	a2,a2,1 # ffffffffffffa001 <_pmem_end+0xffffffff77ffa001>
    80001230:	00c7c7b3          	xor	a5,a5,a2
    80001234:	03079793          	slli	a5,a5,0x30
    80001238:	0307d793          	srli	a5,a5,0x30
    8000123c:	00f74733          	xor	a4,a4,a5
    80001240:	00177713          	andi	a4,a4,1
    80001244:	0036d613          	srli	a2,a3,0x3
    80001248:	0017d793          	srli	a5,a5,0x1
    8000124c:	00070c63          	beqz	a4,80001264 <matrix_test+0xca4>
    80001250:	ffffa737          	lui	a4,0xffffa
    80001254:	00170713          	addi	a4,a4,1 # ffffffffffffa001 <_pmem_end+0xffffffff77ffa001>
    80001258:	00e7c7b3          	xor	a5,a5,a4
    8000125c:	03079793          	slli	a5,a5,0x30
    80001260:	0307d793          	srli	a5,a5,0x30
    80001264:	00f64633          	xor	a2,a2,a5
    80001268:	00167613          	andi	a2,a2,1
    8000126c:	0046d713          	srli	a4,a3,0x4
    80001270:	0017d793          	srli	a5,a5,0x1
    80001274:	00060c63          	beqz	a2,8000128c <matrix_test+0xccc>
    80001278:	ffffa637          	lui	a2,0xffffa
    8000127c:	00160613          	addi	a2,a2,1 # ffffffffffffa001 <_pmem_end+0xffffffff77ffa001>
    80001280:	00c7c7b3          	xor	a5,a5,a2
    80001284:	03079793          	slli	a5,a5,0x30
    80001288:	0307d793          	srli	a5,a5,0x30
    8000128c:	00e7c733          	xor	a4,a5,a4
    80001290:	00177713          	andi	a4,a4,1
    80001294:	0056d613          	srli	a2,a3,0x5
    80001298:	0017d793          	srli	a5,a5,0x1
    8000129c:	00070c63          	beqz	a4,800012b4 <matrix_test+0xcf4>
    800012a0:	ffffa737          	lui	a4,0xffffa
    800012a4:	00170713          	addi	a4,a4,1 # ffffffffffffa001 <_pmem_end+0xffffffff77ffa001>
    800012a8:	00e7c7b3          	xor	a5,a5,a4
    800012ac:	03079793          	slli	a5,a5,0x30
    800012b0:	0307d793          	srli	a5,a5,0x30
    800012b4:	00f64633          	xor	a2,a2,a5
    800012b8:	00167613          	andi	a2,a2,1
    800012bc:	0066d713          	srli	a4,a3,0x6
    800012c0:	0017d793          	srli	a5,a5,0x1
    800012c4:	00060c63          	beqz	a2,800012dc <matrix_test+0xd1c>
    800012c8:	ffffa637          	lui	a2,0xffffa
    800012cc:	00160613          	addi	a2,a2,1 # ffffffffffffa001 <_pmem_end+0xffffffff77ffa001>
    800012d0:	00c7c7b3          	xor	a5,a5,a2
    800012d4:	03079793          	slli	a5,a5,0x30
    800012d8:	0307d793          	srli	a5,a5,0x30
    800012dc:	00f74733          	xor	a4,a4,a5
    800012e0:	00177713          	andi	a4,a4,1
    800012e4:	0076d693          	srli	a3,a3,0x7
    800012e8:	0017d793          	srli	a5,a5,0x1
    800012ec:	00070c63          	beqz	a4,80001304 <matrix_test+0xd44>
    800012f0:	ffffa737          	lui	a4,0xffffa
    800012f4:	00170713          	addi	a4,a4,1 # ffffffffffffa001 <_pmem_end+0xffffffff77ffa001>
    800012f8:	00e7c7b3          	xor	a5,a5,a4
    800012fc:	03079793          	slli	a5,a5,0x30
    80001300:	0307d793          	srli	a5,a5,0x30
    80001304:	0017f713          	andi	a4,a5,1
    80001308:	0017d513          	srli	a0,a5,0x1
    8000130c:	00d70c63          	beq	a4,a3,80001324 <matrix_test+0xd64>
    80001310:	ffffa7b7          	lui	a5,0xffffa
    80001314:	00178793          	addi	a5,a5,1 # ffffffffffffa001 <_pmem_end+0xffffffff77ffa001>
    80001318:	00f547b3          	xor	a5,a0,a5
    8000131c:	03079513          	slli	a0,a5,0x30
    80001320:	03055513          	srli	a0,a0,0x30
    80001324:	00080613          	mv	a2,a6
    80001328:	00000e13          	li	t3,0
    8000132c:	00000893          	li	a7,0
    80001330:	02080c63          	beqz	a6,80001368 <matrix_test+0xda8>
    80001334:	000e0713          	mv	a4,t3
    80001338:	02071693          	slli	a3,a4,0x20
    8000133c:	01f6d793          	srli	a5,a3,0x1f
    80001340:	00f587b3          	add	a5,a1,a5
    80001344:	0007d683          	lhu	a3,0(a5)
    80001348:	0017071b          	addiw	a4,a4,1
    8000134c:	406686bb          	subw	a3,a3,t1
    80001350:	00d79023          	sh	a3,0(a5)
    80001354:	fec712e3          	bne	a4,a2,80001338 <matrix_test+0xd78>
    80001358:	0018889b          	addiw	a7,a7,1
    8000135c:	01c80e3b          	addw	t3,a6,t3
    80001360:	00c8063b          	addw	a2,a6,a2
    80001364:	fd1818e3          	bne	a6,a7,80001334 <matrix_test+0xd74>
    80001368:	02813403          	ld	s0,40(sp)
    8000136c:	0105151b          	slliw	a0,a0,0x10
    80001370:	02013483          	ld	s1,32(sp)
    80001374:	01813903          	ld	s2,24(sp)
    80001378:	01013983          	ld	s3,16(sp)
    8000137c:	00813a03          	ld	s4,8(sp)
    80001380:	4105551b          	sraiw	a0,a0,0x10
    80001384:	03010113          	addi	sp,sp,48
    80001388:	00008067          	ret
    8000138c:	0014871b          	addiw	a4,s1,1
    80001390:	0104043b          	addw	s0,s0,a6
    80001394:	00f80f3b          	addw	t5,a6,a5
    80001398:	02928263          	beq	t0,s1,800013bc <matrix_test+0xdfc>
    8000139c:	00070493          	mv	s1,a4
    800013a0:	999ff06f          	j	80000d38 <matrix_test+0x778>
    800013a4:	0014879b          	addiw	a5,s1,1
    800013a8:	0088043b          	addw	s0,a6,s0
    800013ac:	01e80f3b          	addw	t5,a6,t5
    800013b0:	0bf48663          	beq	s1,t6,8000145c <matrix_test+0xe9c>
    800013b4:	00078493          	mv	s1,a5
    800013b8:	c79ff06f          	j	80001030 <matrix_test+0xa70>
    800013bc:	000e091b          	sext.w	s2,t3
    800013c0:	00080413          	mv	s0,a6
    800013c4:	00000993          	li	s3,0
    800013c8:	00000713          	li	a4,0
    800013cc:	00000613          	li	a2,0
    800013d0:	00000f13          	li	t5,0
    800013d4:	00000a13          	li	s4,0
    800013d8:	00098693          	mv	a3,s3
    800013dc:	01c0006f          	j	800013f8 <matrix_test+0xe38>
    800013e0:	03079493          	slli	s1,a5,0x30
    800013e4:	0107971b          	slliw	a4,a5,0x10
    800013e8:	0016869b          	addiw	a3,a3,1
    800013ec:	0304d493          	srli	s1,s1,0x30
    800013f0:	4107571b          	sraiw	a4,a4,0x10
    800013f4:	04d40863          	beq	s0,a3,80001444 <matrix_test+0xe84>
    800013f8:	02069793          	slli	a5,a3,0x20
    800013fc:	01e7de93          	srli	t4,a5,0x1e
    80001400:	01d88eb3          	add	t4,a7,t4
    80001404:	00060793          	mv	a5,a2
    80001408:	000ea603          	lw	a2,0(t4)
    8000140c:	03071713          	slli	a4,a4,0x30
    80001410:	03075713          	srli	a4,a4,0x30
    80001414:	00c7a7b3          	slt	a5,a5,a2
    80001418:	01e60f3b          	addw	t5,a2,t5
    8000141c:	00a70e9b          	addiw	t4,a4,10
    80001420:	00e787bb          	addw	a5,a5,a4
    80001424:	fbe95ee3          	bge	s2,t5,800013e0 <matrix_test+0xe20>
    80001428:	030e9493          	slli	s1,t4,0x30
    8000142c:	010e971b          	slliw	a4,t4,0x10
    80001430:	0016869b          	addiw	a3,a3,1
    80001434:	0304d493          	srli	s1,s1,0x30
    80001438:	4107571b          	sraiw	a4,a4,0x10
    8000143c:	00000f13          	li	t5,0
    80001440:	fad41ce3          	bne	s0,a3,800013f8 <matrix_test+0xe38>
    80001444:	001a079b          	addiw	a5,s4,1
    80001448:	01f4043b          	addw	s0,s0,t6
    8000144c:	01f989bb          	addw	s3,s3,t6
    80001450:	954288e3          	beq	t0,s4,80000da0 <matrix_test+0x7e0>
    80001454:	00078a13          	mv	s4,a5
    80001458:	f81ff06f          	j	800013d8 <matrix_test+0xe18>
    8000145c:	000e0e1b          	sext.w	t3,t3
    80001460:	00080f13          	mv	t5,a6
    80001464:	00000493          	li	s1,0
    80001468:	00000713          	li	a4,0
    8000146c:	00000613          	li	a2,0
    80001470:	00000e93          	li	t4,0
    80001474:	00000913          	li	s2,0
    80001478:	00048693          	mv	a3,s1
    8000147c:	01c0006f          	j	80001498 <matrix_test+0xed8>
    80001480:	03079413          	slli	s0,a5,0x30
    80001484:	0107971b          	slliw	a4,a5,0x10
    80001488:	0016869b          	addiw	a3,a3,1
    8000148c:	03045413          	srli	s0,s0,0x30
    80001490:	4107571b          	sraiw	a4,a4,0x10
    80001494:	05e68863          	beq	a3,t5,800014e4 <matrix_test+0xf24>
    80001498:	02069793          	slli	a5,a3,0x20
    8000149c:	01e7d513          	srli	a0,a5,0x1e
    800014a0:	00a88533          	add	a0,a7,a0
    800014a4:	00060793          	mv	a5,a2
    800014a8:	00052603          	lw	a2,0(a0)
    800014ac:	03071713          	slli	a4,a4,0x30
    800014b0:	03075713          	srli	a4,a4,0x30
    800014b4:	00c7a7b3          	slt	a5,a5,a2
    800014b8:	01d60ebb          	addw	t4,a2,t4
    800014bc:	00a7051b          	addiw	a0,a4,10
    800014c0:	00e787bb          	addw	a5,a5,a4
    800014c4:	fbde5ee3          	bge	t3,t4,80001480 <matrix_test+0xec0>
    800014c8:	03051413          	slli	s0,a0,0x30
    800014cc:	0105171b          	slliw	a4,a0,0x10
    800014d0:	0016869b          	addiw	a3,a3,1
    800014d4:	03045413          	srli	s0,s0,0x30
    800014d8:	4107571b          	sraiw	a4,a4,0x10
    800014dc:	00000e93          	li	t4,0
    800014e0:	fbe69ce3          	bne	a3,t5,80001498 <matrix_test+0xed8>
    800014e4:	0019079b          	addiw	a5,s2,1
    800014e8:	00d38f3b          	addw	t5,t2,a3
    800014ec:	009384bb          	addw	s1,t2,s1
    800014f0:	bb2f8ee3          	beq	t6,s2,800010ac <matrix_test+0xaec>
    800014f4:	00078913          	mv	s2,a5
    800014f8:	f81ff06f          	j	80001478 <matrix_test+0xeb8>
    800014fc:	00000793          	li	a5,0
    80001500:	00000413          	li	s0,0
    80001504:	00000713          	li	a4,0
    80001508:	a80ff06f          	j	80000788 <matrix_test+0x1c8>
    8000150c:	00000393          	li	t2,0
    80001510:	00000713          	li	a4,0
    80001514:	da0ff06f          	j	80000ab4 <matrix_test+0x4f4>

0000000080001518 <core_bench_matrix>:
    80001518:	ff010113          	addi	sp,sp,-16
    8000151c:	01053683          	ld	a3,16(a0)
    80001520:	00058713          	mv	a4,a1
    80001524:	00813023          	sd	s0,0(sp)
    80001528:	01853583          	ld	a1,24(a0)
    8000152c:	00060413          	mv	s0,a2
    80001530:	00853603          	ld	a2,8(a0)
    80001534:	00052503          	lw	a0,0(a0)
    80001538:	00113423          	sd	ra,8(sp)
    8000153c:	884ff0ef          	jal	ra,800005c0 <matrix_test>
    80001540:	00a446b3          	xor	a3,s0,a0
    80001544:	0ff57713          	zext.b	a4,a0
    80001548:	03051793          	slli	a5,a0,0x30
    8000154c:	0016f693          	andi	a3,a3,1
    80001550:	0307d793          	srli	a5,a5,0x30
    80001554:	00175613          	srli	a2,a4,0x1
    80001558:	00145513          	srli	a0,s0,0x1
    8000155c:	00068c63          	beqz	a3,80001574 <core_bench_matrix+0x5c>
    80001560:	ffffa6b7          	lui	a3,0xffffa
    80001564:	00168693          	addi	a3,a3,1 # ffffffffffffa001 <_pmem_end+0xffffffff77ffa001>
    80001568:	00d54533          	xor	a0,a0,a3
    8000156c:	03051513          	slli	a0,a0,0x30
    80001570:	03055513          	srli	a0,a0,0x30
    80001574:	00c54633          	xor	a2,a0,a2
    80001578:	00167613          	andi	a2,a2,1
    8000157c:	00275693          	srli	a3,a4,0x2
    80001580:	00155513          	srli	a0,a0,0x1
    80001584:	00060c63          	beqz	a2,8000159c <core_bench_matrix+0x84>
    80001588:	ffffa637          	lui	a2,0xffffa
    8000158c:	00160613          	addi	a2,a2,1 # ffffffffffffa001 <_pmem_end+0xffffffff77ffa001>
    80001590:	00c54533          	xor	a0,a0,a2
    80001594:	03051513          	slli	a0,a0,0x30
    80001598:	03055513          	srli	a0,a0,0x30
    8000159c:	00d546b3          	xor	a3,a0,a3
    800015a0:	0016f693          	andi	a3,a3,1
    800015a4:	00375613          	srli	a2,a4,0x3
    800015a8:	00155513          	srli	a0,a0,0x1
    800015ac:	00068c63          	beqz	a3,800015c4 <core_bench_matrix+0xac>
    800015b0:	ffffa6b7          	lui	a3,0xffffa
    800015b4:	00168693          	addi	a3,a3,1 # ffffffffffffa001 <_pmem_end+0xffffffff77ffa001>
    800015b8:	00d54533          	xor	a0,a0,a3
    800015bc:	03051513          	slli	a0,a0,0x30
    800015c0:	03055513          	srli	a0,a0,0x30
    800015c4:	00c54633          	xor	a2,a0,a2
    800015c8:	00167613          	andi	a2,a2,1
    800015cc:	00475693          	srli	a3,a4,0x4
    800015d0:	00155513          	srli	a0,a0,0x1
    800015d4:	00060c63          	beqz	a2,800015ec <core_bench_matrix+0xd4>
    800015d8:	ffffa637          	lui	a2,0xffffa
    800015dc:	00160613          	addi	a2,a2,1 # ffffffffffffa001 <_pmem_end+0xffffffff77ffa001>
    800015e0:	00c54533          	xor	a0,a0,a2
    800015e4:	03051513          	slli	a0,a0,0x30
    800015e8:	03055513          	srli	a0,a0,0x30
    800015ec:	00d546b3          	xor	a3,a0,a3
    800015f0:	0016f693          	andi	a3,a3,1
    800015f4:	00575613          	srli	a2,a4,0x5
    800015f8:	00155513          	srli	a0,a0,0x1
    800015fc:	00068c63          	beqz	a3,80001614 <core_bench_matrix+0xfc>
    80001600:	ffffa6b7          	lui	a3,0xffffa
    80001604:	00168693          	addi	a3,a3,1 # ffffffffffffa001 <_pmem_end+0xffffffff77ffa001>
    80001608:	00d54533          	xor	a0,a0,a3
    8000160c:	03051513          	slli	a0,a0,0x30
    80001610:	03055513          	srli	a0,a0,0x30
    80001614:	00c54633          	xor	a2,a0,a2
    80001618:	00167613          	andi	a2,a2,1
    8000161c:	00675693          	srli	a3,a4,0x6
    80001620:	00155513          	srli	a0,a0,0x1
    80001624:	00060c63          	beqz	a2,8000163c <core_bench_matrix+0x124>
    80001628:	ffffa637          	lui	a2,0xffffa
    8000162c:	00160613          	addi	a2,a2,1 # ffffffffffffa001 <_pmem_end+0xffffffff77ffa001>
    80001630:	00c54533          	xor	a0,a0,a2
    80001634:	03051513          	slli	a0,a0,0x30
    80001638:	03055513          	srli	a0,a0,0x30
    8000163c:	00d546b3          	xor	a3,a0,a3
    80001640:	0016f693          	andi	a3,a3,1
    80001644:	00775713          	srli	a4,a4,0x7
    80001648:	00155513          	srli	a0,a0,0x1
    8000164c:	00068c63          	beqz	a3,80001664 <core_bench_matrix+0x14c>
    80001650:	ffffa6b7          	lui	a3,0xffffa
    80001654:	00168693          	addi	a3,a3,1 # ffffffffffffa001 <_pmem_end+0xffffffff77ffa001>
    80001658:	00d54533          	xor	a0,a0,a3
    8000165c:	03051513          	slli	a0,a0,0x30
    80001660:	03055513          	srli	a0,a0,0x30
    80001664:	00157693          	andi	a3,a0,1
    80001668:	00155513          	srli	a0,a0,0x1
    8000166c:	14e69c63          	bne	a3,a4,800017c4 <core_bench_matrix+0x2ac>
    80001670:	0087d613          	srli	a2,a5,0x8
    80001674:	00a64633          	xor	a2,a2,a0
    80001678:	00167613          	andi	a2,a2,1
    8000167c:	0087d693          	srli	a3,a5,0x8
    80001680:	0097d713          	srli	a4,a5,0x9
    80001684:	00155513          	srli	a0,a0,0x1
    80001688:	00060c63          	beqz	a2,800016a0 <core_bench_matrix+0x188>
    8000168c:	ffffa7b7          	lui	a5,0xffffa
    80001690:	00178793          	addi	a5,a5,1 # ffffffffffffa001 <_pmem_end+0xffffffff77ffa001>
    80001694:	00f54533          	xor	a0,a0,a5
    80001698:	03051513          	slli	a0,a0,0x30
    8000169c:	03055513          	srli	a0,a0,0x30
    800016a0:	00a74733          	xor	a4,a4,a0
    800016a4:	00177713          	andi	a4,a4,1
    800016a8:	0026d793          	srli	a5,a3,0x2
    800016ac:	00155513          	srli	a0,a0,0x1
    800016b0:	00070c63          	beqz	a4,800016c8 <core_bench_matrix+0x1b0>
    800016b4:	ffffa737          	lui	a4,0xffffa
    800016b8:	00170713          	addi	a4,a4,1 # ffffffffffffa001 <_pmem_end+0xffffffff77ffa001>
    800016bc:	00e54533          	xor	a0,a0,a4
    800016c0:	03051513          	slli	a0,a0,0x30
    800016c4:	03055513          	srli	a0,a0,0x30
    800016c8:	00f54733          	xor	a4,a0,a5
    800016cc:	00177713          	andi	a4,a4,1
    800016d0:	0036d793          	srli	a5,a3,0x3
    800016d4:	00155513          	srli	a0,a0,0x1
    800016d8:	00070c63          	beqz	a4,800016f0 <core_bench_matrix+0x1d8>
    800016dc:	ffffa737          	lui	a4,0xffffa
    800016e0:	00170713          	addi	a4,a4,1 # ffffffffffffa001 <_pmem_end+0xffffffff77ffa001>
    800016e4:	00e54533          	xor	a0,a0,a4
    800016e8:	03051513          	slli	a0,a0,0x30
    800016ec:	03055513          	srli	a0,a0,0x30
    800016f0:	00f547b3          	xor	a5,a0,a5
    800016f4:	0017f793          	andi	a5,a5,1
    800016f8:	0046d713          	srli	a4,a3,0x4
    800016fc:	00155513          	srli	a0,a0,0x1
    80001700:	00078c63          	beqz	a5,80001718 <core_bench_matrix+0x200>
    80001704:	ffffa7b7          	lui	a5,0xffffa
    80001708:	00178793          	addi	a5,a5,1 # ffffffffffffa001 <_pmem_end+0xffffffff77ffa001>
    8000170c:	00f54533          	xor	a0,a0,a5
    80001710:	03051513          	slli	a0,a0,0x30
    80001714:	03055513          	srli	a0,a0,0x30
    80001718:	00e54733          	xor	a4,a0,a4
    8000171c:	00177713          	andi	a4,a4,1
    80001720:	0056d793          	srli	a5,a3,0x5
    80001724:	00155513          	srli	a0,a0,0x1
    80001728:	00070c63          	beqz	a4,80001740 <core_bench_matrix+0x228>
    8000172c:	ffffa737          	lui	a4,0xffffa
    80001730:	00170713          	addi	a4,a4,1 # ffffffffffffa001 <_pmem_end+0xffffffff77ffa001>
    80001734:	00e54533          	xor	a0,a0,a4
    80001738:	03051513          	slli	a0,a0,0x30
    8000173c:	03055513          	srli	a0,a0,0x30
    80001740:	00f547b3          	xor	a5,a0,a5
    80001744:	0017f793          	andi	a5,a5,1
    80001748:	0066d713          	srli	a4,a3,0x6
    8000174c:	00155513          	srli	a0,a0,0x1
    80001750:	00078c63          	beqz	a5,80001768 <core_bench_matrix+0x250>
    80001754:	ffffa7b7          	lui	a5,0xffffa
    80001758:	00178793          	addi	a5,a5,1 # ffffffffffffa001 <_pmem_end+0xffffffff77ffa001>
    8000175c:	00f54533          	xor	a0,a0,a5
    80001760:	03051513          	slli	a0,a0,0x30
    80001764:	03055513          	srli	a0,a0,0x30
    80001768:	00e54733          	xor	a4,a0,a4
    8000176c:	00177713          	andi	a4,a4,1
    80001770:	0076d793          	srli	a5,a3,0x7
    80001774:	00155513          	srli	a0,a0,0x1
    80001778:	00070c63          	beqz	a4,80001790 <core_bench_matrix+0x278>
    8000177c:	ffffa737          	lui	a4,0xffffa
    80001780:	00170713          	addi	a4,a4,1 # ffffffffffffa001 <_pmem_end+0xffffffff77ffa001>
    80001784:	00e54533          	xor	a0,a0,a4
    80001788:	03051513          	slli	a0,a0,0x30
    8000178c:	03055513          	srli	a0,a0,0x30
    80001790:	00a7c7b3          	xor	a5,a5,a0
    80001794:	0017f793          	andi	a5,a5,1
    80001798:	00155513          	srli	a0,a0,0x1
    8000179c:	00078c63          	beqz	a5,800017b4 <core_bench_matrix+0x29c>
    800017a0:	ffffa7b7          	lui	a5,0xffffa
    800017a4:	00178793          	addi	a5,a5,1 # ffffffffffffa001 <_pmem_end+0xffffffff77ffa001>
    800017a8:	00f54533          	xor	a0,a0,a5
    800017ac:	03051513          	slli	a0,a0,0x30
    800017b0:	03055513          	srli	a0,a0,0x30
    800017b4:	00813083          	ld	ra,8(sp)
    800017b8:	00013403          	ld	s0,0(sp)
    800017bc:	01010113          	addi	sp,sp,16
    800017c0:	00008067          	ret
    800017c4:	ffffa737          	lui	a4,0xffffa
    800017c8:	00170713          	addi	a4,a4,1 # ffffffffffffa001 <_pmem_end+0xffffffff77ffa001>
    800017cc:	00e54533          	xor	a0,a0,a4
    800017d0:	03051513          	slli	a0,a0,0x30
    800017d4:	03055513          	srli	a0,a0,0x30
    800017d8:	e99ff06f          	j	80001670 <core_bench_matrix+0x158>

00000000800017dc <core_init_matrix>:
    800017dc:	fd010113          	addi	sp,sp,-48
    800017e0:	02913023          	sd	s1,32(sp)
    800017e4:	02813423          	sd	s0,40(sp)
    800017e8:	01213c23          	sd	s2,24(sp)
    800017ec:	01313823          	sd	s3,16(sp)
    800017f0:	01413423          	sd	s4,8(sp)
    800017f4:	00050813          	mv	a6,a0
    800017f8:	00068493          	mv	s1,a3
    800017fc:	00061463          	bnez	a2,80001804 <core_init_matrix+0x28>
    80001800:	00100613          	li	a2,1
    80001804:	fff58593          	addi	a1,a1,-1
    80001808:	ffc5fe13          	andi	t3,a1,-4
    8000180c:	004e0f13          	addi	t5,t3,4 # fffffffffffff004 <_pmem_end+0xffffffff77fff004>
    80001810:	00000693          	li	a3,0
    80001814:	10080a63          	beqz	a6,80001928 <core_init_matrix+0x14c>
    80001818:	0016871b          	addiw	a4,a3,1
    8000181c:	02e707bb          	mulw	a5,a4,a4
    80001820:	0006851b          	sext.w	a0,a3
    80001824:	0007069b          	sext.w	a3,a4
    80001828:	0037979b          	slliw	a5,a5,0x3
    8000182c:	ff07e6e3          	bltu	a5,a6,80001818 <core_init_matrix+0x3c>
    80001830:	02a5043b          	mulw	s0,a0,a0
    80001834:	0005099b          	sext.w	s3,a0
    80001838:	02041793          	slli	a5,s0,0x20
    8000183c:	01f7d413          	srli	s0,a5,0x1f
    80001840:	008f0e33          	add	t3,t5,s0
    80001844:	0e050c63          	beqz	a0,8000193c <core_init_matrix+0x160>
    80001848:	00010fb7          	lui	t6,0x10
    8000184c:	00000693          	li	a3,0
    80001850:	00000393          	li	t2,0
    80001854:	00100293          	li	t0,1
    80001858:	ffff8f93          	addi	t6,t6,-1 # ffff <_start-0x7fff0001>
    8000185c:	fff5091b          	addiw	s2,a0,-1
    80001860:	00028813          	mv	a6,t0
    80001864:	00000313          	li	t1,0
    80001868:	40568ebb          	subw	t4,a3,t0
    8000186c:	030607bb          	mulw	a5,a2,a6
    80001870:	010e85bb          	addw	a1,t4,a6
    80001874:	02059613          	slli	a2,a1,0x20
    80001878:	01f65593          	srli	a1,a2,0x1f
    8000187c:	03081713          	slli	a4,a6,0x30
    80001880:	03075713          	srli	a4,a4,0x30
    80001884:	00be0a33          	add	s4,t3,a1
    80001888:	00bf05b3          	add	a1,t5,a1
    8000188c:	0013031b          	addiw	t1,t1,1
    80001890:	0018081b          	addiw	a6,a6,1
    80001894:	41f7d61b          	sraiw	a2,a5,0x1f
    80001898:	0106589b          	srliw	a7,a2,0x10
    8000189c:	0117863b          	addw	a2,a5,a7
    800018a0:	01f67633          	and	a2,a2,t6
    800018a4:	4116063b          	subw	a2,a2,a7
    800018a8:	00070793          	mv	a5,a4
    800018ac:	00e6073b          	addw	a4,a2,a4
    800018b0:	03071713          	slli	a4,a4,0x30
    800018b4:	03075713          	srli	a4,a4,0x30
    800018b8:	00f707bb          	addw	a5,a4,a5
    800018bc:	00ea1023          	sh	a4,0(s4)
    800018c0:	0ff7f793          	zext.b	a5,a5
    800018c4:	00f59023          	sh	a5,0(a1)
    800018c8:	faa362e3          	bltu	t1,a0,8000186c <core_init_matrix+0x90>
    800018cc:	0012829b          	addiw	t0,t0,1
    800018d0:	00000793          	li	a5,0
    800018d4:	00050463          	beqz	a0,800018dc <core_init_matrix+0x100>
    800018d8:	00090793          	mv	a5,s2
    800018dc:	0013839b          	addiw	t2,t2,1
    800018e0:	005782bb          	addw	t0,a5,t0
    800018e4:	00d506bb          	addw	a3,a0,a3
    800018e8:	f6a3ece3          	bltu	t2,a0,80001860 <core_init_matrix+0x84>
    800018ec:	008e07b3          	add	a5,t3,s0
    800018f0:	fff78793          	addi	a5,a5,-1
    800018f4:	02813403          	ld	s0,40(sp)
    800018f8:	ffc7f793          	andi	a5,a5,-4
    800018fc:	00478793          	addi	a5,a5,4
    80001900:	0134a023          	sw	s3,0(s1)
    80001904:	01e4b423          	sd	t5,8(s1)
    80001908:	01c4b823          	sd	t3,16(s1)
    8000190c:	00f4bc23          	sd	a5,24(s1)
    80001910:	01813903          	ld	s2,24(sp)
    80001914:	02013483          	ld	s1,32(sp)
    80001918:	01013983          	ld	s3,16(sp)
    8000191c:	00813a03          	ld	s4,8(sp)
    80001920:	03010113          	addi	sp,sp,48
    80001924:	00008067          	ret
    80001928:	006e0e13          	addi	t3,t3,6
    8000192c:	fff00993          	li	s3,-1
    80001930:	fff00513          	li	a0,-1
    80001934:	00200413          	li	s0,2
    80001938:	f11ff06f          	j	80001848 <core_init_matrix+0x6c>
    8000193c:	00000993          	li	s3,0
    80001940:	fadff06f          	j	800018ec <core_init_matrix+0x110>

0000000080001944 <matrix_sum>:
    80001944:	00050e13          	mv	t3,a0
    80001948:	08050863          	beqz	a0,800019d8 <matrix_sum+0x94>
    8000194c:	00050893          	mv	a7,a0
    80001950:	0006031b          	sext.w	t1,a2
    80001954:	00000f13          	li	t5,0
    80001958:	00000e93          	li	t4,0
    8000195c:	00000513          	li	a0,0
    80001960:	00000693          	li	a3,0
    80001964:	00000813          	li	a6,0
    80001968:	000f0713          	mv	a4,t5
    8000196c:	0140006f          	j	80001980 <matrix_sum+0x3c>
    80001970:	0107951b          	slliw	a0,a5,0x10
    80001974:	0017071b          	addiw	a4,a4,1
    80001978:	4105551b          	sraiw	a0,a0,0x10
    8000197c:	04e88463          	beq	a7,a4,800019c4 <matrix_sum+0x80>
    80001980:	02071793          	slli	a5,a4,0x20
    80001984:	01e7d613          	srli	a2,a5,0x1e
    80001988:	00c58633          	add	a2,a1,a2
    8000198c:	00068793          	mv	a5,a3
    80001990:	00062683          	lw	a3,0(a2)
    80001994:	03051513          	slli	a0,a0,0x30
    80001998:	03055513          	srli	a0,a0,0x30
    8000199c:	00d7a7b3          	slt	a5,a5,a3
    800019a0:	00d8083b          	addw	a6,a6,a3
    800019a4:	00a5061b          	addiw	a2,a0,10
    800019a8:	00a787bb          	addw	a5,a5,a0
    800019ac:	fd0352e3          	bge	t1,a6,80001970 <matrix_sum+0x2c>
    800019b0:	0106151b          	slliw	a0,a2,0x10
    800019b4:	0017071b          	addiw	a4,a4,1
    800019b8:	4105551b          	sraiw	a0,a0,0x10
    800019bc:	00000813          	li	a6,0
    800019c0:	fce890e3          	bne	a7,a4,80001980 <matrix_sum+0x3c>
    800019c4:	001e8e9b          	addiw	t4,t4,1
    800019c8:	01c888bb          	addw	a7,a7,t3
    800019cc:	01ee0f3b          	addw	t5,t3,t5
    800019d0:	f9de1ce3          	bne	t3,t4,80001968 <matrix_sum+0x24>
    800019d4:	00008067          	ret
    800019d8:	00000513          	li	a0,0
    800019dc:	00008067          	ret

00000000800019e0 <matrix_mul_const>:
    800019e0:	04050a63          	beqz	a0,80001a34 <matrix_mul_const+0x54>
    800019e4:	0006889b          	sext.w	a7,a3
    800019e8:	00050813          	mv	a6,a0
    800019ec:	00000e13          	li	t3,0
    800019f0:	00000313          	li	t1,0
    800019f4:	000e0713          	mv	a4,t3
    800019f8:	02071793          	slli	a5,a4,0x20
    800019fc:	0207d793          	srli	a5,a5,0x20
    80001a00:	00179693          	slli	a3,a5,0x1
    80001a04:	00d606b3          	add	a3,a2,a3
    80001a08:	00069683          	lh	a3,0(a3)
    80001a0c:	00279793          	slli	a5,a5,0x2
    80001a10:	00f587b3          	add	a5,a1,a5
    80001a14:	031686bb          	mulw	a3,a3,a7
    80001a18:	0017071b          	addiw	a4,a4,1
    80001a1c:	00d7a023          	sw	a3,0(a5)
    80001a20:	fce81ce3          	bne	a6,a4,800019f8 <matrix_mul_const+0x18>
    80001a24:	0013031b          	addiw	t1,t1,1
    80001a28:	01c50e3b          	addw	t3,a0,t3
    80001a2c:	0105083b          	addw	a6,a0,a6
    80001a30:	fc6512e3          	bne	a0,t1,800019f4 <matrix_mul_const+0x14>
    80001a34:	00008067          	ret

0000000080001a38 <matrix_add_const>:
    80001a38:	04050663          	beqz	a0,80001a84 <matrix_add_const+0x4c>
    80001a3c:	03061813          	slli	a6,a2,0x30
    80001a40:	03085813          	srli	a6,a6,0x30
    80001a44:	00050613          	mv	a2,a0
    80001a48:	00000313          	li	t1,0
    80001a4c:	00000893          	li	a7,0
    80001a50:	00030713          	mv	a4,t1
    80001a54:	02071693          	slli	a3,a4,0x20
    80001a58:	01f6d793          	srli	a5,a3,0x1f
    80001a5c:	00f587b3          	add	a5,a1,a5
    80001a60:	0007d683          	lhu	a3,0(a5)
    80001a64:	0017071b          	addiw	a4,a4,1
    80001a68:	010686bb          	addw	a3,a3,a6
    80001a6c:	00d79023          	sh	a3,0(a5)
    80001a70:	fee612e3          	bne	a2,a4,80001a54 <matrix_add_const+0x1c>
    80001a74:	0018889b          	addiw	a7,a7,1
    80001a78:	0065033b          	addw	t1,a0,t1
    80001a7c:	00c5063b          	addw	a2,a0,a2
    80001a80:	fd1518e3          	bne	a0,a7,80001a50 <matrix_add_const+0x18>
    80001a84:	00008067          	ret

0000000080001a88 <matrix_mul_vect>:
    80001a88:	06050663          	beqz	a0,80001af4 <matrix_mul_vect+0x6c>
    80001a8c:	fff50f9b          	addiw	t6,a0,-1
    80001a90:	020f9793          	slli	a5,t6,0x20
    80001a94:	01e7df93          	srli	t6,a5,0x1e
    80001a98:	00458793          	addi	a5,a1,4
    80001a9c:	00058e93          	mv	t4,a1
    80001aa0:	00ff8fb3          	add	t6,t6,a5
    80001aa4:	00050e13          	mv	t3,a0
    80001aa8:	00000f13          	li	t5,0
    80001aac:	00068813          	mv	a6,a3
    80001ab0:	000f0793          	mv	a5,t5
    80001ab4:	00000893          	li	a7,0
    80001ab8:	02079713          	slli	a4,a5,0x20
    80001abc:	01f75593          	srli	a1,a4,0x1f
    80001ac0:	00b605b3          	add	a1,a2,a1
    80001ac4:	00081303          	lh	t1,0(a6)
    80001ac8:	00059703          	lh	a4,0(a1)
    80001acc:	0017879b          	addiw	a5,a5,1
    80001ad0:	00280813          	addi	a6,a6,2
    80001ad4:	0267073b          	mulw	a4,a4,t1
    80001ad8:	011708bb          	addw	a7,a4,a7
    80001adc:	fcfe1ee3          	bne	t3,a5,80001ab8 <matrix_mul_vect+0x30>
    80001ae0:	011ea023          	sw	a7,0(t4)
    80001ae4:	004e8e93          	addi	t4,t4,4
    80001ae8:	01e50f3b          	addw	t5,a0,t5
    80001aec:	01c50e3b          	addw	t3,a0,t3
    80001af0:	fbdf9ee3          	bne	t6,t4,80001aac <matrix_mul_vect+0x24>
    80001af4:	00008067          	ret

0000000080001af8 <matrix_mul_matrix>:
    80001af8:	00058f93          	mv	t6,a1
    80001afc:	00060313          	mv	t1,a2
    80001b00:	00068893          	mv	a7,a3
    80001b04:	00050813          	mv	a6,a0
    80001b08:	00000f13          	li	t5,0
    80001b0c:	00000293          	li	t0,0
    80001b10:	08050463          	beqz	a0,80001b98 <matrix_mul_matrix+0xa0>
    80001b14:	00000e93          	li	t4,0
    80001b18:	01ee8e3b          	addw	t3,t4,t5
    80001b1c:	020e1793          	slli	a5,t3,0x20
    80001b20:	01e7de13          	srli	t3,a5,0x1e
    80001b24:	01cf8e33          	add	t3,t6,t3
    80001b28:	000e8613          	mv	a2,t4
    80001b2c:	000f0793          	mv	a5,t5
    80001b30:	00000593          	li	a1,0
    80001b34:	02079693          	slli	a3,a5,0x20
    80001b38:	02061393          	slli	t2,a2,0x20
    80001b3c:	01f6d713          	srli	a4,a3,0x1f
    80001b40:	01f3d693          	srli	a3,t2,0x1f
    80001b44:	00e30733          	add	a4,t1,a4
    80001b48:	00d886b3          	add	a3,a7,a3
    80001b4c:	00071703          	lh	a4,0(a4)
    80001b50:	00069683          	lh	a3,0(a3)
    80001b54:	0017879b          	addiw	a5,a5,1
    80001b58:	00c5063b          	addw	a2,a0,a2
    80001b5c:	02d7073b          	mulw	a4,a4,a3
    80001b60:	00b705bb          	addw	a1,a4,a1
    80001b64:	fcf818e3          	bne	a6,a5,80001b34 <matrix_mul_matrix+0x3c>
    80001b68:	00be2023          	sw	a1,0(t3)
    80001b6c:	001e879b          	addiw	a5,t4,1
    80001b70:	00f50663          	beq	a0,a5,80001b7c <matrix_mul_matrix+0x84>
    80001b74:	00078e93          	mv	t4,a5
    80001b78:	fa1ff06f          	j	80001b18 <matrix_mul_matrix+0x20>
    80001b7c:	0012879b          	addiw	a5,t0,1
    80001b80:	01e50f3b          	addw	t5,a0,t5
    80001b84:	0105083b          	addw	a6,a0,a6
    80001b88:	01d28663          	beq	t0,t4,80001b94 <matrix_mul_matrix+0x9c>
    80001b8c:	00078293          	mv	t0,a5
    80001b90:	f85ff06f          	j	80001b14 <matrix_mul_matrix+0x1c>
    80001b94:	00008067          	ret
    80001b98:	00008067          	ret

0000000080001b9c <matrix_mul_matrix_bitextract>:
    80001b9c:	00058f93          	mv	t6,a1
    80001ba0:	00060313          	mv	t1,a2
    80001ba4:	00068893          	mv	a7,a3
    80001ba8:	00050813          	mv	a6,a0
    80001bac:	00000f13          	li	t5,0
    80001bb0:	00000293          	li	t0,0
    80001bb4:	08050e63          	beqz	a0,80001c50 <matrix_mul_matrix_bitextract+0xb4>
    80001bb8:	00000e93          	li	t4,0
    80001bbc:	01ee8e3b          	addw	t3,t4,t5
    80001bc0:	020e1793          	slli	a5,t3,0x20
    80001bc4:	01e7de13          	srli	t3,a5,0x1e
    80001bc8:	01cf8e33          	add	t3,t6,t3
    80001bcc:	000e8613          	mv	a2,t4
    80001bd0:	000f0693          	mv	a3,t5
    80001bd4:	00000593          	li	a1,0
    80001bd8:	02069713          	slli	a4,a3,0x20
    80001bdc:	02061393          	slli	t2,a2,0x20
    80001be0:	01f75793          	srli	a5,a4,0x1f
    80001be4:	01f3d713          	srli	a4,t2,0x1f
    80001be8:	00f307b3          	add	a5,t1,a5
    80001bec:	00e88733          	add	a4,a7,a4
    80001bf0:	00071703          	lh	a4,0(a4)
    80001bf4:	00079783          	lh	a5,0(a5)
    80001bf8:	0016869b          	addiw	a3,a3,1
    80001bfc:	00c5063b          	addw	a2,a0,a2
    80001c00:	02e787bb          	mulw	a5,a5,a4
    80001c04:	4027d71b          	sraiw	a4,a5,0x2
    80001c08:	4057d79b          	sraiw	a5,a5,0x5
    80001c0c:	00f77713          	andi	a4,a4,15
    80001c10:	07f7f793          	andi	a5,a5,127
    80001c14:	02f707bb          	mulw	a5,a4,a5
    80001c18:	00b785bb          	addw	a1,a5,a1
    80001c1c:	fad81ee3          	bne	a6,a3,80001bd8 <matrix_mul_matrix_bitextract+0x3c>
    80001c20:	00be2023          	sw	a1,0(t3)
    80001c24:	001e879b          	addiw	a5,t4,1
    80001c28:	00f50663          	beq	a0,a5,80001c34 <matrix_mul_matrix_bitextract+0x98>
    80001c2c:	00078e93          	mv	t4,a5
    80001c30:	f8dff06f          	j	80001bbc <matrix_mul_matrix_bitextract+0x20>
    80001c34:	0012879b          	addiw	a5,t0,1
    80001c38:	01e50f3b          	addw	t5,a0,t5
    80001c3c:	0105083b          	addw	a6,a0,a6
    80001c40:	01d28663          	beq	t0,t4,80001c4c <matrix_mul_matrix_bitextract+0xb0>
    80001c44:	00078293          	mv	t0,a5
    80001c48:	f71ff06f          	j	80001bb8 <matrix_mul_matrix_bitextract+0x1c>
    80001c4c:	00008067          	ret
    80001c50:	00008067          	ret

0000000080001c54 <core_init_state>:
    80001c54:	ff010113          	addi	sp,sp,-16
    80001c58:	fff5089b          	addiw	a7,a0,-1
    80001c5c:	00813423          	sd	s0,8(sp)
    80001c60:	00913023          	sd	s1,0(sp)
    80001c64:	00100793          	li	a5,1
    80001c68:	00088f13          	mv	t5,a7
    80001c6c:	4117f863          	bgeu	a5,a7,8000207c <core_init_state+0x428>
    80001c70:	0015859b          	addiw	a1,a1,1
    80001c74:	03059693          	slli	a3,a1,0x30
    80001c78:	0306d693          	srli	a3,a3,0x30
    80001c7c:	00000793          	li	a5,0
    80001c80:	00006e97          	auipc	t4,0x6
    80001c84:	4a0e8e93          	addi	t4,t4,1184 # 80008120 <intpat>
    80001c88:	00700e13          	li	t3,7
    80001c8c:	00800293          	li	t0,8
    80001c90:	00400813          	li	a6,4
    80001c94:	00100313          	li	t1,1
    80001c98:	02c00f93          	li	t6,44
    80001c9c:	0b00006f          	j	80001d4c <core_init_state+0xf8>
    80001ca0:	3a786e63          	bltu	a6,t2,8000205c <core_init_state+0x408>
    80001ca4:	ffd3859b          	addiw	a1,t2,-3
    80001ca8:	03059593          	slli	a1,a1,0x30
    80001cac:	00371713          	slli	a4,a4,0x3
    80001cb0:	0305d593          	srli	a1,a1,0x30
    80001cb4:	00ee8733          	add	a4,t4,a4
    80001cb8:	38b36a63          	bltu	t1,a1,8000204c <core_init_state+0x3f8>
    80001cbc:	02073583          	ld	a1,32(a4)
    80001cc0:	00900393          	li	t2,9
    80001cc4:	00800413          	li	s0,8
    80001cc8:	007783bb          	addw	t2,a5,t2
    80001ccc:	0b13f663          	bgeu	t2,a7,80001d78 <core_init_state+0x124>
    80001cd0:	0005c483          	lbu	s1,0(a1)
    80001cd4:	02079713          	slli	a4,a5,0x20
    80001cd8:	02075713          	srli	a4,a4,0x20
    80001cdc:	00e60733          	add	a4,a2,a4
    80001ce0:	00970023          	sb	s1,0(a4)
    80001ce4:	0017879b          	addiw	a5,a5,1
    80001ce8:	0015c483          	lbu	s1,1(a1)
    80001cec:	02079793          	slli	a5,a5,0x20
    80001cf0:	0207d793          	srli	a5,a5,0x20
    80001cf4:	00f607b3          	add	a5,a2,a5
    80001cf8:	00978023          	sb	s1,0(a5)
    80001cfc:	0025c783          	lbu	a5,2(a1)
    80001d00:	00f70123          	sb	a5,2(a4)
    80001d04:	0035c783          	lbu	a5,3(a1)
    80001d08:	00f701a3          	sb	a5,3(a4)
    80001d0c:	03040463          	beq	s0,a6,80001d34 <core_init_state+0xe0>
    80001d10:	0045c783          	lbu	a5,4(a1)
    80001d14:	00f70223          	sb	a5,4(a4)
    80001d18:	0055c783          	lbu	a5,5(a1)
    80001d1c:	00f702a3          	sb	a5,5(a4)
    80001d20:	0065c783          	lbu	a5,6(a1)
    80001d24:	00f70323          	sb	a5,6(a4)
    80001d28:	00541663          	bne	s0,t0,80001d34 <core_init_state+0xe0>
    80001d2c:	0075c783          	lbu	a5,7(a1)
    80001d30:	00f703a3          	sb	a5,7(a4)
    80001d34:	0016869b          	addiw	a3,a3,1
    80001d38:	00870733          	add	a4,a4,s0
    80001d3c:	03069693          	slli	a3,a3,0x30
    80001d40:	01f70023          	sb	t6,0(a4)
    80001d44:	0306d693          	srli	a3,a3,0x30
    80001d48:	00038793          	mv	a5,t2
    80001d4c:	0036d713          	srli	a4,a3,0x3
    80001d50:	0076f393          	andi	t2,a3,7
    80001d54:	00377713          	andi	a4,a4,3
    80001d58:	f5c394e3          	bne	t2,t3,80001ca0 <core_init_state+0x4c>
    80001d5c:	00371713          	slli	a4,a4,0x3
    80001d60:	00900393          	li	t2,9
    80001d64:	00ee8733          	add	a4,t4,a4
    80001d68:	007783bb          	addw	t2,a5,t2
    80001d6c:	06073583          	ld	a1,96(a4)
    80001d70:	00800413          	li	s0,8
    80001d74:	f513eee3          	bltu	t2,a7,80001cd0 <core_init_state+0x7c>
    80001d78:	2ca7f263          	bgeu	a5,a0,8000203c <core_init_state+0x3e8>
    80001d7c:	02079593          	slli	a1,a5,0x20
    80001d80:	0205d593          	srli	a1,a1,0x20
    80001d84:	00b608b3          	add	a7,a2,a1
    80001d88:	41100733          	neg	a4,a7
    80001d8c:	00777713          	andi	a4,a4,7
    80001d90:	00770813          	addi	a6,a4,7
    80001d94:	00b00313          	li	t1,11
    80001d98:	40f506bb          	subw	a3,a0,a5
    80001d9c:	2c686c63          	bltu	a6,t1,80002074 <core_init_state+0x420>
    80001da0:	40ff0f3b          	subw	t5,t5,a5
    80001da4:	130f6263          	bltu	t5,a6,80001ec8 <core_init_state+0x274>
    80001da8:	2c070e63          	beqz	a4,80002084 <core_init_state+0x430>
    80001dac:	0017881b          	addiw	a6,a5,1
    80001db0:	00088023          	sb	zero,0(a7)
    80001db4:	00100313          	li	t1,1
    80001db8:	0008089b          	sext.w	a7,a6
    80001dbc:	0a670c63          	beq	a4,t1,80001e74 <core_init_state+0x220>
    80001dc0:	02081813          	slli	a6,a6,0x20
    80001dc4:	02085813          	srli	a6,a6,0x20
    80001dc8:	01060833          	add	a6,a2,a6
    80001dcc:	0027831b          	addiw	t1,a5,2
    80001dd0:	00080023          	sb	zero,0(a6)
    80001dd4:	00200813          	li	a6,2
    80001dd8:	0003089b          	sext.w	a7,t1
    80001ddc:	09070c63          	beq	a4,a6,80001e74 <core_init_state+0x220>
    80001de0:	02031313          	slli	t1,t1,0x20
    80001de4:	02035313          	srli	t1,t1,0x20
    80001de8:	00660333          	add	t1,a2,t1
    80001dec:	0037881b          	addiw	a6,a5,3
    80001df0:	00030023          	sb	zero,0(t1)
    80001df4:	00300313          	li	t1,3
    80001df8:	0008089b          	sext.w	a7,a6
    80001dfc:	06670c63          	beq	a4,t1,80001e74 <core_init_state+0x220>
    80001e00:	02081813          	slli	a6,a6,0x20
    80001e04:	02085813          	srli	a6,a6,0x20
    80001e08:	01060833          	add	a6,a2,a6
    80001e0c:	0047831b          	addiw	t1,a5,4
    80001e10:	00080023          	sb	zero,0(a6)
    80001e14:	00400813          	li	a6,4
    80001e18:	0003089b          	sext.w	a7,t1
    80001e1c:	05070c63          	beq	a4,a6,80001e74 <core_init_state+0x220>
    80001e20:	02031313          	slli	t1,t1,0x20
    80001e24:	02035313          	srli	t1,t1,0x20
    80001e28:	00660333          	add	t1,a2,t1
    80001e2c:	0057881b          	addiw	a6,a5,5
    80001e30:	00030023          	sb	zero,0(t1)
    80001e34:	00500313          	li	t1,5
    80001e38:	0008089b          	sext.w	a7,a6
    80001e3c:	02670c63          	beq	a4,t1,80001e74 <core_init_state+0x220>
    80001e40:	02081813          	slli	a6,a6,0x20
    80001e44:	02085813          	srli	a6,a6,0x20
    80001e48:	01060833          	add	a6,a2,a6
    80001e4c:	0067831b          	addiw	t1,a5,6
    80001e50:	00080023          	sb	zero,0(a6)
    80001e54:	00700813          	li	a6,7
    80001e58:	0003089b          	sext.w	a7,t1
    80001e5c:	01071c63          	bne	a4,a6,80001e74 <core_init_state+0x220>
    80001e60:	02031813          	slli	a6,t1,0x20
    80001e64:	02085813          	srli	a6,a6,0x20
    80001e68:	01060833          	add	a6,a2,a6
    80001e6c:	00080023          	sb	zero,0(a6)
    80001e70:	0077889b          	addiw	a7,a5,7
    80001e74:	40e687bb          	subw	a5,a3,a4
    80001e78:	00b70733          	add	a4,a4,a1
    80001e7c:	0037d59b          	srliw	a1,a5,0x3
    80001e80:	fff5859b          	addiw	a1,a1,-1
    80001e84:	02059693          	slli	a3,a1,0x20
    80001e88:	00e60733          	add	a4,a2,a4
    80001e8c:	01d6d593          	srli	a1,a3,0x1d
    80001e90:	00870693          	addi	a3,a4,8
    80001e94:	0007881b          	sext.w	a6,a5
    80001e98:	00d585b3          	add	a1,a1,a3
    80001e9c:	0080006f          	j	80001ea4 <core_init_state+0x250>
    80001ea0:	00868693          	addi	a3,a3,8
    80001ea4:	00073023          	sd	zero,0(a4)
    80001ea8:	00068713          	mv	a4,a3
    80001eac:	feb69ae3          	bne	a3,a1,80001ea0 <core_init_state+0x24c>
    80001eb0:	ff87f793          	andi	a5,a5,-8
    80001eb4:	0007871b          	sext.w	a4,a5
    80001eb8:	011787bb          	addw	a5,a5,a7
    80001ebc:	19070063          	beq	a4,a6,8000203c <core_init_state+0x3e8>
    80001ec0:	02079593          	slli	a1,a5,0x20
    80001ec4:	0205d593          	srli	a1,a1,0x20
    80001ec8:	00b60733          	add	a4,a2,a1
    80001ecc:	0017869b          	addiw	a3,a5,1
    80001ed0:	00070023          	sb	zero,0(a4)
    80001ed4:	0006871b          	sext.w	a4,a3
    80001ed8:	16a77263          	bgeu	a4,a0,8000203c <core_init_state+0x3e8>
    80001edc:	02069693          	slli	a3,a3,0x20
    80001ee0:	0206d693          	srli	a3,a3,0x20
    80001ee4:	00d606b3          	add	a3,a2,a3
    80001ee8:	0027871b          	addiw	a4,a5,2
    80001eec:	00068023          	sb	zero,0(a3)
    80001ef0:	0007069b          	sext.w	a3,a4
    80001ef4:	14a6f463          	bgeu	a3,a0,8000203c <core_init_state+0x3e8>
    80001ef8:	02071713          	slli	a4,a4,0x20
    80001efc:	02075713          	srli	a4,a4,0x20
    80001f00:	00e60733          	add	a4,a2,a4
    80001f04:	0037869b          	addiw	a3,a5,3
    80001f08:	00070023          	sb	zero,0(a4)
    80001f0c:	0006871b          	sext.w	a4,a3
    80001f10:	12a77663          	bgeu	a4,a0,8000203c <core_init_state+0x3e8>
    80001f14:	02069693          	slli	a3,a3,0x20
    80001f18:	0206d693          	srli	a3,a3,0x20
    80001f1c:	00d606b3          	add	a3,a2,a3
    80001f20:	0047871b          	addiw	a4,a5,4
    80001f24:	00068023          	sb	zero,0(a3)
    80001f28:	0007069b          	sext.w	a3,a4
    80001f2c:	10a6f863          	bgeu	a3,a0,8000203c <core_init_state+0x3e8>
    80001f30:	02071713          	slli	a4,a4,0x20
    80001f34:	02075713          	srli	a4,a4,0x20
    80001f38:	00e60733          	add	a4,a2,a4
    80001f3c:	0057869b          	addiw	a3,a5,5
    80001f40:	00070023          	sb	zero,0(a4)
    80001f44:	0006871b          	sext.w	a4,a3
    80001f48:	0ea77a63          	bgeu	a4,a0,8000203c <core_init_state+0x3e8>
    80001f4c:	02069693          	slli	a3,a3,0x20
    80001f50:	0206d693          	srli	a3,a3,0x20
    80001f54:	00d606b3          	add	a3,a2,a3
    80001f58:	0067871b          	addiw	a4,a5,6
    80001f5c:	00068023          	sb	zero,0(a3)
    80001f60:	0007069b          	sext.w	a3,a4
    80001f64:	0ca6fc63          	bgeu	a3,a0,8000203c <core_init_state+0x3e8>
    80001f68:	02071713          	slli	a4,a4,0x20
    80001f6c:	02075713          	srli	a4,a4,0x20
    80001f70:	00e60733          	add	a4,a2,a4
    80001f74:	0077869b          	addiw	a3,a5,7
    80001f78:	00070023          	sb	zero,0(a4)
    80001f7c:	0006871b          	sext.w	a4,a3
    80001f80:	0aa77e63          	bgeu	a4,a0,8000203c <core_init_state+0x3e8>
    80001f84:	02069693          	slli	a3,a3,0x20
    80001f88:	0206d693          	srli	a3,a3,0x20
    80001f8c:	00d606b3          	add	a3,a2,a3
    80001f90:	0087871b          	addiw	a4,a5,8
    80001f94:	00068023          	sb	zero,0(a3)
    80001f98:	0007069b          	sext.w	a3,a4
    80001f9c:	0aa6f063          	bgeu	a3,a0,8000203c <core_init_state+0x3e8>
    80001fa0:	02071713          	slli	a4,a4,0x20
    80001fa4:	02075713          	srli	a4,a4,0x20
    80001fa8:	00e60733          	add	a4,a2,a4
    80001fac:	0097869b          	addiw	a3,a5,9
    80001fb0:	00070023          	sb	zero,0(a4)
    80001fb4:	0006871b          	sext.w	a4,a3
    80001fb8:	08a77263          	bgeu	a4,a0,8000203c <core_init_state+0x3e8>
    80001fbc:	02069713          	slli	a4,a3,0x20
    80001fc0:	02075713          	srli	a4,a4,0x20
    80001fc4:	00e60733          	add	a4,a2,a4
    80001fc8:	00a7869b          	addiw	a3,a5,10
    80001fcc:	00070023          	sb	zero,0(a4)
    80001fd0:	0006871b          	sext.w	a4,a3
    80001fd4:	06a77463          	bgeu	a4,a0,8000203c <core_init_state+0x3e8>
    80001fd8:	02069713          	slli	a4,a3,0x20
    80001fdc:	02075713          	srli	a4,a4,0x20
    80001fe0:	00e60733          	add	a4,a2,a4
    80001fe4:	00b7869b          	addiw	a3,a5,11
    80001fe8:	00070023          	sb	zero,0(a4)
    80001fec:	0006871b          	sext.w	a4,a3
    80001ff0:	04a77663          	bgeu	a4,a0,8000203c <core_init_state+0x3e8>
    80001ff4:	02069713          	slli	a4,a3,0x20
    80001ff8:	02075713          	srli	a4,a4,0x20
    80001ffc:	00e60733          	add	a4,a2,a4
    80002000:	00c7869b          	addiw	a3,a5,12
    80002004:	00070023          	sb	zero,0(a4)
    80002008:	0006871b          	sext.w	a4,a3
    8000200c:	02a77863          	bgeu	a4,a0,8000203c <core_init_state+0x3e8>
    80002010:	02069713          	slli	a4,a3,0x20
    80002014:	02075713          	srli	a4,a4,0x20
    80002018:	00e60733          	add	a4,a2,a4
    8000201c:	00d7879b          	addiw	a5,a5,13
    80002020:	00070023          	sb	zero,0(a4)
    80002024:	0007871b          	sext.w	a4,a5
    80002028:	00a77a63          	bgeu	a4,a0,8000203c <core_init_state+0x3e8>
    8000202c:	02079793          	slli	a5,a5,0x20
    80002030:	0207d793          	srli	a5,a5,0x20
    80002034:	00f607b3          	add	a5,a2,a5
    80002038:	00078023          	sb	zero,0(a5)
    8000203c:	00813403          	ld	s0,8(sp)
    80002040:	00013483          	ld	s1,0(sp)
    80002044:	01010113          	addi	sp,sp,16
    80002048:	00008067          	ret
    8000204c:	00073583          	ld	a1,0(a4)
    80002050:	00500393          	li	t2,5
    80002054:	00400413          	li	s0,4
    80002058:	c71ff06f          	j	80001cc8 <core_init_state+0x74>
    8000205c:	00371713          	slli	a4,a4,0x3
    80002060:	00ee8733          	add	a4,t4,a4
    80002064:	04073583          	ld	a1,64(a4)
    80002068:	00900393          	li	t2,9
    8000206c:	00800413          	li	s0,8
    80002070:	c59ff06f          	j	80001cc8 <core_init_state+0x74>
    80002074:	00b00813          	li	a6,11
    80002078:	d29ff06f          	j	80001da0 <core_init_state+0x14c>
    8000207c:	00000793          	li	a5,0
    80002080:	cfdff06f          	j	80001d7c <core_init_state+0x128>
    80002084:	00078893          	mv	a7,a5
    80002088:	dedff06f          	j	80001e74 <core_init_state+0x220>

000000008000208c <core_state_transition>:
    8000208c:	00053783          	ld	a5,0(a0)
    80002090:	00050813          	mv	a6,a0
    80002094:	00000513          	li	a0,0
    80002098:	0007c683          	lbu	a3,0(a5)
    8000209c:	00078713          	mv	a4,a5
    800020a0:	0c068c63          	beqz	a3,80002178 <core_state_transition+0xec>
    800020a4:	02c00513          	li	a0,44
    800020a8:	00178713          	addi	a4,a5,1
    800020ac:	2aa68863          	beq	a3,a0,8000235c <core_state_transition+0x2d0>
    800020b0:	0005a883          	lw	a7,0(a1)
    800020b4:	fd06861b          	addiw	a2,a3,-48
    800020b8:	0ff67613          	zext.b	a2,a2
    800020bc:	00900313          	li	t1,9
    800020c0:	0018889b          	addiw	a7,a7,1
    800020c4:	0ac36e63          	bltu	t1,a2,80002180 <core_state_transition+0xf4>
    800020c8:	0115a023          	sw	a7,0(a1)
    800020cc:	0017c683          	lbu	a3,1(a5)
    800020d0:	16068063          	beqz	a3,80002230 <core_state_transition+0x1a4>
    800020d4:	00278793          	addi	a5,a5,2
    800020d8:	14a68a63          	beq	a3,a0,8000222c <core_state_transition+0x1a0>
    800020dc:	fd06861b          	addiw	a2,a3,-48
    800020e0:	02e00513          	li	a0,46
    800020e4:	00900893          	li	a7,9
    800020e8:	02c00313          	li	t1,44
    800020ec:	0ff67613          	zext.b	a2,a2
    800020f0:	02a68663          	beq	a3,a0,8000211c <core_state_transition+0x90>
    800020f4:	0cc8e063          	bltu	a7,a2,800021b4 <core_state_transition+0x128>
    800020f8:	00174683          	lbu	a3,1(a4)
    800020fc:	00178613          	addi	a2,a5,1
    80002100:	00078713          	mv	a4,a5
    80002104:	12068463          	beqz	a3,8000222c <core_state_transition+0x1a0>
    80002108:	28668863          	beq	a3,t1,80002398 <core_state_transition+0x30c>
    8000210c:	00060793          	mv	a5,a2
    80002110:	fd06861b          	addiw	a2,a3,-48
    80002114:	0ff67613          	zext.b	a2,a2
    80002118:	fca69ee3          	bne	a3,a0,800020f4 <core_state_transition+0x68>
    8000211c:	0105a683          	lw	a3,16(a1)
    80002120:	00500513          	li	a0,5
    80002124:	0016869b          	addiw	a3,a3,1
    80002128:	00d5a823          	sw	a3,16(a1)
    8000212c:	00174683          	lbu	a3,1(a4)
    80002130:	00078713          	mv	a4,a5
    80002134:	04068263          	beqz	a3,80002178 <core_state_transition+0xec>
    80002138:	02c00713          	li	a4,44
    8000213c:	00178613          	addi	a2,a5,1
    80002140:	20e68863          	beq	a3,a4,80002350 <core_state_transition+0x2c4>
    80002144:	04500513          	li	a0,69
    80002148:	00900893          	li	a7,9
    8000214c:	02c00313          	li	t1,44
    80002150:	fd06871b          	addiw	a4,a3,-48
    80002154:	0df6f693          	andi	a3,a3,223
    80002158:	0ff77713          	zext.b	a4,a4
    8000215c:	0ca68e63          	beq	a3,a0,80002238 <core_state_transition+0x1ac>
    80002160:	1ae8f063          	bgeu	a7,a4,80002300 <core_state_transition+0x274>
    80002164:	0145a783          	lw	a5,20(a1)
    80002168:	00060713          	mv	a4,a2
    8000216c:	00100513          	li	a0,1
    80002170:	0017879b          	addiw	a5,a5,1
    80002174:	00f5aa23          	sw	a5,20(a1)
    80002178:	00e83023          	sd	a4,0(a6)
    8000217c:	00008067          	ret
    80002180:	02b00613          	li	a2,43
    80002184:	04c68663          	beq	a3,a2,800021d0 <core_state_transition+0x144>
    80002188:	02d00613          	li	a2,45
    8000218c:	04c68263          	beq	a3,a2,800021d0 <core_state_transition+0x144>
    80002190:	02e00613          	li	a2,46
    80002194:	18c68463          	beq	a3,a2,8000231c <core_state_transition+0x290>
    80002198:	0045a783          	lw	a5,4(a1)
    8000219c:	0115a023          	sw	a7,0(a1)
    800021a0:	00100513          	li	a0,1
    800021a4:	0017879b          	addiw	a5,a5,1
    800021a8:	00f5a223          	sw	a5,4(a1)
    800021ac:	00e83023          	sd	a4,0(a6)
    800021b0:	00008067          	ret
    800021b4:	0105a683          	lw	a3,16(a1)
    800021b8:	00078713          	mv	a4,a5
    800021bc:	00100513          	li	a0,1
    800021c0:	0016879b          	addiw	a5,a3,1
    800021c4:	00f5a823          	sw	a5,16(a1)
    800021c8:	00e83023          	sd	a4,0(a6)
    800021cc:	00008067          	ret
    800021d0:	0115a023          	sw	a7,0(a1)
    800021d4:	0017c883          	lbu	a7,1(a5)
    800021d8:	1a088663          	beqz	a7,80002384 <core_state_transition+0x2f8>
    800021dc:	00278713          	addi	a4,a5,2
    800021e0:	1aa88263          	beq	a7,a0,80002384 <core_state_transition+0x2f8>
    800021e4:	0085a603          	lw	a2,8(a1)
    800021e8:	fd08869b          	addiw	a3,a7,-48
    800021ec:	0ff6f693          	zext.b	a3,a3
    800021f0:	00900513          	li	a0,9
    800021f4:	0016061b          	addiw	a2,a2,1
    800021f8:	00d57e63          	bgeu	a0,a3,80002214 <core_state_transition+0x188>
    800021fc:	02e00693          	li	a3,46
    80002200:	12d88c63          	beq	a7,a3,80002338 <core_state_transition+0x2ac>
    80002204:	00c5a423          	sw	a2,8(a1)
    80002208:	00100513          	li	a0,1
    8000220c:	00e83023          	sd	a4,0(a6)
    80002210:	00008067          	ret
    80002214:	00c5a423          	sw	a2,8(a1)
    80002218:	0027c683          	lbu	a3,2(a5)
    8000221c:	00068a63          	beqz	a3,80002230 <core_state_transition+0x1a4>
    80002220:	02c00613          	li	a2,44
    80002224:	00170793          	addi	a5,a4,1
    80002228:	eac69ae3          	bne	a3,a2,800020dc <core_state_transition+0x50>
    8000222c:	00078713          	mv	a4,a5
    80002230:	00400513          	li	a0,4
    80002234:	f45ff06f          	j	80002178 <core_state_transition+0xec>
    80002238:	0145a703          	lw	a4,20(a1)
    8000223c:	0017071b          	addiw	a4,a4,1
    80002240:	00e5aa23          	sw	a4,20(a1)
    80002244:	0017c783          	lbu	a5,1(a5)
    80002248:	12078463          	beqz	a5,80002370 <core_state_transition+0x2e4>
    8000224c:	02c00513          	li	a0,44
    80002250:	00160713          	addi	a4,a2,1
    80002254:	12a78063          	beq	a5,a0,80002374 <core_state_transition+0x2e8>
    80002258:	00c5a683          	lw	a3,12(a1)
    8000225c:	fd57879b          	addiw	a5,a5,-43
    80002260:	0fd7f793          	andi	a5,a5,253
    80002264:	0016869b          	addiw	a3,a3,1
    80002268:	00d5a623          	sw	a3,12(a1)
    8000226c:	00078863          	beqz	a5,8000227c <core_state_transition+0x1f0>
    80002270:	00100513          	li	a0,1
    80002274:	00e83023          	sd	a4,0(a6)
    80002278:	00008067          	ret
    8000227c:	00164783          	lbu	a5,1(a2)
    80002280:	0e078e63          	beqz	a5,8000237c <core_state_transition+0x2f0>
    80002284:	00260713          	addi	a4,a2,2
    80002288:	0ea78a63          	beq	a5,a0,8000237c <core_state_transition+0x2f0>
    8000228c:	0185a683          	lw	a3,24(a1)
    80002290:	fd07879b          	addiw	a5,a5,-48
    80002294:	0ff7f793          	zext.b	a5,a5
    80002298:	0016869b          	addiw	a3,a3,1
    8000229c:	00900893          	li	a7,9
    800022a0:	00d5ac23          	sw	a3,24(a1)
    800022a4:	fcf8e6e3          	bltu	a7,a5,80002270 <core_state_transition+0x1e4>
    800022a8:	00264683          	lbu	a3,2(a2)
    800022ac:	0a068e63          	beqz	a3,80002368 <core_state_transition+0x2dc>
    800022b0:	00360793          	addi	a5,a2,3
    800022b4:	0aa68863          	beq	a3,a0,80002364 <core_state_transition+0x2d8>
    800022b8:	00900613          	li	a2,9
    800022bc:	02c00893          	li	a7,44
    800022c0:	fd06869b          	addiw	a3,a3,-48
    800022c4:	0ff6f693          	zext.b	a3,a3
    800022c8:	00d67e63          	bgeu	a2,a3,800022e4 <core_state_transition+0x258>
    800022cc:	0045a683          	lw	a3,4(a1)
    800022d0:	00078713          	mv	a4,a5
    800022d4:	00100513          	li	a0,1
    800022d8:	0016879b          	addiw	a5,a3,1
    800022dc:	00f5a223          	sw	a5,4(a1)
    800022e0:	e99ff06f          	j	80002178 <core_state_transition+0xec>
    800022e4:	00174683          	lbu	a3,1(a4)
    800022e8:	00178513          	addi	a0,a5,1
    800022ec:	00078713          	mv	a4,a5
    800022f0:	06068a63          	beqz	a3,80002364 <core_state_transition+0x2d8>
    800022f4:	09168c63          	beq	a3,a7,8000238c <core_state_transition+0x300>
    800022f8:	00050793          	mv	a5,a0
    800022fc:	fc5ff06f          	j	800022c0 <core_state_transition+0x234>
    80002300:	0017c683          	lbu	a3,1(a5)
    80002304:	00160713          	addi	a4,a2,1
    80002308:	00060793          	mv	a5,a2
    8000230c:	04068263          	beqz	a3,80002350 <core_state_transition+0x2c4>
    80002310:	04668263          	beq	a3,t1,80002354 <core_state_transition+0x2c8>
    80002314:	00070613          	mv	a2,a4
    80002318:	e39ff06f          	j	80002150 <core_state_transition+0xc4>
    8000231c:	0115a023          	sw	a7,0(a1)
    80002320:	0017c683          	lbu	a3,1(a5)
    80002324:	02068863          	beqz	a3,80002354 <core_state_transition+0x2c8>
    80002328:	00278613          	addi	a2,a5,2
    8000232c:	02a68263          	beq	a3,a0,80002350 <core_state_transition+0x2c4>
    80002330:	00070793          	mv	a5,a4
    80002334:	e11ff06f          	j	80002144 <core_state_transition+0xb8>
    80002338:	00c5a423          	sw	a2,8(a1)
    8000233c:	0027c683          	lbu	a3,2(a5)
    80002340:	00068a63          	beqz	a3,80002354 <core_state_transition+0x2c8>
    80002344:	02c00793          	li	a5,44
    80002348:	00170613          	addi	a2,a4,1
    8000234c:	fef692e3          	bne	a3,a5,80002330 <core_state_transition+0x2a4>
    80002350:	00060713          	mv	a4,a2
    80002354:	00500513          	li	a0,5
    80002358:	e21ff06f          	j	80002178 <core_state_transition+0xec>
    8000235c:	00000513          	li	a0,0
    80002360:	e19ff06f          	j	80002178 <core_state_transition+0xec>
    80002364:	00078713          	mv	a4,a5
    80002368:	00700513          	li	a0,7
    8000236c:	e0dff06f          	j	80002178 <core_state_transition+0xec>
    80002370:	00060713          	mv	a4,a2
    80002374:	00300513          	li	a0,3
    80002378:	e01ff06f          	j	80002178 <core_state_transition+0xec>
    8000237c:	00600513          	li	a0,6
    80002380:	df9ff06f          	j	80002178 <core_state_transition+0xec>
    80002384:	00200513          	li	a0,2
    80002388:	df1ff06f          	j	80002178 <core_state_transition+0xec>
    8000238c:	00050713          	mv	a4,a0
    80002390:	00700513          	li	a0,7
    80002394:	de5ff06f          	j	80002178 <core_state_transition+0xec>
    80002398:	00060713          	mv	a4,a2
    8000239c:	00400513          	li	a0,4
    800023a0:	dd9ff06f          	j	80002178 <core_state_transition+0xec>

00000000800023a4 <core_bench_state>:
    800023a4:	f6010113          	addi	sp,sp,-160
    800023a8:	08813823          	sd	s0,144(sp)
    800023ac:	09213023          	sd	s2,128(sp)
    800023b0:	07313c23          	sd	s3,120(sp)
    800023b4:	07413823          	sd	s4,112(sp)
    800023b8:	07513423          	sd	s5,104(sp)
    800023bc:	07613023          	sd	s6,96(sp)
    800023c0:	08113c23          	sd	ra,152(sp)
    800023c4:	08913423          	sd	s1,136(sp)
    800023c8:	05713c23          	sd	s7,88(sp)
    800023cc:	00058913          	mv	s2,a1
    800023d0:	0005c583          	lbu	a1,0(a1)
    800023d4:	01213423          	sd	s2,8(sp)
    800023d8:	02013823          	sd	zero,48(sp)
    800023dc:	00013823          	sd	zero,16(sp)
    800023e0:	02013c23          	sd	zero,56(sp)
    800023e4:	00013c23          	sd	zero,24(sp)
    800023e8:	04013023          	sd	zero,64(sp)
    800023ec:	02013023          	sd	zero,32(sp)
    800023f0:	04013423          	sd	zero,72(sp)
    800023f4:	02013423          	sd	zero,40(sp)
    800023f8:	00050b13          	mv	s6,a0
    800023fc:	00060a93          	mv	s5,a2
    80002400:	00068a13          	mv	s4,a3
    80002404:	00070993          	mv	s3,a4
    80002408:	00078413          	mv	s0,a5
    8000240c:	180584e3          	beqz	a1,80002d94 <core_bench_state+0x9f0>
    80002410:	03010493          	addi	s1,sp,48
    80002414:	00810b93          	addi	s7,sp,8
    80002418:	00048593          	mv	a1,s1
    8000241c:	000b8513          	mv	a0,s7
    80002420:	c6dff0ef          	jal	ra,8000208c <core_state_transition>
    80002424:	02051713          	slli	a4,a0,0x20
    80002428:	01e75793          	srli	a5,a4,0x1e
    8000242c:	05010713          	addi	a4,sp,80
    80002430:	00f707b3          	add	a5,a4,a5
    80002434:	00813683          	ld	a3,8(sp)
    80002438:	fc07a703          	lw	a4,-64(a5)
    8000243c:	0006c683          	lbu	a3,0(a3)
    80002440:	0017071b          	addiw	a4,a4,1
    80002444:	fce7a023          	sw	a4,-64(a5)
    80002448:	fc0698e3          	bnez	a3,80002418 <core_bench_state+0x74>
    8000244c:	020b1b13          	slli	s6,s6,0x20
    80002450:	020b5b13          	srli	s6,s6,0x20
    80002454:	01213423          	sd	s2,8(sp)
    80002458:	01690b33          	add	s6,s2,s6
    8000245c:	00094583          	lbu	a1,0(s2)
    80002460:	156976e3          	bgeu	s2,s6,80002dac <core_bench_state+0xa08>
    80002464:	02c00693          	li	a3,44
    80002468:	00090793          	mv	a5,s2
    8000246c:	0155c733          	xor	a4,a1,s5
    80002470:	02d58263          	beq	a1,a3,80002494 <core_bench_state+0xf0>
    80002474:	00e78023          	sb	a4,0(a5)
    80002478:	00813783          	ld	a5,8(sp)
    8000247c:	013787b3          	add	a5,a5,s3
    80002480:	00f13423          	sd	a5,8(sp)
    80002484:	0167fe63          	bgeu	a5,s6,800024a0 <core_bench_state+0xfc>
    80002488:	0007c583          	lbu	a1,0(a5)
    8000248c:	0155c733          	xor	a4,a1,s5
    80002490:	fed592e3          	bne	a1,a3,80002474 <core_bench_state+0xd0>
    80002494:	013787b3          	add	a5,a5,s3
    80002498:	00f13423          	sd	a5,8(sp)
    8000249c:	ff67e6e3          	bltu	a5,s6,80002488 <core_bench_state+0xe4>
    800024a0:	00094783          	lbu	a5,0(s2)
    800024a4:	01213423          	sd	s2,8(sp)
    800024a8:	00810b93          	addi	s7,sp,8
    800024ac:	04078063          	beqz	a5,800024ec <core_bench_state+0x148>
    800024b0:	00048593          	mv	a1,s1
    800024b4:	000b8513          	mv	a0,s7
    800024b8:	bd5ff0ef          	jal	ra,8000208c <core_state_transition>
    800024bc:	02051793          	slli	a5,a0,0x20
    800024c0:	01e7d513          	srli	a0,a5,0x1e
    800024c4:	05010793          	addi	a5,sp,80
    800024c8:	00a78533          	add	a0,a5,a0
    800024cc:	00813703          	ld	a4,8(sp)
    800024d0:	fc052783          	lw	a5,-64(a0)
    800024d4:	00074703          	lbu	a4,0(a4)
    800024d8:	0017879b          	addiw	a5,a5,1
    800024dc:	fcf52023          	sw	a5,-64(a0)
    800024e0:	fc0718e3          	bnez	a4,800024b0 <core_bench_state+0x10c>
    800024e4:	01213423          	sd	s2,8(sp)
    800024e8:	03697463          	bgeu	s2,s6,80002510 <core_bench_state+0x16c>
    800024ec:	02c00693          	li	a3,44
    800024f0:	00094783          	lbu	a5,0(s2)
    800024f4:	0147c733          	xor	a4,a5,s4
    800024f8:	08d786e3          	beq	a5,a3,80002d84 <core_bench_state+0x9e0>
    800024fc:	00e90023          	sb	a4,0(s2)
    80002500:	00813903          	ld	s2,8(sp)
    80002504:	01390933          	add	s2,s2,s3
    80002508:	01213423          	sd	s2,8(sp)
    8000250c:	ff6962e3          	bltu	s2,s6,800024f0 <core_bench_state+0x14c>
    80002510:	ffffa737          	lui	a4,0xffffa
    80002514:	01010693          	addi	a3,sp,16
    80002518:	00048613          	mv	a2,s1
    8000251c:	00170713          	addi	a4,a4,1 # ffffffffffffa001 <_pmem_end+0xffffffff77ffa001>
    80002520:	0006a583          	lw	a1,0(a3)
    80002524:	00145793          	srli	a5,s0,0x1
    80002528:	0085c433          	xor	s0,a1,s0
    8000252c:	0ff5f513          	zext.b	a0,a1
    80002530:	03059813          	slli	a6,a1,0x30
    80002534:	00147413          	andi	s0,s0,1
    80002538:	03085813          	srli	a6,a6,0x30
    8000253c:	00155313          	srli	t1,a0,0x1
    80002540:	00040863          	beqz	s0,80002550 <core_bench_state+0x1ac>
    80002544:	00e7c7b3          	xor	a5,a5,a4
    80002548:	03079793          	slli	a5,a5,0x30
    8000254c:	0307d793          	srli	a5,a5,0x30
    80002550:	00f34333          	xor	t1,t1,a5
    80002554:	00137313          	andi	t1,t1,1
    80002558:	00255893          	srli	a7,a0,0x2
    8000255c:	0017d793          	srli	a5,a5,0x1
    80002560:	00030863          	beqz	t1,80002570 <core_bench_state+0x1cc>
    80002564:	00e7c7b3          	xor	a5,a5,a4
    80002568:	03079793          	slli	a5,a5,0x30
    8000256c:	0307d793          	srli	a5,a5,0x30
    80002570:	00f8c8b3          	xor	a7,a7,a5
    80002574:	0018f893          	andi	a7,a7,1
    80002578:	00355313          	srli	t1,a0,0x3
    8000257c:	0017d793          	srli	a5,a5,0x1
    80002580:	00088863          	beqz	a7,80002590 <core_bench_state+0x1ec>
    80002584:	00e7c7b3          	xor	a5,a5,a4
    80002588:	03079793          	slli	a5,a5,0x30
    8000258c:	0307d793          	srli	a5,a5,0x30
    80002590:	00f34333          	xor	t1,t1,a5
    80002594:	00137313          	andi	t1,t1,1
    80002598:	00455893          	srli	a7,a0,0x4
    8000259c:	0017d793          	srli	a5,a5,0x1
    800025a0:	00030863          	beqz	t1,800025b0 <core_bench_state+0x20c>
    800025a4:	00e7c7b3          	xor	a5,a5,a4
    800025a8:	03079793          	slli	a5,a5,0x30
    800025ac:	0307d793          	srli	a5,a5,0x30
    800025b0:	0117c8b3          	xor	a7,a5,a7
    800025b4:	0018f893          	andi	a7,a7,1
    800025b8:	00555313          	srli	t1,a0,0x5
    800025bc:	0017d793          	srli	a5,a5,0x1
    800025c0:	00088863          	beqz	a7,800025d0 <core_bench_state+0x22c>
    800025c4:	00e7c7b3          	xor	a5,a5,a4
    800025c8:	03079793          	slli	a5,a5,0x30
    800025cc:	0307d793          	srli	a5,a5,0x30
    800025d0:	0067c333          	xor	t1,a5,t1
    800025d4:	00137313          	andi	t1,t1,1
    800025d8:	00655893          	srli	a7,a0,0x6
    800025dc:	0017d793          	srli	a5,a5,0x1
    800025e0:	00030863          	beqz	t1,800025f0 <core_bench_state+0x24c>
    800025e4:	00e7c7b3          	xor	a5,a5,a4
    800025e8:	03079793          	slli	a5,a5,0x30
    800025ec:	0307d793          	srli	a5,a5,0x30
    800025f0:	0117c8b3          	xor	a7,a5,a7
    800025f4:	0018f893          	andi	a7,a7,1
    800025f8:	00755513          	srli	a0,a0,0x7
    800025fc:	0017d793          	srli	a5,a5,0x1
    80002600:	00088863          	beqz	a7,80002610 <core_bench_state+0x26c>
    80002604:	00e7c7b3          	xor	a5,a5,a4
    80002608:	03079793          	slli	a5,a5,0x30
    8000260c:	0307d793          	srli	a5,a5,0x30
    80002610:	0017f893          	andi	a7,a5,1
    80002614:	0017d793          	srli	a5,a5,0x1
    80002618:	00a88863          	beq	a7,a0,80002628 <core_bench_state+0x284>
    8000261c:	00e7c7b3          	xor	a5,a5,a4
    80002620:	03079793          	slli	a5,a5,0x30
    80002624:	0307d793          	srli	a5,a5,0x30
    80002628:	00885893          	srli	a7,a6,0x8
    8000262c:	00f8c8b3          	xor	a7,a7,a5
    80002630:	0018f893          	andi	a7,a7,1
    80002634:	00885513          	srli	a0,a6,0x8
    80002638:	0017d793          	srli	a5,a5,0x1
    8000263c:	00985813          	srli	a6,a6,0x9
    80002640:	00088863          	beqz	a7,80002650 <core_bench_state+0x2ac>
    80002644:	00e7c7b3          	xor	a5,a5,a4
    80002648:	03079793          	slli	a5,a5,0x30
    8000264c:	0307d793          	srli	a5,a5,0x30
    80002650:	00f84833          	xor	a6,a6,a5
    80002654:	00187813          	andi	a6,a6,1
    80002658:	00255893          	srli	a7,a0,0x2
    8000265c:	0017d793          	srli	a5,a5,0x1
    80002660:	00080863          	beqz	a6,80002670 <core_bench_state+0x2cc>
    80002664:	00e7c7b3          	xor	a5,a5,a4
    80002668:	03079793          	slli	a5,a5,0x30
    8000266c:	0307d793          	srli	a5,a5,0x30
    80002670:	00f8c833          	xor	a6,a7,a5
    80002674:	00187813          	andi	a6,a6,1
    80002678:	00355893          	srli	a7,a0,0x3
    8000267c:	0017d793          	srli	a5,a5,0x1
    80002680:	00080863          	beqz	a6,80002690 <core_bench_state+0x2ec>
    80002684:	00e7c7b3          	xor	a5,a5,a4
    80002688:	03079793          	slli	a5,a5,0x30
    8000268c:	0307d793          	srli	a5,a5,0x30
    80002690:	00f8c8b3          	xor	a7,a7,a5
    80002694:	0018f893          	andi	a7,a7,1
    80002698:	00455813          	srli	a6,a0,0x4
    8000269c:	0017d793          	srli	a5,a5,0x1
    800026a0:	00088863          	beqz	a7,800026b0 <core_bench_state+0x30c>
    800026a4:	00e7c7b3          	xor	a5,a5,a4
    800026a8:	03079793          	slli	a5,a5,0x30
    800026ac:	0307d793          	srli	a5,a5,0x30
    800026b0:	00f84833          	xor	a6,a6,a5
    800026b4:	00187813          	andi	a6,a6,1
    800026b8:	00555893          	srli	a7,a0,0x5
    800026bc:	0017d793          	srli	a5,a5,0x1
    800026c0:	00080863          	beqz	a6,800026d0 <core_bench_state+0x32c>
    800026c4:	00e7c7b3          	xor	a5,a5,a4
    800026c8:	03079793          	slli	a5,a5,0x30
    800026cc:	0307d793          	srli	a5,a5,0x30
    800026d0:	00f8c8b3          	xor	a7,a7,a5
    800026d4:	0018f893          	andi	a7,a7,1
    800026d8:	00655813          	srli	a6,a0,0x6
    800026dc:	0017d793          	srli	a5,a5,0x1
    800026e0:	00088863          	beqz	a7,800026f0 <core_bench_state+0x34c>
    800026e4:	00e7c7b3          	xor	a5,a5,a4
    800026e8:	03079793          	slli	a5,a5,0x30
    800026ec:	0307d793          	srli	a5,a5,0x30
    800026f0:	00f84833          	xor	a6,a6,a5
    800026f4:	00187813          	andi	a6,a6,1
    800026f8:	00755513          	srli	a0,a0,0x7
    800026fc:	0017d793          	srli	a5,a5,0x1
    80002700:	00080863          	beqz	a6,80002710 <core_bench_state+0x36c>
    80002704:	00e7c7b3          	xor	a5,a5,a4
    80002708:	03079793          	slli	a5,a5,0x30
    8000270c:	0307d793          	srli	a5,a5,0x30
    80002710:	00f54533          	xor	a0,a0,a5
    80002714:	00157513          	andi	a0,a0,1
    80002718:	0017d793          	srli	a5,a5,0x1
    8000271c:	00050863          	beqz	a0,8000272c <core_bench_state+0x388>
    80002720:	00e7c7b3          	xor	a5,a5,a4
    80002724:	03079793          	slli	a5,a5,0x30
    80002728:	0307d793          	srli	a5,a5,0x30
    8000272c:	0105d51b          	srliw	a0,a1,0x10
    80002730:	00f54833          	xor	a6,a0,a5
    80002734:	00187813          	andi	a6,a6,1
    80002738:	0ff57513          	zext.b	a0,a0
    8000273c:	0105d59b          	srliw	a1,a1,0x10
    80002740:	00155893          	srli	a7,a0,0x1
    80002744:	0017d793          	srli	a5,a5,0x1
    80002748:	00080863          	beqz	a6,80002758 <core_bench_state+0x3b4>
    8000274c:	00e7c7b3          	xor	a5,a5,a4
    80002750:	03079793          	slli	a5,a5,0x30
    80002754:	0307d793          	srli	a5,a5,0x30
    80002758:	00f8c8b3          	xor	a7,a7,a5
    8000275c:	0018f893          	andi	a7,a7,1
    80002760:	00255813          	srli	a6,a0,0x2
    80002764:	0017d793          	srli	a5,a5,0x1
    80002768:	00088863          	beqz	a7,80002778 <core_bench_state+0x3d4>
    8000276c:	00e7c7b3          	xor	a5,a5,a4
    80002770:	03079793          	slli	a5,a5,0x30
    80002774:	0307d793          	srli	a5,a5,0x30
    80002778:	00f84833          	xor	a6,a6,a5
    8000277c:	00187813          	andi	a6,a6,1
    80002780:	00355893          	srli	a7,a0,0x3
    80002784:	0017d793          	srli	a5,a5,0x1
    80002788:	00080863          	beqz	a6,80002798 <core_bench_state+0x3f4>
    8000278c:	00e7c7b3          	xor	a5,a5,a4
    80002790:	03079793          	slli	a5,a5,0x30
    80002794:	0307d793          	srli	a5,a5,0x30
    80002798:	00f8c8b3          	xor	a7,a7,a5
    8000279c:	0018f893          	andi	a7,a7,1
    800027a0:	00455813          	srli	a6,a0,0x4
    800027a4:	0017d793          	srli	a5,a5,0x1
    800027a8:	00088863          	beqz	a7,800027b8 <core_bench_state+0x414>
    800027ac:	00e7c7b3          	xor	a5,a5,a4
    800027b0:	03079793          	slli	a5,a5,0x30
    800027b4:	0307d793          	srli	a5,a5,0x30
    800027b8:	00f84833          	xor	a6,a6,a5
    800027bc:	00187813          	andi	a6,a6,1
    800027c0:	00555893          	srli	a7,a0,0x5
    800027c4:	0017d793          	srli	a5,a5,0x1
    800027c8:	00080863          	beqz	a6,800027d8 <core_bench_state+0x434>
    800027cc:	00e7c7b3          	xor	a5,a5,a4
    800027d0:	03079793          	slli	a5,a5,0x30
    800027d4:	0307d793          	srli	a5,a5,0x30
    800027d8:	00f8c8b3          	xor	a7,a7,a5
    800027dc:	0018f893          	andi	a7,a7,1
    800027e0:	00655813          	srli	a6,a0,0x6
    800027e4:	0017d793          	srli	a5,a5,0x1
    800027e8:	00088863          	beqz	a7,800027f8 <core_bench_state+0x454>
    800027ec:	00e7c7b3          	xor	a5,a5,a4
    800027f0:	03079793          	slli	a5,a5,0x30
    800027f4:	0307d793          	srli	a5,a5,0x30
    800027f8:	00f84833          	xor	a6,a6,a5
    800027fc:	00187813          	andi	a6,a6,1
    80002800:	00755513          	srli	a0,a0,0x7
    80002804:	0017d793          	srli	a5,a5,0x1
    80002808:	00080863          	beqz	a6,80002818 <core_bench_state+0x474>
    8000280c:	00e7c7b3          	xor	a5,a5,a4
    80002810:	03079793          	slli	a5,a5,0x30
    80002814:	0307d793          	srli	a5,a5,0x30
    80002818:	0017f813          	andi	a6,a5,1
    8000281c:	0017d793          	srli	a5,a5,0x1
    80002820:	00a80863          	beq	a6,a0,80002830 <core_bench_state+0x48c>
    80002824:	00e7c7b3          	xor	a5,a5,a4
    80002828:	03079793          	slli	a5,a5,0x30
    8000282c:	0307d793          	srli	a5,a5,0x30
    80002830:	0085d813          	srli	a6,a1,0x8
    80002834:	00f84833          	xor	a6,a6,a5
    80002838:	00187813          	andi	a6,a6,1
    8000283c:	0085d513          	srli	a0,a1,0x8
    80002840:	0017d793          	srli	a5,a5,0x1
    80002844:	0095d593          	srli	a1,a1,0x9
    80002848:	00080863          	beqz	a6,80002858 <core_bench_state+0x4b4>
    8000284c:	00e7c7b3          	xor	a5,a5,a4
    80002850:	03079793          	slli	a5,a5,0x30
    80002854:	0307d793          	srli	a5,a5,0x30
    80002858:	00f5c5b3          	xor	a1,a1,a5
    8000285c:	0015f593          	andi	a1,a1,1
    80002860:	00255813          	srli	a6,a0,0x2
    80002864:	0017d793          	srli	a5,a5,0x1
    80002868:	00058863          	beqz	a1,80002878 <core_bench_state+0x4d4>
    8000286c:	00e7c7b3          	xor	a5,a5,a4
    80002870:	03079793          	slli	a5,a5,0x30
    80002874:	0307d793          	srli	a5,a5,0x30
    80002878:	00f845b3          	xor	a1,a6,a5
    8000287c:	0015f593          	andi	a1,a1,1
    80002880:	00355813          	srli	a6,a0,0x3
    80002884:	0017d793          	srli	a5,a5,0x1
    80002888:	00058863          	beqz	a1,80002898 <core_bench_state+0x4f4>
    8000288c:	00e7c7b3          	xor	a5,a5,a4
    80002890:	03079793          	slli	a5,a5,0x30
    80002894:	0307d793          	srli	a5,a5,0x30
    80002898:	00f84833          	xor	a6,a6,a5
    8000289c:	00187813          	andi	a6,a6,1
    800028a0:	00455593          	srli	a1,a0,0x4
    800028a4:	0017d793          	srli	a5,a5,0x1
    800028a8:	00080863          	beqz	a6,800028b8 <core_bench_state+0x514>
    800028ac:	00e7c7b3          	xor	a5,a5,a4
    800028b0:	03079793          	slli	a5,a5,0x30
    800028b4:	0307d793          	srli	a5,a5,0x30
    800028b8:	00f5c5b3          	xor	a1,a1,a5
    800028bc:	0015f593          	andi	a1,a1,1
    800028c0:	00555813          	srli	a6,a0,0x5
    800028c4:	0017d793          	srli	a5,a5,0x1
    800028c8:	00058863          	beqz	a1,800028d8 <core_bench_state+0x534>
    800028cc:	00e7c7b3          	xor	a5,a5,a4
    800028d0:	03079793          	slli	a5,a5,0x30
    800028d4:	0307d793          	srli	a5,a5,0x30
    800028d8:	00f84833          	xor	a6,a6,a5
    800028dc:	00187813          	andi	a6,a6,1
    800028e0:	00655593          	srli	a1,a0,0x6
    800028e4:	0017d793          	srli	a5,a5,0x1
    800028e8:	00080863          	beqz	a6,800028f8 <core_bench_state+0x554>
    800028ec:	00e7c7b3          	xor	a5,a5,a4
    800028f0:	03079793          	slli	a5,a5,0x30
    800028f4:	0307d793          	srli	a5,a5,0x30
    800028f8:	00f5c5b3          	xor	a1,a1,a5
    800028fc:	0015f593          	andi	a1,a1,1
    80002900:	00755513          	srli	a0,a0,0x7
    80002904:	0017d793          	srli	a5,a5,0x1
    80002908:	00058863          	beqz	a1,80002918 <core_bench_state+0x574>
    8000290c:	00e7c7b3          	xor	a5,a5,a4
    80002910:	03079793          	slli	a5,a5,0x30
    80002914:	0307d793          	srli	a5,a5,0x30
    80002918:	00f54533          	xor	a0,a0,a5
    8000291c:	00157513          	andi	a0,a0,1
    80002920:	0017d793          	srli	a5,a5,0x1
    80002924:	00050863          	beqz	a0,80002934 <core_bench_state+0x590>
    80002928:	00e7c7b3          	xor	a5,a5,a4
    8000292c:	03079793          	slli	a5,a5,0x30
    80002930:	0307d793          	srli	a5,a5,0x30
    80002934:	00062583          	lw	a1,0(a2)
    80002938:	0017d413          	srli	s0,a5,0x1
    8000293c:	00f5c7b3          	xor	a5,a1,a5
    80002940:	0ff5f813          	zext.b	a6,a1
    80002944:	03059513          	slli	a0,a1,0x30
    80002948:	0017f793          	andi	a5,a5,1
    8000294c:	03055513          	srli	a0,a0,0x30
    80002950:	00185893          	srli	a7,a6,0x1
    80002954:	00078863          	beqz	a5,80002964 <core_bench_state+0x5c0>
    80002958:	00e44433          	xor	s0,s0,a4
    8000295c:	03041413          	slli	s0,s0,0x30
    80002960:	03045413          	srli	s0,s0,0x30
    80002964:	0088c7b3          	xor	a5,a7,s0
    80002968:	0017f793          	andi	a5,a5,1
    8000296c:	00285893          	srli	a7,a6,0x2
    80002970:	00145413          	srli	s0,s0,0x1
    80002974:	00078863          	beqz	a5,80002984 <core_bench_state+0x5e0>
    80002978:	00e44433          	xor	s0,s0,a4
    8000297c:	03041413          	slli	s0,s0,0x30
    80002980:	03045413          	srli	s0,s0,0x30
    80002984:	0088c8b3          	xor	a7,a7,s0
    80002988:	0018f893          	andi	a7,a7,1
    8000298c:	00385793          	srli	a5,a6,0x3
    80002990:	00145413          	srli	s0,s0,0x1
    80002994:	00088863          	beqz	a7,800029a4 <core_bench_state+0x600>
    80002998:	00e44433          	xor	s0,s0,a4
    8000299c:	03041413          	slli	s0,s0,0x30
    800029a0:	03045413          	srli	s0,s0,0x30
    800029a4:	0087c7b3          	xor	a5,a5,s0
    800029a8:	0017f793          	andi	a5,a5,1
    800029ac:	00485893          	srli	a7,a6,0x4
    800029b0:	00145413          	srli	s0,s0,0x1
    800029b4:	00078863          	beqz	a5,800029c4 <core_bench_state+0x620>
    800029b8:	00e44433          	xor	s0,s0,a4
    800029bc:	03041413          	slli	s0,s0,0x30
    800029c0:	03045413          	srli	s0,s0,0x30
    800029c4:	0088c8b3          	xor	a7,a7,s0
    800029c8:	0018f893          	andi	a7,a7,1
    800029cc:	00585793          	srli	a5,a6,0x5
    800029d0:	00145413          	srli	s0,s0,0x1
    800029d4:	00088863          	beqz	a7,800029e4 <core_bench_state+0x640>
    800029d8:	00e44433          	xor	s0,s0,a4
    800029dc:	03041413          	slli	s0,s0,0x30
    800029e0:	03045413          	srli	s0,s0,0x30
    800029e4:	0087c7b3          	xor	a5,a5,s0
    800029e8:	0017f793          	andi	a5,a5,1
    800029ec:	00685893          	srli	a7,a6,0x6
    800029f0:	00145413          	srli	s0,s0,0x1
    800029f4:	00078863          	beqz	a5,80002a04 <core_bench_state+0x660>
    800029f8:	00e44433          	xor	s0,s0,a4
    800029fc:	03041413          	slli	s0,s0,0x30
    80002a00:	03045413          	srli	s0,s0,0x30
    80002a04:	0088c8b3          	xor	a7,a7,s0
    80002a08:	0018f893          	andi	a7,a7,1
    80002a0c:	00785793          	srli	a5,a6,0x7
    80002a10:	00145413          	srli	s0,s0,0x1
    80002a14:	00088863          	beqz	a7,80002a24 <core_bench_state+0x680>
    80002a18:	00e44433          	xor	s0,s0,a4
    80002a1c:	03041413          	slli	s0,s0,0x30
    80002a20:	03045413          	srli	s0,s0,0x30
    80002a24:	00147813          	andi	a6,s0,1
    80002a28:	00145413          	srli	s0,s0,0x1
    80002a2c:	00f80863          	beq	a6,a5,80002a3c <core_bench_state+0x698>
    80002a30:	00e44433          	xor	s0,s0,a4
    80002a34:	03041413          	slli	s0,s0,0x30
    80002a38:	03045413          	srli	s0,s0,0x30
    80002a3c:	00855813          	srli	a6,a0,0x8
    80002a40:	00884833          	xor	a6,a6,s0
    80002a44:	00187813          	andi	a6,a6,1
    80002a48:	00855793          	srli	a5,a0,0x8
    80002a4c:	00145413          	srli	s0,s0,0x1
    80002a50:	00955513          	srli	a0,a0,0x9
    80002a54:	00080863          	beqz	a6,80002a64 <core_bench_state+0x6c0>
    80002a58:	00e44433          	xor	s0,s0,a4
    80002a5c:	03041413          	slli	s0,s0,0x30
    80002a60:	03045413          	srli	s0,s0,0x30
    80002a64:	00854533          	xor	a0,a0,s0
    80002a68:	00157513          	andi	a0,a0,1
    80002a6c:	0027d813          	srli	a6,a5,0x2
    80002a70:	00145413          	srli	s0,s0,0x1
    80002a74:	00050863          	beqz	a0,80002a84 <core_bench_state+0x6e0>
    80002a78:	00e44433          	xor	s0,s0,a4
    80002a7c:	03041413          	slli	s0,s0,0x30
    80002a80:	03045413          	srli	s0,s0,0x30
    80002a84:	00884533          	xor	a0,a6,s0
    80002a88:	00157513          	andi	a0,a0,1
    80002a8c:	0037d813          	srli	a6,a5,0x3
    80002a90:	00145413          	srli	s0,s0,0x1
    80002a94:	00050863          	beqz	a0,80002aa4 <core_bench_state+0x700>
    80002a98:	00e44433          	xor	s0,s0,a4
    80002a9c:	03041413          	slli	s0,s0,0x30
    80002aa0:	03045413          	srli	s0,s0,0x30
    80002aa4:	00884833          	xor	a6,a6,s0
    80002aa8:	00187813          	andi	a6,a6,1
    80002aac:	0047d513          	srli	a0,a5,0x4
    80002ab0:	00145413          	srli	s0,s0,0x1
    80002ab4:	00080863          	beqz	a6,80002ac4 <core_bench_state+0x720>
    80002ab8:	00e44433          	xor	s0,s0,a4
    80002abc:	03041413          	slli	s0,s0,0x30
    80002ac0:	03045413          	srli	s0,s0,0x30
    80002ac4:	00854533          	xor	a0,a0,s0
    80002ac8:	00157513          	andi	a0,a0,1
    80002acc:	0057d813          	srli	a6,a5,0x5
    80002ad0:	00145413          	srli	s0,s0,0x1
    80002ad4:	00050863          	beqz	a0,80002ae4 <core_bench_state+0x740>
    80002ad8:	00e44433          	xor	s0,s0,a4
    80002adc:	03041413          	slli	s0,s0,0x30
    80002ae0:	03045413          	srli	s0,s0,0x30
    80002ae4:	00884833          	xor	a6,a6,s0
    80002ae8:	00187813          	andi	a6,a6,1
    80002aec:	0067d513          	srli	a0,a5,0x6
    80002af0:	00145413          	srli	s0,s0,0x1
    80002af4:	00080863          	beqz	a6,80002b04 <core_bench_state+0x760>
    80002af8:	00e44433          	xor	s0,s0,a4
    80002afc:	03041413          	slli	s0,s0,0x30
    80002b00:	03045413          	srli	s0,s0,0x30
    80002b04:	00854533          	xor	a0,a0,s0
    80002b08:	00157513          	andi	a0,a0,1
    80002b0c:	0077d793          	srli	a5,a5,0x7
    80002b10:	00145413          	srli	s0,s0,0x1
    80002b14:	00050863          	beqz	a0,80002b24 <core_bench_state+0x780>
    80002b18:	00e44433          	xor	s0,s0,a4
    80002b1c:	03041413          	slli	s0,s0,0x30
    80002b20:	03045413          	srli	s0,s0,0x30
    80002b24:	0087c7b3          	xor	a5,a5,s0
    80002b28:	0017f793          	andi	a5,a5,1
    80002b2c:	00145413          	srli	s0,s0,0x1
    80002b30:	00078863          	beqz	a5,80002b40 <core_bench_state+0x79c>
    80002b34:	00e44433          	xor	s0,s0,a4
    80002b38:	03041413          	slli	s0,s0,0x30
    80002b3c:	03045413          	srli	s0,s0,0x30
    80002b40:	0105d79b          	srliw	a5,a1,0x10
    80002b44:	0087c533          	xor	a0,a5,s0
    80002b48:	00157513          	andi	a0,a0,1
    80002b4c:	0ff7f793          	zext.b	a5,a5
    80002b50:	0105d59b          	srliw	a1,a1,0x10
    80002b54:	0017d813          	srli	a6,a5,0x1
    80002b58:	00145413          	srli	s0,s0,0x1
    80002b5c:	00050863          	beqz	a0,80002b6c <core_bench_state+0x7c8>
    80002b60:	00e44433          	xor	s0,s0,a4
    80002b64:	03041413          	slli	s0,s0,0x30
    80002b68:	03045413          	srli	s0,s0,0x30
    80002b6c:	00884833          	xor	a6,a6,s0
    80002b70:	00187813          	andi	a6,a6,1
    80002b74:	0027d513          	srli	a0,a5,0x2
    80002b78:	00145413          	srli	s0,s0,0x1
    80002b7c:	00080863          	beqz	a6,80002b8c <core_bench_state+0x7e8>
    80002b80:	00e44433          	xor	s0,s0,a4
    80002b84:	03041413          	slli	s0,s0,0x30
    80002b88:	03045413          	srli	s0,s0,0x30
    80002b8c:	00854533          	xor	a0,a0,s0
    80002b90:	00157513          	andi	a0,a0,1
    80002b94:	0037d813          	srli	a6,a5,0x3
    80002b98:	00145413          	srli	s0,s0,0x1
    80002b9c:	00050863          	beqz	a0,80002bac <core_bench_state+0x808>
    80002ba0:	00e44433          	xor	s0,s0,a4
    80002ba4:	03041413          	slli	s0,s0,0x30
    80002ba8:	03045413          	srli	s0,s0,0x30
    80002bac:	00884833          	xor	a6,a6,s0
    80002bb0:	00187813          	andi	a6,a6,1
    80002bb4:	0047d513          	srli	a0,a5,0x4
    80002bb8:	00145413          	srli	s0,s0,0x1
    80002bbc:	00080863          	beqz	a6,80002bcc <core_bench_state+0x828>
    80002bc0:	00e44433          	xor	s0,s0,a4
    80002bc4:	03041413          	slli	s0,s0,0x30
    80002bc8:	03045413          	srli	s0,s0,0x30
    80002bcc:	00854533          	xor	a0,a0,s0
    80002bd0:	00157513          	andi	a0,a0,1
    80002bd4:	0057d813          	srli	a6,a5,0x5
    80002bd8:	00145413          	srli	s0,s0,0x1
    80002bdc:	00050863          	beqz	a0,80002bec <core_bench_state+0x848>
    80002be0:	00e44433          	xor	s0,s0,a4
    80002be4:	03041413          	slli	s0,s0,0x30
    80002be8:	03045413          	srli	s0,s0,0x30
    80002bec:	00884833          	xor	a6,a6,s0
    80002bf0:	00187813          	andi	a6,a6,1
    80002bf4:	0067d513          	srli	a0,a5,0x6
    80002bf8:	00145413          	srli	s0,s0,0x1
    80002bfc:	00080863          	beqz	a6,80002c0c <core_bench_state+0x868>
    80002c00:	00e44433          	xor	s0,s0,a4
    80002c04:	03041413          	slli	s0,s0,0x30
    80002c08:	03045413          	srli	s0,s0,0x30
    80002c0c:	00854533          	xor	a0,a0,s0
    80002c10:	00157513          	andi	a0,a0,1
    80002c14:	0077d793          	srli	a5,a5,0x7
    80002c18:	00145413          	srli	s0,s0,0x1
    80002c1c:	00050863          	beqz	a0,80002c2c <core_bench_state+0x888>
    80002c20:	00e44433          	xor	s0,s0,a4
    80002c24:	03041413          	slli	s0,s0,0x30
    80002c28:	03045413          	srli	s0,s0,0x30
    80002c2c:	00147513          	andi	a0,s0,1
    80002c30:	00145413          	srli	s0,s0,0x1
    80002c34:	00f50863          	beq	a0,a5,80002c44 <core_bench_state+0x8a0>
    80002c38:	00e44433          	xor	s0,s0,a4
    80002c3c:	03041413          	slli	s0,s0,0x30
    80002c40:	03045413          	srli	s0,s0,0x30
    80002c44:	0085d513          	srli	a0,a1,0x8
    80002c48:	00854533          	xor	a0,a0,s0
    80002c4c:	00157513          	andi	a0,a0,1
    80002c50:	0085d793          	srli	a5,a1,0x8
    80002c54:	00145413          	srli	s0,s0,0x1
    80002c58:	0095d593          	srli	a1,a1,0x9
    80002c5c:	00050863          	beqz	a0,80002c6c <core_bench_state+0x8c8>
    80002c60:	00e44433          	xor	s0,s0,a4
    80002c64:	03041413          	slli	s0,s0,0x30
    80002c68:	03045413          	srli	s0,s0,0x30
    80002c6c:	0085c5b3          	xor	a1,a1,s0
    80002c70:	0015f593          	andi	a1,a1,1
    80002c74:	0027d513          	srli	a0,a5,0x2
    80002c78:	00145413          	srli	s0,s0,0x1
    80002c7c:	00058863          	beqz	a1,80002c8c <core_bench_state+0x8e8>
    80002c80:	00e44433          	xor	s0,s0,a4
    80002c84:	03041413          	slli	s0,s0,0x30
    80002c88:	03045413          	srli	s0,s0,0x30
    80002c8c:	008545b3          	xor	a1,a0,s0
    80002c90:	0015f593          	andi	a1,a1,1
    80002c94:	0037d513          	srli	a0,a5,0x3
    80002c98:	00145413          	srli	s0,s0,0x1
    80002c9c:	00058863          	beqz	a1,80002cac <core_bench_state+0x908>
    80002ca0:	00e44433          	xor	s0,s0,a4
    80002ca4:	03041413          	slli	s0,s0,0x30
    80002ca8:	03045413          	srli	s0,s0,0x30
    80002cac:	00854533          	xor	a0,a0,s0
    80002cb0:	00157513          	andi	a0,a0,1
    80002cb4:	0047d593          	srli	a1,a5,0x4
    80002cb8:	00145413          	srli	s0,s0,0x1
    80002cbc:	00050863          	beqz	a0,80002ccc <core_bench_state+0x928>
    80002cc0:	00e44433          	xor	s0,s0,a4
    80002cc4:	03041413          	slli	s0,s0,0x30
    80002cc8:	03045413          	srli	s0,s0,0x30
    80002ccc:	0085c5b3          	xor	a1,a1,s0
    80002cd0:	0015f593          	andi	a1,a1,1
    80002cd4:	0057d513          	srli	a0,a5,0x5
    80002cd8:	00145413          	srli	s0,s0,0x1
    80002cdc:	00058863          	beqz	a1,80002cec <core_bench_state+0x948>
    80002ce0:	00e44433          	xor	s0,s0,a4
    80002ce4:	03041413          	slli	s0,s0,0x30
    80002ce8:	03045413          	srli	s0,s0,0x30
    80002cec:	00854533          	xor	a0,a0,s0
    80002cf0:	00157513          	andi	a0,a0,1
    80002cf4:	0067d593          	srli	a1,a5,0x6
    80002cf8:	00145413          	srli	s0,s0,0x1
    80002cfc:	00050863          	beqz	a0,80002d0c <core_bench_state+0x968>
    80002d00:	00e44433          	xor	s0,s0,a4
    80002d04:	03041413          	slli	s0,s0,0x30
    80002d08:	03045413          	srli	s0,s0,0x30
    80002d0c:	0085c5b3          	xor	a1,a1,s0
    80002d10:	0015f593          	andi	a1,a1,1
    80002d14:	0077d793          	srli	a5,a5,0x7
    80002d18:	00145413          	srli	s0,s0,0x1
    80002d1c:	00058863          	beqz	a1,80002d2c <core_bench_state+0x988>
    80002d20:	00e44433          	xor	s0,s0,a4
    80002d24:	03041413          	slli	s0,s0,0x30
    80002d28:	03045413          	srli	s0,s0,0x30
    80002d2c:	0087c7b3          	xor	a5,a5,s0
    80002d30:	0017f793          	andi	a5,a5,1
    80002d34:	00145413          	srli	s0,s0,0x1
    80002d38:	00078863          	beqz	a5,80002d48 <core_bench_state+0x9a4>
    80002d3c:	00e44433          	xor	s0,s0,a4
    80002d40:	03041413          	slli	s0,s0,0x30
    80002d44:	03045413          	srli	s0,s0,0x30
    80002d48:	00468693          	addi	a3,a3,4
    80002d4c:	00460613          	addi	a2,a2,4
    80002d50:	fcd49863          	bne	s1,a3,80002520 <core_bench_state+0x17c>
    80002d54:	09813083          	ld	ra,152(sp)
    80002d58:	00040513          	mv	a0,s0
    80002d5c:	09013403          	ld	s0,144(sp)
    80002d60:	08813483          	ld	s1,136(sp)
    80002d64:	08013903          	ld	s2,128(sp)
    80002d68:	07813983          	ld	s3,120(sp)
    80002d6c:	07013a03          	ld	s4,112(sp)
    80002d70:	06813a83          	ld	s5,104(sp)
    80002d74:	06013b03          	ld	s6,96(sp)
    80002d78:	05813b83          	ld	s7,88(sp)
    80002d7c:	0a010113          	addi	sp,sp,160
    80002d80:	00008067          	ret
    80002d84:	01390933          	add	s2,s2,s3
    80002d88:	01213423          	sd	s2,8(sp)
    80002d8c:	f7696263          	bltu	s2,s6,800024f0 <core_bench_state+0x14c>
    80002d90:	f80ff06f          	j	80002510 <core_bench_state+0x16c>
    80002d94:	02051b13          	slli	s6,a0,0x20
    80002d98:	020b5b13          	srli	s6,s6,0x20
    80002d9c:	01690b33          	add	s6,s2,s6
    80002da0:	03010493          	addi	s1,sp,48
    80002da4:	ed696063          	bltu	s2,s6,80002464 <core_bench_state+0xc0>
    80002da8:	f68ff06f          	j	80002510 <core_bench_state+0x16c>
    80002dac:	f0059263          	bnez	a1,800024b0 <core_bench_state+0x10c>
    80002db0:	f60ff06f          	j	80002510 <core_bench_state+0x16c>

0000000080002db4 <calc_func>:
    80002db4:	fd010113          	addi	sp,sp,-48
    80002db8:	00913c23          	sd	s1,24(sp)
    80002dbc:	00051483          	lh	s1,0(a0)
    80002dc0:	02113423          	sd	ra,40(sp)
    80002dc4:	02813023          	sd	s0,32(sp)
    80002dc8:	4074d79b          	sraiw	a5,s1,0x7
    80002dcc:	01213823          	sd	s2,16(sp)
    80002dd0:	01313423          	sd	s3,8(sp)
    80002dd4:	0017f793          	andi	a5,a5,1
    80002dd8:	02078263          	beqz	a5,80002dfc <calc_func+0x48>
    80002ddc:	02813083          	ld	ra,40(sp)
    80002de0:	02013403          	ld	s0,32(sp)
    80002de4:	01013903          	ld	s2,16(sp)
    80002de8:	00813983          	ld	s3,8(sp)
    80002dec:	07f4f513          	andi	a0,s1,127
    80002df0:	01813483          	ld	s1,24(sp)
    80002df4:	03010113          	addi	sp,sp,48
    80002df8:	00008067          	ret
    80002dfc:	4034d71b          	sraiw	a4,s1,0x3
    80002e00:	00f77713          	andi	a4,a4,15
    80002e04:	00471793          	slli	a5,a4,0x4
    80002e08:	0074f693          	andi	a3,s1,7
    80002e0c:	0605d403          	lhu	s0,96(a1)
    80002e10:	00050993          	mv	s3,a0
    80002e14:	00058913          	mv	s2,a1
    80002e18:	00e7e733          	or	a4,a5,a4
    80002e1c:	58068263          	beqz	a3,800033a0 <calc_func+0x5ec>
    80002e20:	00100793          	li	a5,1
    80002e24:	56f69663          	bne	a3,a5,80003390 <calc_func+0x5dc>
    80002e28:	0505b683          	ld	a3,80(a1)
    80002e2c:	0485b603          	ld	a2,72(a1)
    80002e30:	04092503          	lw	a0,64(s2)
    80002e34:	0585b583          	ld	a1,88(a1)
    80002e38:	f88fd0ef          	jal	ra,800005c0 <matrix_test>
    80002e3c:	00a445b3          	xor	a1,s0,a0
    80002e40:	0ff57693          	zext.b	a3,a0
    80002e44:	03051713          	slli	a4,a0,0x30
    80002e48:	0015f593          	andi	a1,a1,1
    80002e4c:	03075713          	srli	a4,a4,0x30
    80002e50:	0016d613          	srli	a2,a3,0x1
    80002e54:	00145793          	srli	a5,s0,0x1
    80002e58:	00058c63          	beqz	a1,80002e70 <calc_func+0xbc>
    80002e5c:	ffffa437          	lui	s0,0xffffa
    80002e60:	00140413          	addi	s0,s0,1 # ffffffffffffa001 <_pmem_end+0xffffffff77ffa001>
    80002e64:	0087c7b3          	xor	a5,a5,s0
    80002e68:	03079793          	slli	a5,a5,0x30
    80002e6c:	0307d793          	srli	a5,a5,0x30
    80002e70:	00c7c633          	xor	a2,a5,a2
    80002e74:	00167593          	andi	a1,a2,1
    80002e78:	0017d793          	srli	a5,a5,0x1
    80002e7c:	0026d613          	srli	a2,a3,0x2
    80002e80:	00058c63          	beqz	a1,80002e98 <calc_func+0xe4>
    80002e84:	ffffa5b7          	lui	a1,0xffffa
    80002e88:	00158593          	addi	a1,a1,1 # ffffffffffffa001 <_pmem_end+0xffffffff77ffa001>
    80002e8c:	00b7c7b3          	xor	a5,a5,a1
    80002e90:	03079793          	slli	a5,a5,0x30
    80002e94:	0307d793          	srli	a5,a5,0x30
    80002e98:	00c7c633          	xor	a2,a5,a2
    80002e9c:	00167613          	andi	a2,a2,1
    80002ea0:	0036d593          	srli	a1,a3,0x3
    80002ea4:	0017d793          	srli	a5,a5,0x1
    80002ea8:	00060c63          	beqz	a2,80002ec0 <calc_func+0x10c>
    80002eac:	ffffa637          	lui	a2,0xffffa
    80002eb0:	00160613          	addi	a2,a2,1 # ffffffffffffa001 <_pmem_end+0xffffffff77ffa001>
    80002eb4:	00c7c7b3          	xor	a5,a5,a2
    80002eb8:	03079793          	slli	a5,a5,0x30
    80002ebc:	0307d793          	srli	a5,a5,0x30
    80002ec0:	00b7c5b3          	xor	a1,a5,a1
    80002ec4:	0015f593          	andi	a1,a1,1
    80002ec8:	0046d613          	srli	a2,a3,0x4
    80002ecc:	0017d793          	srli	a5,a5,0x1
    80002ed0:	00058c63          	beqz	a1,80002ee8 <calc_func+0x134>
    80002ed4:	ffffa5b7          	lui	a1,0xffffa
    80002ed8:	00158593          	addi	a1,a1,1 # ffffffffffffa001 <_pmem_end+0xffffffff77ffa001>
    80002edc:	00b7c7b3          	xor	a5,a5,a1
    80002ee0:	03079793          	slli	a5,a5,0x30
    80002ee4:	0307d793          	srli	a5,a5,0x30
    80002ee8:	00c7c633          	xor	a2,a5,a2
    80002eec:	00167613          	andi	a2,a2,1
    80002ef0:	0056d593          	srli	a1,a3,0x5
    80002ef4:	0017d793          	srli	a5,a5,0x1
    80002ef8:	00060c63          	beqz	a2,80002f10 <calc_func+0x15c>
    80002efc:	ffffa637          	lui	a2,0xffffa
    80002f00:	00160613          	addi	a2,a2,1 # ffffffffffffa001 <_pmem_end+0xffffffff77ffa001>
    80002f04:	00c7c7b3          	xor	a5,a5,a2
    80002f08:	03079793          	slli	a5,a5,0x30
    80002f0c:	0307d793          	srli	a5,a5,0x30
    80002f10:	00b7c5b3          	xor	a1,a5,a1
    80002f14:	0015f593          	andi	a1,a1,1
    80002f18:	0066d613          	srli	a2,a3,0x6
    80002f1c:	0017d793          	srli	a5,a5,0x1
    80002f20:	00058c63          	beqz	a1,80002f38 <calc_func+0x184>
    80002f24:	ffffa5b7          	lui	a1,0xffffa
    80002f28:	00158593          	addi	a1,a1,1 # ffffffffffffa001 <_pmem_end+0xffffffff77ffa001>
    80002f2c:	00b7c7b3          	xor	a5,a5,a1
    80002f30:	03079793          	slli	a5,a5,0x30
    80002f34:	0307d793          	srli	a5,a5,0x30
    80002f38:	00c7c633          	xor	a2,a5,a2
    80002f3c:	00167613          	andi	a2,a2,1
    80002f40:	0076d693          	srli	a3,a3,0x7
    80002f44:	0017d793          	srli	a5,a5,0x1
    80002f48:	00060c63          	beqz	a2,80002f60 <calc_func+0x1ac>
    80002f4c:	ffffa637          	lui	a2,0xffffa
    80002f50:	00160613          	addi	a2,a2,1 # ffffffffffffa001 <_pmem_end+0xffffffff77ffa001>
    80002f54:	00c7c7b3          	xor	a5,a5,a2
    80002f58:	03079793          	slli	a5,a5,0x30
    80002f5c:	0307d793          	srli	a5,a5,0x30
    80002f60:	0017f613          	andi	a2,a5,1
    80002f64:	0017d793          	srli	a5,a5,0x1
    80002f68:	00d60c63          	beq	a2,a3,80002f80 <calc_func+0x1cc>
    80002f6c:	ffffa6b7          	lui	a3,0xffffa
    80002f70:	00168693          	addi	a3,a3,1 # ffffffffffffa001 <_pmem_end+0xffffffff77ffa001>
    80002f74:	00d7c7b3          	xor	a5,a5,a3
    80002f78:	03079793          	slli	a5,a5,0x30
    80002f7c:	0307d793          	srli	a5,a5,0x30
    80002f80:	00875593          	srli	a1,a4,0x8
    80002f84:	00b7c5b3          	xor	a1,a5,a1
    80002f88:	0015f593          	andi	a1,a1,1
    80002f8c:	00875613          	srli	a2,a4,0x8
    80002f90:	00975693          	srli	a3,a4,0x9
    80002f94:	0017d793          	srli	a5,a5,0x1
    80002f98:	00058c63          	beqz	a1,80002fb0 <calc_func+0x1fc>
    80002f9c:	ffffa737          	lui	a4,0xffffa
    80002fa0:	00170713          	addi	a4,a4,1 # ffffffffffffa001 <_pmem_end+0xffffffff77ffa001>
    80002fa4:	00e7c7b3          	xor	a5,a5,a4
    80002fa8:	03079793          	slli	a5,a5,0x30
    80002fac:	0307d793          	srli	a5,a5,0x30
    80002fb0:	00d7c6b3          	xor	a3,a5,a3
    80002fb4:	0016f693          	andi	a3,a3,1
    80002fb8:	00265713          	srli	a4,a2,0x2
    80002fbc:	0017d793          	srli	a5,a5,0x1
    80002fc0:	00068c63          	beqz	a3,80002fd8 <calc_func+0x224>
    80002fc4:	ffffa6b7          	lui	a3,0xffffa
    80002fc8:	00168693          	addi	a3,a3,1 # ffffffffffffa001 <_pmem_end+0xffffffff77ffa001>
    80002fcc:	00d7c7b3          	xor	a5,a5,a3
    80002fd0:	03079793          	slli	a5,a5,0x30
    80002fd4:	0307d793          	srli	a5,a5,0x30
    80002fd8:	00e7c6b3          	xor	a3,a5,a4
    80002fdc:	0016f693          	andi	a3,a3,1
    80002fe0:	00365713          	srli	a4,a2,0x3
    80002fe4:	0017d793          	srli	a5,a5,0x1
    80002fe8:	00068c63          	beqz	a3,80003000 <calc_func+0x24c>
    80002fec:	ffffa6b7          	lui	a3,0xffffa
    80002ff0:	00168693          	addi	a3,a3,1 # ffffffffffffa001 <_pmem_end+0xffffffff77ffa001>
    80002ff4:	00d7c7b3          	xor	a5,a5,a3
    80002ff8:	03079793          	slli	a5,a5,0x30
    80002ffc:	0307d793          	srli	a5,a5,0x30
    80003000:	00e7c733          	xor	a4,a5,a4
    80003004:	00177713          	andi	a4,a4,1
    80003008:	00465693          	srli	a3,a2,0x4
    8000300c:	0017d793          	srli	a5,a5,0x1
    80003010:	00070c63          	beqz	a4,80003028 <calc_func+0x274>
    80003014:	ffffa737          	lui	a4,0xffffa
    80003018:	00170713          	addi	a4,a4,1 # ffffffffffffa001 <_pmem_end+0xffffffff77ffa001>
    8000301c:	00e7c7b3          	xor	a5,a5,a4
    80003020:	03079793          	slli	a5,a5,0x30
    80003024:	0307d793          	srli	a5,a5,0x30
    80003028:	00d7c6b3          	xor	a3,a5,a3
    8000302c:	0016f693          	andi	a3,a3,1
    80003030:	00565713          	srli	a4,a2,0x5
    80003034:	0017d793          	srli	a5,a5,0x1
    80003038:	00068c63          	beqz	a3,80003050 <calc_func+0x29c>
    8000303c:	ffffa6b7          	lui	a3,0xffffa
    80003040:	00168693          	addi	a3,a3,1 # ffffffffffffa001 <_pmem_end+0xffffffff77ffa001>
    80003044:	00d7c7b3          	xor	a5,a5,a3
    80003048:	03079793          	slli	a5,a5,0x30
    8000304c:	0307d793          	srli	a5,a5,0x30
    80003050:	00e7c733          	xor	a4,a5,a4
    80003054:	00177713          	andi	a4,a4,1
    80003058:	00665693          	srli	a3,a2,0x6
    8000305c:	0017d793          	srli	a5,a5,0x1
    80003060:	00070c63          	beqz	a4,80003078 <calc_func+0x2c4>
    80003064:	ffffa737          	lui	a4,0xffffa
    80003068:	00170713          	addi	a4,a4,1 # ffffffffffffa001 <_pmem_end+0xffffffff77ffa001>
    8000306c:	00e7c7b3          	xor	a5,a5,a4
    80003070:	03079793          	slli	a5,a5,0x30
    80003074:	0307d793          	srli	a5,a5,0x30
    80003078:	00d7c6b3          	xor	a3,a5,a3
    8000307c:	0016f693          	andi	a3,a3,1
    80003080:	00765713          	srli	a4,a2,0x7
    80003084:	0017d793          	srli	a5,a5,0x1
    80003088:	00068c63          	beqz	a3,800030a0 <calc_func+0x2ec>
    8000308c:	ffffa6b7          	lui	a3,0xffffa
    80003090:	00168693          	addi	a3,a3,1 # ffffffffffffa001 <_pmem_end+0xffffffff77ffa001>
    80003094:	00d7c7b3          	xor	a5,a5,a3
    80003098:	03079793          	slli	a5,a5,0x30
    8000309c:	0307d793          	srli	a5,a5,0x30
    800030a0:	00f74733          	xor	a4,a4,a5
    800030a4:	00177713          	andi	a4,a4,1
    800030a8:	0017d513          	srli	a0,a5,0x1
    800030ac:	00070c63          	beqz	a4,800030c4 <calc_func+0x310>
    800030b0:	ffffa7b7          	lui	a5,0xffffa
    800030b4:	00178793          	addi	a5,a5,1 # ffffffffffffa001 <_pmem_end+0xffffffff77ffa001>
    800030b8:	00f547b3          	xor	a5,a0,a5
    800030bc:	03079513          	slli	a0,a5,0x30
    800030c0:	03055513          	srli	a0,a0,0x30
    800030c4:	06495783          	lhu	a5,100(s2)
    800030c8:	0105171b          	slliw	a4,a0,0x10
    800030cc:	06095403          	lhu	s0,96(s2)
    800030d0:	4107571b          	sraiw	a4,a4,0x10
    800030d4:	00079463          	bnez	a5,800030dc <calc_func+0x328>
    800030d8:	06a91223          	sh	a0,100(s2)
    800030dc:	008745b3          	xor	a1,a4,s0
    800030e0:	0ff77613          	zext.b	a2,a4
    800030e4:	0015f593          	andi	a1,a1,1
    800030e8:	00165693          	srli	a3,a2,0x1
    800030ec:	00145793          	srli	a5,s0,0x1
    800030f0:	00058c63          	beqz	a1,80003108 <calc_func+0x354>
    800030f4:	ffffa437          	lui	s0,0xffffa
    800030f8:	00140413          	addi	s0,s0,1 # ffffffffffffa001 <_pmem_end+0xffffffff77ffa001>
    800030fc:	0087c7b3          	xor	a5,a5,s0
    80003100:	03079793          	slli	a5,a5,0x30
    80003104:	0307d793          	srli	a5,a5,0x30
    80003108:	00f6c6b3          	xor	a3,a3,a5
    8000310c:	0016f593          	andi	a1,a3,1
    80003110:	0017d793          	srli	a5,a5,0x1
    80003114:	00265693          	srli	a3,a2,0x2
    80003118:	00058c63          	beqz	a1,80003130 <calc_func+0x37c>
    8000311c:	ffffa5b7          	lui	a1,0xffffa
    80003120:	00158593          	addi	a1,a1,1 # ffffffffffffa001 <_pmem_end+0xffffffff77ffa001>
    80003124:	00b7c7b3          	xor	a5,a5,a1
    80003128:	03079793          	slli	a5,a5,0x30
    8000312c:	0307d793          	srli	a5,a5,0x30
    80003130:	00f6c6b3          	xor	a3,a3,a5
    80003134:	0016f693          	andi	a3,a3,1
    80003138:	00365593          	srli	a1,a2,0x3
    8000313c:	0017d793          	srli	a5,a5,0x1
    80003140:	00068c63          	beqz	a3,80003158 <calc_func+0x3a4>
    80003144:	ffffa6b7          	lui	a3,0xffffa
    80003148:	00168693          	addi	a3,a3,1 # ffffffffffffa001 <_pmem_end+0xffffffff77ffa001>
    8000314c:	00d7c7b3          	xor	a5,a5,a3
    80003150:	03079793          	slli	a5,a5,0x30
    80003154:	0307d793          	srli	a5,a5,0x30
    80003158:	00f5c5b3          	xor	a1,a1,a5
    8000315c:	0015f593          	andi	a1,a1,1
    80003160:	00465693          	srli	a3,a2,0x4
    80003164:	0017d793          	srli	a5,a5,0x1
    80003168:	00058c63          	beqz	a1,80003180 <calc_func+0x3cc>
    8000316c:	ffffa5b7          	lui	a1,0xffffa
    80003170:	00158593          	addi	a1,a1,1 # ffffffffffffa001 <_pmem_end+0xffffffff77ffa001>
    80003174:	00b7c7b3          	xor	a5,a5,a1
    80003178:	03079793          	slli	a5,a5,0x30
    8000317c:	0307d793          	srli	a5,a5,0x30
    80003180:	00f6c6b3          	xor	a3,a3,a5
    80003184:	0016f693          	andi	a3,a3,1
    80003188:	00565593          	srli	a1,a2,0x5
    8000318c:	0017d793          	srli	a5,a5,0x1
    80003190:	00068c63          	beqz	a3,800031a8 <calc_func+0x3f4>
    80003194:	ffffa6b7          	lui	a3,0xffffa
    80003198:	00168693          	addi	a3,a3,1 # ffffffffffffa001 <_pmem_end+0xffffffff77ffa001>
    8000319c:	00d7c7b3          	xor	a5,a5,a3
    800031a0:	03079793          	slli	a5,a5,0x30
    800031a4:	0307d793          	srli	a5,a5,0x30
    800031a8:	00b7c5b3          	xor	a1,a5,a1
    800031ac:	0015f593          	andi	a1,a1,1
    800031b0:	00665693          	srli	a3,a2,0x6
    800031b4:	0017d793          	srli	a5,a5,0x1
    800031b8:	00058c63          	beqz	a1,800031d0 <calc_func+0x41c>
    800031bc:	ffffa5b7          	lui	a1,0xffffa
    800031c0:	00158593          	addi	a1,a1,1 # ffffffffffffa001 <_pmem_end+0xffffffff77ffa001>
    800031c4:	00b7c7b3          	xor	a5,a5,a1
    800031c8:	03079793          	slli	a5,a5,0x30
    800031cc:	0307d793          	srli	a5,a5,0x30
    800031d0:	00d7c6b3          	xor	a3,a5,a3
    800031d4:	0016f693          	andi	a3,a3,1
    800031d8:	00765613          	srli	a2,a2,0x7
    800031dc:	0017d793          	srli	a5,a5,0x1
    800031e0:	00068c63          	beqz	a3,800031f8 <calc_func+0x444>
    800031e4:	ffffa6b7          	lui	a3,0xffffa
    800031e8:	00168693          	addi	a3,a3,1 # ffffffffffffa001 <_pmem_end+0xffffffff77ffa001>
    800031ec:	00d7c7b3          	xor	a5,a5,a3
    800031f0:	03079793          	slli	a5,a5,0x30
    800031f4:	0307d793          	srli	a5,a5,0x30
    800031f8:	0017f693          	andi	a3,a5,1
    800031fc:	0017d793          	srli	a5,a5,0x1
    80003200:	00c68c63          	beq	a3,a2,80003218 <calc_func+0x464>
    80003204:	ffffa6b7          	lui	a3,0xffffa
    80003208:	00168693          	addi	a3,a3,1 # ffffffffffffa001 <_pmem_end+0xffffffff77ffa001>
    8000320c:	00d7c7b3          	xor	a5,a5,a3
    80003210:	03079793          	slli	a5,a5,0x30
    80003214:	0307d793          	srli	a5,a5,0x30
    80003218:	0085551b          	srliw	a0,a0,0x8
    8000321c:	00a7c633          	xor	a2,a5,a0
    80003220:	0ff57693          	zext.b	a3,a0
    80003224:	00167613          	andi	a2,a2,1
    80003228:	0016d593          	srli	a1,a3,0x1
    8000322c:	0017d793          	srli	a5,a5,0x1
    80003230:	00060c63          	beqz	a2,80003248 <calc_func+0x494>
    80003234:	ffffa637          	lui	a2,0xffffa
    80003238:	00160613          	addi	a2,a2,1 # ffffffffffffa001 <_pmem_end+0xffffffff77ffa001>
    8000323c:	00c7c7b3          	xor	a5,a5,a2
    80003240:	03079793          	slli	a5,a5,0x30
    80003244:	0307d793          	srli	a5,a5,0x30
    80003248:	00b7c5b3          	xor	a1,a5,a1
    8000324c:	0015f593          	andi	a1,a1,1
    80003250:	0026d613          	srli	a2,a3,0x2
    80003254:	0017d793          	srli	a5,a5,0x1
    80003258:	00058c63          	beqz	a1,80003270 <calc_func+0x4bc>
    8000325c:	ffffa5b7          	lui	a1,0xffffa
    80003260:	00158593          	addi	a1,a1,1 # ffffffffffffa001 <_pmem_end+0xffffffff77ffa001>
    80003264:	00b7c7b3          	xor	a5,a5,a1
    80003268:	03079793          	slli	a5,a5,0x30
    8000326c:	0307d793          	srli	a5,a5,0x30
    80003270:	00f64633          	xor	a2,a2,a5
    80003274:	00167613          	andi	a2,a2,1
    80003278:	0036d593          	srli	a1,a3,0x3
    8000327c:	0017d793          	srli	a5,a5,0x1
    80003280:	00060c63          	beqz	a2,80003298 <calc_func+0x4e4>
    80003284:	ffffa637          	lui	a2,0xffffa
    80003288:	00160613          	addi	a2,a2,1 # ffffffffffffa001 <_pmem_end+0xffffffff77ffa001>
    8000328c:	00c7c7b3          	xor	a5,a5,a2
    80003290:	03079793          	slli	a5,a5,0x30
    80003294:	0307d793          	srli	a5,a5,0x30
    80003298:	00f5c5b3          	xor	a1,a1,a5
    8000329c:	0015f593          	andi	a1,a1,1
    800032a0:	0046d613          	srli	a2,a3,0x4
    800032a4:	0017d793          	srli	a5,a5,0x1
    800032a8:	00058c63          	beqz	a1,800032c0 <calc_func+0x50c>
    800032ac:	ffffa5b7          	lui	a1,0xffffa
    800032b0:	00158593          	addi	a1,a1,1 # ffffffffffffa001 <_pmem_end+0xffffffff77ffa001>
    800032b4:	00b7c7b3          	xor	a5,a5,a1
    800032b8:	03079793          	slli	a5,a5,0x30
    800032bc:	0307d793          	srli	a5,a5,0x30
    800032c0:	00c7c633          	xor	a2,a5,a2
    800032c4:	00167613          	andi	a2,a2,1
    800032c8:	0056d593          	srli	a1,a3,0x5
    800032cc:	0017d793          	srli	a5,a5,0x1
    800032d0:	00060c63          	beqz	a2,800032e8 <calc_func+0x534>
    800032d4:	ffffa637          	lui	a2,0xffffa
    800032d8:	00160613          	addi	a2,a2,1 # ffffffffffffa001 <_pmem_end+0xffffffff77ffa001>
    800032dc:	00c7c7b3          	xor	a5,a5,a2
    800032e0:	03079793          	slli	a5,a5,0x30
    800032e4:	0307d793          	srli	a5,a5,0x30
    800032e8:	00b7c5b3          	xor	a1,a5,a1
    800032ec:	0015f593          	andi	a1,a1,1
    800032f0:	0066d613          	srli	a2,a3,0x6
    800032f4:	0017d793          	srli	a5,a5,0x1
    800032f8:	00058c63          	beqz	a1,80003310 <calc_func+0x55c>
    800032fc:	ffffa5b7          	lui	a1,0xffffa
    80003300:	00158593          	addi	a1,a1,1 # ffffffffffffa001 <_pmem_end+0xffffffff77ffa001>
    80003304:	00b7c7b3          	xor	a5,a5,a1
    80003308:	03079793          	slli	a5,a5,0x30
    8000330c:	0307d793          	srli	a5,a5,0x30
    80003310:	00c7c633          	xor	a2,a5,a2
    80003314:	00167613          	andi	a2,a2,1
    80003318:	0076d693          	srli	a3,a3,0x7
    8000331c:	0017d793          	srli	a5,a5,0x1
    80003320:	00060c63          	beqz	a2,80003338 <calc_func+0x584>
    80003324:	ffffa637          	lui	a2,0xffffa
    80003328:	00160613          	addi	a2,a2,1 # ffffffffffffa001 <_pmem_end+0xffffffff77ffa001>
    8000332c:	00c7c7b3          	xor	a5,a5,a2
    80003330:	03079793          	slli	a5,a5,0x30
    80003334:	0307d793          	srli	a5,a5,0x30
    80003338:	00f6c6b3          	xor	a3,a3,a5
    8000333c:	0016f693          	andi	a3,a3,1
    80003340:	0017d793          	srli	a5,a5,0x1
    80003344:	00068c63          	beqz	a3,8000335c <calc_func+0x5a8>
    80003348:	ffffa6b7          	lui	a3,0xffffa
    8000334c:	00168693          	addi	a3,a3,1 # ffffffffffffa001 <_pmem_end+0xffffffff77ffa001>
    80003350:	00d7c7b3          	xor	a5,a5,a3
    80003354:	03079793          	slli	a5,a5,0x30
    80003358:	0307d793          	srli	a5,a5,0x30
    8000335c:	07f77513          	andi	a0,a4,127
    80003360:	f004f493          	andi	s1,s1,-256
    80003364:	02813083          	ld	ra,40(sp)
    80003368:	02013403          	ld	s0,32(sp)
    8000336c:	009564b3          	or	s1,a0,s1
    80003370:	06f91023          	sh	a5,96(s2)
    80003374:	0804e493          	ori	s1,s1,128
    80003378:	00999023          	sh	s1,0(s3)
    8000337c:	01013903          	ld	s2,16(sp)
    80003380:	01813483          	ld	s1,24(sp)
    80003384:	00813983          	ld	s3,8(sp)
    80003388:	03010113          	addi	sp,sp,48
    8000338c:	00008067          	ret
    80003390:	03049513          	slli	a0,s1,0x30
    80003394:	03055513          	srli	a0,a0,0x30
    80003398:	00048713          	mv	a4,s1
    8000339c:	d41ff06f          	j	800030dc <calc_func+0x328>
    800033a0:	02200793          	li	a5,34
    800033a4:	00070813          	mv	a6,a4
    800033a8:	00f75463          	bge	a4,a5,800033b0 <calc_func+0x5fc>
    800033ac:	02200813          	li	a6,34
    800033b0:	00091603          	lh	a2,0(s2)
    800033b4:	00291683          	lh	a3,2(s2)
    800033b8:	02093583          	ld	a1,32(s2)
    800033bc:	02892503          	lw	a0,40(s2)
    800033c0:	00040793          	mv	a5,s0
    800033c4:	0ff87713          	zext.b	a4,a6
    800033c8:	fddfe0ef          	jal	ra,800023a4 <core_bench_state>
    800033cc:	06695603          	lhu	a2,102(s2)
    800033d0:	0105171b          	slliw	a4,a0,0x10
    800033d4:	06095403          	lhu	s0,96(s2)
    800033d8:	4107571b          	sraiw	a4,a4,0x10
    800033dc:	d00610e3          	bnez	a2,800030dc <calc_func+0x328>
    800033e0:	06a91323          	sh	a0,102(s2)
    800033e4:	cf9ff06f          	j	800030dc <calc_func+0x328>

00000000800033e8 <cmp_complex>:
    800033e8:	fc010113          	addi	sp,sp,-64
    800033ec:	03213023          	sd	s2,32(sp)
    800033f0:	00051903          	lh	s2,0(a0)
    800033f4:	02913423          	sd	s1,40(sp)
    800033f8:	01313c23          	sd	s3,24(sp)
    800033fc:	4079579b          	sraiw	a5,s2,0x7
    80003400:	01413823          	sd	s4,16(sp)
    80003404:	02113c23          	sd	ra,56(sp)
    80003408:	02813823          	sd	s0,48(sp)
    8000340c:	01513423          	sd	s5,8(sp)
    80003410:	0017f793          	andi	a5,a5,1
    80003414:	00058993          	mv	s3,a1
    80003418:	00060493          	mv	s1,a2
    8000341c:	07f97a13          	andi	s4,s2,127
    80003420:	2c079863          	bnez	a5,800036f0 <cmp_complex+0x308>
    80003424:	4039571b          	sraiw	a4,s2,0x3
    80003428:	00f77713          	andi	a4,a4,15
    8000342c:	00471693          	slli	a3,a4,0x4
    80003430:	00797793          	andi	a5,s2,7
    80003434:	06065403          	lhu	s0,96(a2)
    80003438:	00050a93          	mv	s5,a0
    8000343c:	00d76733          	or	a4,a4,a3
    80003440:	0a078ce3          	beqz	a5,80003cf8 <cmp_complex+0x910>
    80003444:	00100693          	li	a3,1
    80003448:	0ed78ce3          	beq	a5,a3,80003d40 <cmp_complex+0x958>
    8000344c:	03091513          	slli	a0,s2,0x30
    80003450:	03055513          	srli	a0,a0,0x30
    80003454:	00090a13          	mv	s4,s2
    80003458:	01444633          	xor	a2,s0,s4
    8000345c:	0ffa7693          	zext.b	a3,s4
    80003460:	00167613          	andi	a2,a2,1
    80003464:	0016d713          	srli	a4,a3,0x1
    80003468:	00145793          	srli	a5,s0,0x1
    8000346c:	00060c63          	beqz	a2,80003484 <cmp_complex+0x9c>
    80003470:	ffffa437          	lui	s0,0xffffa
    80003474:	00140413          	addi	s0,s0,1 # ffffffffffffa001 <_pmem_end+0xffffffff77ffa001>
    80003478:	0087c7b3          	xor	a5,a5,s0
    8000347c:	03079793          	slli	a5,a5,0x30
    80003480:	0307d793          	srli	a5,a5,0x30
    80003484:	00e7c733          	xor	a4,a5,a4
    80003488:	00177613          	andi	a2,a4,1
    8000348c:	0017d793          	srli	a5,a5,0x1
    80003490:	0026d713          	srli	a4,a3,0x2
    80003494:	00060c63          	beqz	a2,800034ac <cmp_complex+0xc4>
    80003498:	ffffa637          	lui	a2,0xffffa
    8000349c:	00160613          	addi	a2,a2,1 # ffffffffffffa001 <_pmem_end+0xffffffff77ffa001>
    800034a0:	00c7c7b3          	xor	a5,a5,a2
    800034a4:	03079793          	slli	a5,a5,0x30
    800034a8:	0307d793          	srli	a5,a5,0x30
    800034ac:	00e7c733          	xor	a4,a5,a4
    800034b0:	00177713          	andi	a4,a4,1
    800034b4:	0036d613          	srli	a2,a3,0x3
    800034b8:	0017d793          	srli	a5,a5,0x1
    800034bc:	00070c63          	beqz	a4,800034d4 <cmp_complex+0xec>
    800034c0:	ffffa737          	lui	a4,0xffffa
    800034c4:	00170713          	addi	a4,a4,1 # ffffffffffffa001 <_pmem_end+0xffffffff77ffa001>
    800034c8:	00e7c7b3          	xor	a5,a5,a4
    800034cc:	03079793          	slli	a5,a5,0x30
    800034d0:	0307d793          	srli	a5,a5,0x30
    800034d4:	00c7c633          	xor	a2,a5,a2
    800034d8:	00167613          	andi	a2,a2,1
    800034dc:	0046d713          	srli	a4,a3,0x4
    800034e0:	0017d793          	srli	a5,a5,0x1
    800034e4:	00060c63          	beqz	a2,800034fc <cmp_complex+0x114>
    800034e8:	ffffa637          	lui	a2,0xffffa
    800034ec:	00160613          	addi	a2,a2,1 # ffffffffffffa001 <_pmem_end+0xffffffff77ffa001>
    800034f0:	00c7c7b3          	xor	a5,a5,a2
    800034f4:	03079793          	slli	a5,a5,0x30
    800034f8:	0307d793          	srli	a5,a5,0x30
    800034fc:	00e7c733          	xor	a4,a5,a4
    80003500:	00177713          	andi	a4,a4,1
    80003504:	0056d613          	srli	a2,a3,0x5
    80003508:	0017d793          	srli	a5,a5,0x1
    8000350c:	00070c63          	beqz	a4,80003524 <cmp_complex+0x13c>
    80003510:	ffffa737          	lui	a4,0xffffa
    80003514:	00170713          	addi	a4,a4,1 # ffffffffffffa001 <_pmem_end+0xffffffff77ffa001>
    80003518:	00e7c7b3          	xor	a5,a5,a4
    8000351c:	03079793          	slli	a5,a5,0x30
    80003520:	0307d793          	srli	a5,a5,0x30
    80003524:	00c7c633          	xor	a2,a5,a2
    80003528:	00167613          	andi	a2,a2,1
    8000352c:	0066d713          	srli	a4,a3,0x6
    80003530:	0017d793          	srli	a5,a5,0x1
    80003534:	00060c63          	beqz	a2,8000354c <cmp_complex+0x164>
    80003538:	ffffa637          	lui	a2,0xffffa
    8000353c:	00160613          	addi	a2,a2,1 # ffffffffffffa001 <_pmem_end+0xffffffff77ffa001>
    80003540:	00c7c7b3          	xor	a5,a5,a2
    80003544:	03079793          	slli	a5,a5,0x30
    80003548:	0307d793          	srli	a5,a5,0x30
    8000354c:	00e7c733          	xor	a4,a5,a4
    80003550:	00177713          	andi	a4,a4,1
    80003554:	0076d693          	srli	a3,a3,0x7
    80003558:	0017d793          	srli	a5,a5,0x1
    8000355c:	00070c63          	beqz	a4,80003574 <cmp_complex+0x18c>
    80003560:	ffffa737          	lui	a4,0xffffa
    80003564:	00170713          	addi	a4,a4,1 # ffffffffffffa001 <_pmem_end+0xffffffff77ffa001>
    80003568:	00e7c7b3          	xor	a5,a5,a4
    8000356c:	03079793          	slli	a5,a5,0x30
    80003570:	0307d793          	srli	a5,a5,0x30
    80003574:	0017f713          	andi	a4,a5,1
    80003578:	0017d793          	srli	a5,a5,0x1
    8000357c:	00d70c63          	beq	a4,a3,80003594 <cmp_complex+0x1ac>
    80003580:	ffffa737          	lui	a4,0xffffa
    80003584:	00170713          	addi	a4,a4,1 # ffffffffffffa001 <_pmem_end+0xffffffff77ffa001>
    80003588:	00e7c7b3          	xor	a5,a5,a4
    8000358c:	03079793          	slli	a5,a5,0x30
    80003590:	0307d793          	srli	a5,a5,0x30
    80003594:	0085551b          	srliw	a0,a0,0x8
    80003598:	00a7c6b3          	xor	a3,a5,a0
    8000359c:	0ff57713          	zext.b	a4,a0
    800035a0:	0016f693          	andi	a3,a3,1
    800035a4:	00175613          	srli	a2,a4,0x1
    800035a8:	0017d793          	srli	a5,a5,0x1
    800035ac:	00068c63          	beqz	a3,800035c4 <cmp_complex+0x1dc>
    800035b0:	ffffa6b7          	lui	a3,0xffffa
    800035b4:	00168693          	addi	a3,a3,1 # ffffffffffffa001 <_pmem_end+0xffffffff77ffa001>
    800035b8:	00d7c7b3          	xor	a5,a5,a3
    800035bc:	03079793          	slli	a5,a5,0x30
    800035c0:	0307d793          	srli	a5,a5,0x30
    800035c4:	00c7c633          	xor	a2,a5,a2
    800035c8:	00167613          	andi	a2,a2,1
    800035cc:	00275693          	srli	a3,a4,0x2
    800035d0:	0017d793          	srli	a5,a5,0x1
    800035d4:	00060c63          	beqz	a2,800035ec <cmp_complex+0x204>
    800035d8:	ffffa637          	lui	a2,0xffffa
    800035dc:	00160613          	addi	a2,a2,1 # ffffffffffffa001 <_pmem_end+0xffffffff77ffa001>
    800035e0:	00c7c7b3          	xor	a5,a5,a2
    800035e4:	03079793          	slli	a5,a5,0x30
    800035e8:	0307d793          	srli	a5,a5,0x30
    800035ec:	00d7c6b3          	xor	a3,a5,a3
    800035f0:	0016f693          	andi	a3,a3,1
    800035f4:	00375613          	srli	a2,a4,0x3
    800035f8:	0017d793          	srli	a5,a5,0x1
    800035fc:	00068c63          	beqz	a3,80003614 <cmp_complex+0x22c>
    80003600:	ffffa6b7          	lui	a3,0xffffa
    80003604:	00168693          	addi	a3,a3,1 # ffffffffffffa001 <_pmem_end+0xffffffff77ffa001>
    80003608:	00d7c7b3          	xor	a5,a5,a3
    8000360c:	03079793          	slli	a5,a5,0x30
    80003610:	0307d793          	srli	a5,a5,0x30
    80003614:	00c7c633          	xor	a2,a5,a2
    80003618:	00167613          	andi	a2,a2,1
    8000361c:	00475693          	srli	a3,a4,0x4
    80003620:	0017d793          	srli	a5,a5,0x1
    80003624:	00060c63          	beqz	a2,8000363c <cmp_complex+0x254>
    80003628:	ffffa637          	lui	a2,0xffffa
    8000362c:	00160613          	addi	a2,a2,1 # ffffffffffffa001 <_pmem_end+0xffffffff77ffa001>
    80003630:	00c7c7b3          	xor	a5,a5,a2
    80003634:	03079793          	slli	a5,a5,0x30
    80003638:	0307d793          	srli	a5,a5,0x30
    8000363c:	00d7c6b3          	xor	a3,a5,a3
    80003640:	0016f693          	andi	a3,a3,1
    80003644:	00575613          	srli	a2,a4,0x5
    80003648:	0017d793          	srli	a5,a5,0x1
    8000364c:	00068c63          	beqz	a3,80003664 <cmp_complex+0x27c>
    80003650:	ffffa6b7          	lui	a3,0xffffa
    80003654:	00168693          	addi	a3,a3,1 # ffffffffffffa001 <_pmem_end+0xffffffff77ffa001>
    80003658:	00d7c7b3          	xor	a5,a5,a3
    8000365c:	03079793          	slli	a5,a5,0x30
    80003660:	0307d793          	srli	a5,a5,0x30
    80003664:	00c7c633          	xor	a2,a5,a2
    80003668:	00167613          	andi	a2,a2,1
    8000366c:	00675693          	srli	a3,a4,0x6
    80003670:	0017d793          	srli	a5,a5,0x1
    80003674:	00060c63          	beqz	a2,8000368c <cmp_complex+0x2a4>
    80003678:	ffffa637          	lui	a2,0xffffa
    8000367c:	00160613          	addi	a2,a2,1 # ffffffffffffa001 <_pmem_end+0xffffffff77ffa001>
    80003680:	00c7c7b3          	xor	a5,a5,a2
    80003684:	03079793          	slli	a5,a5,0x30
    80003688:	0307d793          	srli	a5,a5,0x30
    8000368c:	00d7c6b3          	xor	a3,a5,a3
    80003690:	0016f693          	andi	a3,a3,1
    80003694:	00775713          	srli	a4,a4,0x7
    80003698:	0017d793          	srli	a5,a5,0x1
    8000369c:	00068c63          	beqz	a3,800036b4 <cmp_complex+0x2cc>
    800036a0:	ffffa6b7          	lui	a3,0xffffa
    800036a4:	00168693          	addi	a3,a3,1 # ffffffffffffa001 <_pmem_end+0xffffffff77ffa001>
    800036a8:	00d7c7b3          	xor	a5,a5,a3
    800036ac:	03079793          	slli	a5,a5,0x30
    800036b0:	0307d793          	srli	a5,a5,0x30
    800036b4:	00f74733          	xor	a4,a4,a5
    800036b8:	00177713          	andi	a4,a4,1
    800036bc:	0017d793          	srli	a5,a5,0x1
    800036c0:	00070c63          	beqz	a4,800036d8 <cmp_complex+0x2f0>
    800036c4:	ffffa737          	lui	a4,0xffffa
    800036c8:	00170713          	addi	a4,a4,1 # ffffffffffffa001 <_pmem_end+0xffffffff77ffa001>
    800036cc:	00e7c7b3          	xor	a5,a5,a4
    800036d0:	03079793          	slli	a5,a5,0x30
    800036d4:	0307d793          	srli	a5,a5,0x30
    800036d8:	07fa7a13          	andi	s4,s4,127
    800036dc:	f0097913          	andi	s2,s2,-256
    800036e0:	012a6933          	or	s2,s4,s2
    800036e4:	06f49023          	sh	a5,96(s1)
    800036e8:	08096913          	ori	s2,s2,128
    800036ec:	012a9023          	sh	s2,0(s5)
    800036f0:	00099903          	lh	s2,0(s3)
    800036f4:	4079579b          	sraiw	a5,s2,0x7
    800036f8:	0017f793          	andi	a5,a5,1
    800036fc:	07f97513          	andi	a0,s2,127
    80003700:	56079a63          	bnez	a5,80003c74 <cmp_complex+0x88c>
    80003704:	4039571b          	sraiw	a4,s2,0x3
    80003708:	00f77713          	andi	a4,a4,15
    8000370c:	00471693          	slli	a3,a4,0x4
    80003710:	00797793          	andi	a5,s2,7
    80003714:	0604d403          	lhu	s0,96(s1)
    80003718:	00d76733          	or	a4,a4,a3
    8000371c:	58078863          	beqz	a5,80003cac <cmp_complex+0x8c4>
    80003720:	00100693          	li	a3,1
    80003724:	56d79c63          	bne	a5,a3,80003c9c <cmp_complex+0x8b4>
    80003728:	0504b683          	ld	a3,80(s1)
    8000372c:	0484b603          	ld	a2,72(s1)
    80003730:	0584b583          	ld	a1,88(s1)
    80003734:	0404a503          	lw	a0,64(s1)
    80003738:	e89fc0ef          	jal	ra,800005c0 <matrix_test>
    8000373c:	008545b3          	xor	a1,a0,s0
    80003740:	0ff57693          	zext.b	a3,a0
    80003744:	03051713          	slli	a4,a0,0x30
    80003748:	0015f593          	andi	a1,a1,1
    8000374c:	03075713          	srli	a4,a4,0x30
    80003750:	0016d613          	srli	a2,a3,0x1
    80003754:	00145793          	srli	a5,s0,0x1
    80003758:	00058c63          	beqz	a1,80003770 <cmp_complex+0x388>
    8000375c:	ffffa437          	lui	s0,0xffffa
    80003760:	00140413          	addi	s0,s0,1 # ffffffffffffa001 <_pmem_end+0xffffffff77ffa001>
    80003764:	0087c7b3          	xor	a5,a5,s0
    80003768:	03079793          	slli	a5,a5,0x30
    8000376c:	0307d793          	srli	a5,a5,0x30
    80003770:	00f64633          	xor	a2,a2,a5
    80003774:	00167593          	andi	a1,a2,1
    80003778:	0017d793          	srli	a5,a5,0x1
    8000377c:	0026d613          	srli	a2,a3,0x2
    80003780:	00058c63          	beqz	a1,80003798 <cmp_complex+0x3b0>
    80003784:	ffffa5b7          	lui	a1,0xffffa
    80003788:	00158593          	addi	a1,a1,1 # ffffffffffffa001 <_pmem_end+0xffffffff77ffa001>
    8000378c:	00b7c7b3          	xor	a5,a5,a1
    80003790:	03079793          	slli	a5,a5,0x30
    80003794:	0307d793          	srli	a5,a5,0x30
    80003798:	00f64633          	xor	a2,a2,a5
    8000379c:	00167613          	andi	a2,a2,1
    800037a0:	0036d593          	srli	a1,a3,0x3
    800037a4:	0017d793          	srli	a5,a5,0x1
    800037a8:	00060c63          	beqz	a2,800037c0 <cmp_complex+0x3d8>
    800037ac:	ffffa637          	lui	a2,0xffffa
    800037b0:	00160613          	addi	a2,a2,1 # ffffffffffffa001 <_pmem_end+0xffffffff77ffa001>
    800037b4:	00c7c7b3          	xor	a5,a5,a2
    800037b8:	03079793          	slli	a5,a5,0x30
    800037bc:	0307d793          	srli	a5,a5,0x30
    800037c0:	00f5c5b3          	xor	a1,a1,a5
    800037c4:	0015f593          	andi	a1,a1,1
    800037c8:	0046d613          	srli	a2,a3,0x4
    800037cc:	0017d793          	srli	a5,a5,0x1
    800037d0:	00058c63          	beqz	a1,800037e8 <cmp_complex+0x400>
    800037d4:	ffffa5b7          	lui	a1,0xffffa
    800037d8:	00158593          	addi	a1,a1,1 # ffffffffffffa001 <_pmem_end+0xffffffff77ffa001>
    800037dc:	00b7c7b3          	xor	a5,a5,a1
    800037e0:	03079793          	slli	a5,a5,0x30
    800037e4:	0307d793          	srli	a5,a5,0x30
    800037e8:	00f64633          	xor	a2,a2,a5
    800037ec:	00167613          	andi	a2,a2,1
    800037f0:	0056d593          	srli	a1,a3,0x5
    800037f4:	0017d793          	srli	a5,a5,0x1
    800037f8:	00060c63          	beqz	a2,80003810 <cmp_complex+0x428>
    800037fc:	ffffa637          	lui	a2,0xffffa
    80003800:	00160613          	addi	a2,a2,1 # ffffffffffffa001 <_pmem_end+0xffffffff77ffa001>
    80003804:	00c7c7b3          	xor	a5,a5,a2
    80003808:	03079793          	slli	a5,a5,0x30
    8000380c:	0307d793          	srli	a5,a5,0x30
    80003810:	00b7c5b3          	xor	a1,a5,a1
    80003814:	0015f593          	andi	a1,a1,1
    80003818:	0066d613          	srli	a2,a3,0x6
    8000381c:	0017d793          	srli	a5,a5,0x1
    80003820:	00058c63          	beqz	a1,80003838 <cmp_complex+0x450>
    80003824:	ffffa5b7          	lui	a1,0xffffa
    80003828:	00158593          	addi	a1,a1,1 # ffffffffffffa001 <_pmem_end+0xffffffff77ffa001>
    8000382c:	00b7c7b3          	xor	a5,a5,a1
    80003830:	03079793          	slli	a5,a5,0x30
    80003834:	0307d793          	srli	a5,a5,0x30
    80003838:	00c7c633          	xor	a2,a5,a2
    8000383c:	00167613          	andi	a2,a2,1
    80003840:	0076d693          	srli	a3,a3,0x7
    80003844:	0017d793          	srli	a5,a5,0x1
    80003848:	00060c63          	beqz	a2,80003860 <cmp_complex+0x478>
    8000384c:	ffffa637          	lui	a2,0xffffa
    80003850:	00160613          	addi	a2,a2,1 # ffffffffffffa001 <_pmem_end+0xffffffff77ffa001>
    80003854:	00c7c7b3          	xor	a5,a5,a2
    80003858:	03079793          	slli	a5,a5,0x30
    8000385c:	0307d793          	srli	a5,a5,0x30
    80003860:	0017f613          	andi	a2,a5,1
    80003864:	0017d793          	srli	a5,a5,0x1
    80003868:	00d60c63          	beq	a2,a3,80003880 <cmp_complex+0x498>
    8000386c:	ffffa6b7          	lui	a3,0xffffa
    80003870:	00168693          	addi	a3,a3,1 # ffffffffffffa001 <_pmem_end+0xffffffff77ffa001>
    80003874:	00d7c7b3          	xor	a5,a5,a3
    80003878:	03079793          	slli	a5,a5,0x30
    8000387c:	0307d793          	srli	a5,a5,0x30
    80003880:	00875593          	srli	a1,a4,0x8
    80003884:	00f5c5b3          	xor	a1,a1,a5
    80003888:	0015f593          	andi	a1,a1,1
    8000388c:	00875613          	srli	a2,a4,0x8
    80003890:	00975693          	srli	a3,a4,0x9
    80003894:	0017d793          	srli	a5,a5,0x1
    80003898:	00058c63          	beqz	a1,800038b0 <cmp_complex+0x4c8>
    8000389c:	ffffa737          	lui	a4,0xffffa
    800038a0:	00170713          	addi	a4,a4,1 # ffffffffffffa001 <_pmem_end+0xffffffff77ffa001>
    800038a4:	00e7c7b3          	xor	a5,a5,a4
    800038a8:	03079793          	slli	a5,a5,0x30
    800038ac:	0307d793          	srli	a5,a5,0x30
    800038b0:	00f6c6b3          	xor	a3,a3,a5
    800038b4:	0016f693          	andi	a3,a3,1
    800038b8:	00265713          	srli	a4,a2,0x2
    800038bc:	0017d793          	srli	a5,a5,0x1
    800038c0:	00068c63          	beqz	a3,800038d8 <cmp_complex+0x4f0>
    800038c4:	ffffa6b7          	lui	a3,0xffffa
    800038c8:	00168693          	addi	a3,a3,1 # ffffffffffffa001 <_pmem_end+0xffffffff77ffa001>
    800038cc:	00d7c7b3          	xor	a5,a5,a3
    800038d0:	03079793          	slli	a5,a5,0x30
    800038d4:	0307d793          	srli	a5,a5,0x30
    800038d8:	00f746b3          	xor	a3,a4,a5
    800038dc:	0016f693          	andi	a3,a3,1
    800038e0:	00365713          	srli	a4,a2,0x3
    800038e4:	0017d793          	srli	a5,a5,0x1
    800038e8:	00068c63          	beqz	a3,80003900 <cmp_complex+0x518>
    800038ec:	ffffa6b7          	lui	a3,0xffffa
    800038f0:	00168693          	addi	a3,a3,1 # ffffffffffffa001 <_pmem_end+0xffffffff77ffa001>
    800038f4:	00d7c7b3          	xor	a5,a5,a3
    800038f8:	03079793          	slli	a5,a5,0x30
    800038fc:	0307d793          	srli	a5,a5,0x30
    80003900:	00f74733          	xor	a4,a4,a5
    80003904:	00177713          	andi	a4,a4,1
    80003908:	00465693          	srli	a3,a2,0x4
    8000390c:	0017d793          	srli	a5,a5,0x1
    80003910:	00070c63          	beqz	a4,80003928 <cmp_complex+0x540>
    80003914:	ffffa737          	lui	a4,0xffffa
    80003918:	00170713          	addi	a4,a4,1 # ffffffffffffa001 <_pmem_end+0xffffffff77ffa001>
    8000391c:	00e7c7b3          	xor	a5,a5,a4
    80003920:	03079793          	slli	a5,a5,0x30
    80003924:	0307d793          	srli	a5,a5,0x30
    80003928:	00f6c6b3          	xor	a3,a3,a5
    8000392c:	0016f693          	andi	a3,a3,1
    80003930:	00565713          	srli	a4,a2,0x5
    80003934:	0017d793          	srli	a5,a5,0x1
    80003938:	00068c63          	beqz	a3,80003950 <cmp_complex+0x568>
    8000393c:	ffffa6b7          	lui	a3,0xffffa
    80003940:	00168693          	addi	a3,a3,1 # ffffffffffffa001 <_pmem_end+0xffffffff77ffa001>
    80003944:	00d7c7b3          	xor	a5,a5,a3
    80003948:	03079793          	slli	a5,a5,0x30
    8000394c:	0307d793          	srli	a5,a5,0x30
    80003950:	00f74733          	xor	a4,a4,a5
    80003954:	00177713          	andi	a4,a4,1
    80003958:	00665693          	srli	a3,a2,0x6
    8000395c:	0017d793          	srli	a5,a5,0x1
    80003960:	00070c63          	beqz	a4,80003978 <cmp_complex+0x590>
    80003964:	ffffa737          	lui	a4,0xffffa
    80003968:	00170713          	addi	a4,a4,1 # ffffffffffffa001 <_pmem_end+0xffffffff77ffa001>
    8000396c:	00e7c7b3          	xor	a5,a5,a4
    80003970:	03079793          	slli	a5,a5,0x30
    80003974:	0307d793          	srli	a5,a5,0x30
    80003978:	00f6c6b3          	xor	a3,a3,a5
    8000397c:	0016f693          	andi	a3,a3,1
    80003980:	00765713          	srli	a4,a2,0x7
    80003984:	0017d793          	srli	a5,a5,0x1
    80003988:	00068c63          	beqz	a3,800039a0 <cmp_complex+0x5b8>
    8000398c:	ffffa6b7          	lui	a3,0xffffa
    80003990:	00168693          	addi	a3,a3,1 # ffffffffffffa001 <_pmem_end+0xffffffff77ffa001>
    80003994:	00d7c7b3          	xor	a5,a5,a3
    80003998:	03079793          	slli	a5,a5,0x30
    8000399c:	0307d793          	srli	a5,a5,0x30
    800039a0:	00f74733          	xor	a4,a4,a5
    800039a4:	00177713          	andi	a4,a4,1
    800039a8:	0017d693          	srli	a3,a5,0x1
    800039ac:	00070c63          	beqz	a4,800039c4 <cmp_complex+0x5dc>
    800039b0:	ffffa7b7          	lui	a5,0xffffa
    800039b4:	00178793          	addi	a5,a5,1 # ffffffffffffa001 <_pmem_end+0xffffffff77ffa001>
    800039b8:	00f6c6b3          	xor	a3,a3,a5
    800039bc:	03069693          	slli	a3,a3,0x30
    800039c0:	0306d693          	srli	a3,a3,0x30
    800039c4:	0644d783          	lhu	a5,100(s1)
    800039c8:	0106971b          	slliw	a4,a3,0x10
    800039cc:	0604d403          	lhu	s0,96(s1)
    800039d0:	4107571b          	sraiw	a4,a4,0x10
    800039d4:	00079463          	bnez	a5,800039dc <cmp_complex+0x5f4>
    800039d8:	06d49223          	sh	a3,100(s1)
    800039dc:	00874533          	xor	a0,a4,s0
    800039e0:	0ff77613          	zext.b	a2,a4
    800039e4:	00157513          	andi	a0,a0,1
    800039e8:	00165593          	srli	a1,a2,0x1
    800039ec:	00145793          	srli	a5,s0,0x1
    800039f0:	00050c63          	beqz	a0,80003a08 <cmp_complex+0x620>
    800039f4:	ffffa437          	lui	s0,0xffffa
    800039f8:	00140413          	addi	s0,s0,1 # ffffffffffffa001 <_pmem_end+0xffffffff77ffa001>
    800039fc:	0087c7b3          	xor	a5,a5,s0
    80003a00:	03079793          	slli	a5,a5,0x30
    80003a04:	0307d793          	srli	a5,a5,0x30
    80003a08:	00b7c5b3          	xor	a1,a5,a1
    80003a0c:	0015f513          	andi	a0,a1,1
    80003a10:	0017d793          	srli	a5,a5,0x1
    80003a14:	00265593          	srli	a1,a2,0x2
    80003a18:	00050c63          	beqz	a0,80003a30 <cmp_complex+0x648>
    80003a1c:	ffffa537          	lui	a0,0xffffa
    80003a20:	00150513          	addi	a0,a0,1 # ffffffffffffa001 <_pmem_end+0xffffffff77ffa001>
    80003a24:	00a7c7b3          	xor	a5,a5,a0
    80003a28:	03079793          	slli	a5,a5,0x30
    80003a2c:	0307d793          	srli	a5,a5,0x30
    80003a30:	00b7c5b3          	xor	a1,a5,a1
    80003a34:	0015f593          	andi	a1,a1,1
    80003a38:	00365513          	srli	a0,a2,0x3
    80003a3c:	0017d793          	srli	a5,a5,0x1
    80003a40:	00058c63          	beqz	a1,80003a58 <cmp_complex+0x670>
    80003a44:	ffffa5b7          	lui	a1,0xffffa
    80003a48:	00158593          	addi	a1,a1,1 # ffffffffffffa001 <_pmem_end+0xffffffff77ffa001>
    80003a4c:	00b7c7b3          	xor	a5,a5,a1
    80003a50:	03079793          	slli	a5,a5,0x30
    80003a54:	0307d793          	srli	a5,a5,0x30
    80003a58:	00a7c533          	xor	a0,a5,a0
    80003a5c:	00157513          	andi	a0,a0,1
    80003a60:	00465593          	srli	a1,a2,0x4
    80003a64:	0017d793          	srli	a5,a5,0x1
    80003a68:	00050c63          	beqz	a0,80003a80 <cmp_complex+0x698>
    80003a6c:	ffffa537          	lui	a0,0xffffa
    80003a70:	00150513          	addi	a0,a0,1 # ffffffffffffa001 <_pmem_end+0xffffffff77ffa001>
    80003a74:	00a7c7b3          	xor	a5,a5,a0
    80003a78:	03079793          	slli	a5,a5,0x30
    80003a7c:	0307d793          	srli	a5,a5,0x30
    80003a80:	00b7c5b3          	xor	a1,a5,a1
    80003a84:	0015f593          	andi	a1,a1,1
    80003a88:	00565513          	srli	a0,a2,0x5
    80003a8c:	0017d793          	srli	a5,a5,0x1
    80003a90:	00058c63          	beqz	a1,80003aa8 <cmp_complex+0x6c0>
    80003a94:	ffffa5b7          	lui	a1,0xffffa
    80003a98:	00158593          	addi	a1,a1,1 # ffffffffffffa001 <_pmem_end+0xffffffff77ffa001>
    80003a9c:	00b7c7b3          	xor	a5,a5,a1
    80003aa0:	03079793          	slli	a5,a5,0x30
    80003aa4:	0307d793          	srli	a5,a5,0x30
    80003aa8:	00a7c533          	xor	a0,a5,a0
    80003aac:	00157513          	andi	a0,a0,1
    80003ab0:	00665593          	srli	a1,a2,0x6
    80003ab4:	0017d793          	srli	a5,a5,0x1
    80003ab8:	00050c63          	beqz	a0,80003ad0 <cmp_complex+0x6e8>
    80003abc:	ffffa537          	lui	a0,0xffffa
    80003ac0:	00150513          	addi	a0,a0,1 # ffffffffffffa001 <_pmem_end+0xffffffff77ffa001>
    80003ac4:	00a7c7b3          	xor	a5,a5,a0
    80003ac8:	03079793          	slli	a5,a5,0x30
    80003acc:	0307d793          	srli	a5,a5,0x30
    80003ad0:	00f5c5b3          	xor	a1,a1,a5
    80003ad4:	0015f593          	andi	a1,a1,1
    80003ad8:	00765613          	srli	a2,a2,0x7
    80003adc:	0017d793          	srli	a5,a5,0x1
    80003ae0:	00058c63          	beqz	a1,80003af8 <cmp_complex+0x710>
    80003ae4:	ffffa5b7          	lui	a1,0xffffa
    80003ae8:	00158593          	addi	a1,a1,1 # ffffffffffffa001 <_pmem_end+0xffffffff77ffa001>
    80003aec:	00b7c7b3          	xor	a5,a5,a1
    80003af0:	03079793          	slli	a5,a5,0x30
    80003af4:	0307d793          	srli	a5,a5,0x30
    80003af8:	0017f593          	andi	a1,a5,1
    80003afc:	0017d793          	srli	a5,a5,0x1
    80003b00:	00c58c63          	beq	a1,a2,80003b18 <cmp_complex+0x730>
    80003b04:	ffffa637          	lui	a2,0xffffa
    80003b08:	00160613          	addi	a2,a2,1 # ffffffffffffa001 <_pmem_end+0xffffffff77ffa001>
    80003b0c:	00c7c7b3          	xor	a5,a5,a2
    80003b10:	03079793          	slli	a5,a5,0x30
    80003b14:	0307d793          	srli	a5,a5,0x30
    80003b18:	0086d69b          	srliw	a3,a3,0x8
    80003b1c:	00d7c633          	xor	a2,a5,a3
    80003b20:	00167613          	andi	a2,a2,1
    80003b24:	0ff6f693          	zext.b	a3,a3
    80003b28:	0016d593          	srli	a1,a3,0x1
    80003b2c:	0017d793          	srli	a5,a5,0x1
    80003b30:	00060c63          	beqz	a2,80003b48 <cmp_complex+0x760>
    80003b34:	ffffa637          	lui	a2,0xffffa
    80003b38:	00160613          	addi	a2,a2,1 # ffffffffffffa001 <_pmem_end+0xffffffff77ffa001>
    80003b3c:	00c7c7b3          	xor	a5,a5,a2
    80003b40:	03079793          	slli	a5,a5,0x30
    80003b44:	0307d793          	srli	a5,a5,0x30
    80003b48:	00f5c5b3          	xor	a1,a1,a5
    80003b4c:	0015f593          	andi	a1,a1,1
    80003b50:	0026d613          	srli	a2,a3,0x2
    80003b54:	0017d793          	srli	a5,a5,0x1
    80003b58:	00058c63          	beqz	a1,80003b70 <cmp_complex+0x788>
    80003b5c:	ffffa5b7          	lui	a1,0xffffa
    80003b60:	00158593          	addi	a1,a1,1 # ffffffffffffa001 <_pmem_end+0xffffffff77ffa001>
    80003b64:	00b7c7b3          	xor	a5,a5,a1
    80003b68:	03079793          	slli	a5,a5,0x30
    80003b6c:	0307d793          	srli	a5,a5,0x30
    80003b70:	00c7c633          	xor	a2,a5,a2
    80003b74:	00167613          	andi	a2,a2,1
    80003b78:	0036d593          	srli	a1,a3,0x3
    80003b7c:	0017d793          	srli	a5,a5,0x1
    80003b80:	00060c63          	beqz	a2,80003b98 <cmp_complex+0x7b0>
    80003b84:	ffffa637          	lui	a2,0xffffa
    80003b88:	00160613          	addi	a2,a2,1 # ffffffffffffa001 <_pmem_end+0xffffffff77ffa001>
    80003b8c:	00c7c7b3          	xor	a5,a5,a2
    80003b90:	03079793          	slli	a5,a5,0x30
    80003b94:	0307d793          	srli	a5,a5,0x30
    80003b98:	00f5c5b3          	xor	a1,a1,a5
    80003b9c:	0015f593          	andi	a1,a1,1
    80003ba0:	0046d613          	srli	a2,a3,0x4
    80003ba4:	0017d793          	srli	a5,a5,0x1
    80003ba8:	00058c63          	beqz	a1,80003bc0 <cmp_complex+0x7d8>
    80003bac:	ffffa5b7          	lui	a1,0xffffa
    80003bb0:	00158593          	addi	a1,a1,1 # ffffffffffffa001 <_pmem_end+0xffffffff77ffa001>
    80003bb4:	00b7c7b3          	xor	a5,a5,a1
    80003bb8:	03079793          	slli	a5,a5,0x30
    80003bbc:	0307d793          	srli	a5,a5,0x30
    80003bc0:	00f64633          	xor	a2,a2,a5
    80003bc4:	00167613          	andi	a2,a2,1
    80003bc8:	0056d593          	srli	a1,a3,0x5
    80003bcc:	0017d793          	srli	a5,a5,0x1
    80003bd0:	00060c63          	beqz	a2,80003be8 <cmp_complex+0x800>
    80003bd4:	ffffa637          	lui	a2,0xffffa
    80003bd8:	00160613          	addi	a2,a2,1 # ffffffffffffa001 <_pmem_end+0xffffffff77ffa001>
    80003bdc:	00c7c7b3          	xor	a5,a5,a2
    80003be0:	03079793          	slli	a5,a5,0x30
    80003be4:	0307d793          	srli	a5,a5,0x30
    80003be8:	00f5c5b3          	xor	a1,a1,a5
    80003bec:	0015f593          	andi	a1,a1,1
    80003bf0:	0066d613          	srli	a2,a3,0x6
    80003bf4:	0017d793          	srli	a5,a5,0x1
    80003bf8:	00058c63          	beqz	a1,80003c10 <cmp_complex+0x828>
    80003bfc:	ffffa5b7          	lui	a1,0xffffa
    80003c00:	00158593          	addi	a1,a1,1 # ffffffffffffa001 <_pmem_end+0xffffffff77ffa001>
    80003c04:	00b7c7b3          	xor	a5,a5,a1
    80003c08:	03079793          	slli	a5,a5,0x30
    80003c0c:	0307d793          	srli	a5,a5,0x30
    80003c10:	00f64633          	xor	a2,a2,a5
    80003c14:	00167613          	andi	a2,a2,1
    80003c18:	0076d693          	srli	a3,a3,0x7
    80003c1c:	0017d793          	srli	a5,a5,0x1
    80003c20:	00060c63          	beqz	a2,80003c38 <cmp_complex+0x850>
    80003c24:	ffffa637          	lui	a2,0xffffa
    80003c28:	00160613          	addi	a2,a2,1 # ffffffffffffa001 <_pmem_end+0xffffffff77ffa001>
    80003c2c:	00c7c7b3          	xor	a5,a5,a2
    80003c30:	03079793          	slli	a5,a5,0x30
    80003c34:	0307d793          	srli	a5,a5,0x30
    80003c38:	00f6c6b3          	xor	a3,a3,a5
    80003c3c:	0016f693          	andi	a3,a3,1
    80003c40:	0017d793          	srli	a5,a5,0x1
    80003c44:	00068c63          	beqz	a3,80003c5c <cmp_complex+0x874>
    80003c48:	ffffa6b7          	lui	a3,0xffffa
    80003c4c:	00168693          	addi	a3,a3,1 # ffffffffffffa001 <_pmem_end+0xffffffff77ffa001>
    80003c50:	00d7c7b3          	xor	a5,a5,a3
    80003c54:	03079793          	slli	a5,a5,0x30
    80003c58:	0307d793          	srli	a5,a5,0x30
    80003c5c:	07f77513          	andi	a0,a4,127
    80003c60:	f0097913          	andi	s2,s2,-256
    80003c64:	01256933          	or	s2,a0,s2
    80003c68:	06f49023          	sh	a5,96(s1)
    80003c6c:	08096913          	ori	s2,s2,128
    80003c70:	01299023          	sh	s2,0(s3)
    80003c74:	03813083          	ld	ra,56(sp)
    80003c78:	03013403          	ld	s0,48(sp)
    80003c7c:	02813483          	ld	s1,40(sp)
    80003c80:	02013903          	ld	s2,32(sp)
    80003c84:	01813983          	ld	s3,24(sp)
    80003c88:	00813a83          	ld	s5,8(sp)
    80003c8c:	40aa053b          	subw	a0,s4,a0
    80003c90:	01013a03          	ld	s4,16(sp)
    80003c94:	04010113          	addi	sp,sp,64
    80003c98:	00008067          	ret
    80003c9c:	03091693          	slli	a3,s2,0x30
    80003ca0:	0306d693          	srli	a3,a3,0x30
    80003ca4:	00090713          	mv	a4,s2
    80003ca8:	d35ff06f          	j	800039dc <cmp_complex+0x5f4>
    80003cac:	02200793          	li	a5,34
    80003cb0:	00070813          	mv	a6,a4
    80003cb4:	00f75463          	bge	a4,a5,80003cbc <cmp_complex+0x8d4>
    80003cb8:	02200813          	li	a6,34
    80003cbc:	00249683          	lh	a3,2(s1)
    80003cc0:	00049603          	lh	a2,0(s1)
    80003cc4:	0204b583          	ld	a1,32(s1)
    80003cc8:	0284a503          	lw	a0,40(s1)
    80003ccc:	00040793          	mv	a5,s0
    80003cd0:	0ff87713          	zext.b	a4,a6
    80003cd4:	ed0fe0ef          	jal	ra,800023a4 <core_bench_state>
    80003cd8:	0664d603          	lhu	a2,102(s1)
    80003cdc:	0105171b          	slliw	a4,a0,0x10
    80003ce0:	0604d403          	lhu	s0,96(s1)
    80003ce4:	00050693          	mv	a3,a0
    80003ce8:	4107571b          	sraiw	a4,a4,0x10
    80003cec:	ce0618e3          	bnez	a2,800039dc <cmp_complex+0x5f4>
    80003cf0:	06a49323          	sh	a0,102(s1)
    80003cf4:	ce9ff06f          	j	800039dc <cmp_complex+0x5f4>
    80003cf8:	02200793          	li	a5,34
    80003cfc:	00070813          	mv	a6,a4
    80003d00:	00f75463          	bge	a4,a5,80003d08 <cmp_complex+0x920>
    80003d04:	02200813          	li	a6,34
    80003d08:	00249683          	lh	a3,2(s1)
    80003d0c:	00049603          	lh	a2,0(s1)
    80003d10:	0204b583          	ld	a1,32(s1)
    80003d14:	0284a503          	lw	a0,40(s1)
    80003d18:	00040793          	mv	a5,s0
    80003d1c:	0ff87713          	zext.b	a4,a6
    80003d20:	e84fe0ef          	jal	ra,800023a4 <core_bench_state>
    80003d24:	0664d683          	lhu	a3,102(s1)
    80003d28:	01051a1b          	slliw	s4,a0,0x10
    80003d2c:	0604d403          	lhu	s0,96(s1)
    80003d30:	410a5a1b          	sraiw	s4,s4,0x10
    80003d34:	f2069263          	bnez	a3,80003458 <cmp_complex+0x70>
    80003d38:	06a49323          	sh	a0,102(s1)
    80003d3c:	f1cff06f          	j	80003458 <cmp_complex+0x70>
    80003d40:	05063683          	ld	a3,80(a2)
    80003d44:	0584b583          	ld	a1,88(s1)
    80003d48:	04863603          	ld	a2,72(a2)
    80003d4c:	0404a503          	lw	a0,64(s1)
    80003d50:	871fc0ef          	jal	ra,800005c0 <matrix_test>
    80003d54:	00a445b3          	xor	a1,s0,a0
    80003d58:	0ff57693          	zext.b	a3,a0
    80003d5c:	03051713          	slli	a4,a0,0x30
    80003d60:	0015f593          	andi	a1,a1,1
    80003d64:	03075713          	srli	a4,a4,0x30
    80003d68:	0016d613          	srli	a2,a3,0x1
    80003d6c:	00145793          	srli	a5,s0,0x1
    80003d70:	00058c63          	beqz	a1,80003d88 <cmp_complex+0x9a0>
    80003d74:	ffffa437          	lui	s0,0xffffa
    80003d78:	00140413          	addi	s0,s0,1 # ffffffffffffa001 <_pmem_end+0xffffffff77ffa001>
    80003d7c:	0087c7b3          	xor	a5,a5,s0
    80003d80:	03079793          	slli	a5,a5,0x30
    80003d84:	0307d793          	srli	a5,a5,0x30
    80003d88:	00c7c633          	xor	a2,a5,a2
    80003d8c:	00167593          	andi	a1,a2,1
    80003d90:	0017d793          	srli	a5,a5,0x1
    80003d94:	0026d613          	srli	a2,a3,0x2
    80003d98:	00058c63          	beqz	a1,80003db0 <cmp_complex+0x9c8>
    80003d9c:	ffffa5b7          	lui	a1,0xffffa
    80003da0:	00158593          	addi	a1,a1,1 # ffffffffffffa001 <_pmem_end+0xffffffff77ffa001>
    80003da4:	00b7c7b3          	xor	a5,a5,a1
    80003da8:	03079793          	slli	a5,a5,0x30
    80003dac:	0307d793          	srli	a5,a5,0x30
    80003db0:	00c7c633          	xor	a2,a5,a2
    80003db4:	00167613          	andi	a2,a2,1
    80003db8:	0036d593          	srli	a1,a3,0x3
    80003dbc:	0017d793          	srli	a5,a5,0x1
    80003dc0:	00060c63          	beqz	a2,80003dd8 <cmp_complex+0x9f0>
    80003dc4:	ffffa637          	lui	a2,0xffffa
    80003dc8:	00160613          	addi	a2,a2,1 # ffffffffffffa001 <_pmem_end+0xffffffff77ffa001>
    80003dcc:	00c7c7b3          	xor	a5,a5,a2
    80003dd0:	03079793          	slli	a5,a5,0x30
    80003dd4:	0307d793          	srli	a5,a5,0x30
    80003dd8:	00b7c5b3          	xor	a1,a5,a1
    80003ddc:	0015f593          	andi	a1,a1,1
    80003de0:	0046d613          	srli	a2,a3,0x4
    80003de4:	0017d793          	srli	a5,a5,0x1
    80003de8:	00058c63          	beqz	a1,80003e00 <cmp_complex+0xa18>
    80003dec:	ffffa5b7          	lui	a1,0xffffa
    80003df0:	00158593          	addi	a1,a1,1 # ffffffffffffa001 <_pmem_end+0xffffffff77ffa001>
    80003df4:	00b7c7b3          	xor	a5,a5,a1
    80003df8:	03079793          	slli	a5,a5,0x30
    80003dfc:	0307d793          	srli	a5,a5,0x30
    80003e00:	00c7c633          	xor	a2,a5,a2
    80003e04:	00167613          	andi	a2,a2,1
    80003e08:	0056d593          	srli	a1,a3,0x5
    80003e0c:	0017d793          	srli	a5,a5,0x1
    80003e10:	00060c63          	beqz	a2,80003e28 <cmp_complex+0xa40>
    80003e14:	ffffa637          	lui	a2,0xffffa
    80003e18:	00160613          	addi	a2,a2,1 # ffffffffffffa001 <_pmem_end+0xffffffff77ffa001>
    80003e1c:	00c7c7b3          	xor	a5,a5,a2
    80003e20:	03079793          	slli	a5,a5,0x30
    80003e24:	0307d793          	srli	a5,a5,0x30
    80003e28:	00b7c5b3          	xor	a1,a5,a1
    80003e2c:	0015f593          	andi	a1,a1,1
    80003e30:	0066d613          	srli	a2,a3,0x6
    80003e34:	0017d793          	srli	a5,a5,0x1
    80003e38:	00058c63          	beqz	a1,80003e50 <cmp_complex+0xa68>
    80003e3c:	ffffa5b7          	lui	a1,0xffffa
    80003e40:	00158593          	addi	a1,a1,1 # ffffffffffffa001 <_pmem_end+0xffffffff77ffa001>
    80003e44:	00b7c7b3          	xor	a5,a5,a1
    80003e48:	03079793          	slli	a5,a5,0x30
    80003e4c:	0307d793          	srli	a5,a5,0x30
    80003e50:	00c7c633          	xor	a2,a5,a2
    80003e54:	00167613          	andi	a2,a2,1
    80003e58:	0076d693          	srli	a3,a3,0x7
    80003e5c:	0017d793          	srli	a5,a5,0x1
    80003e60:	00060c63          	beqz	a2,80003e78 <cmp_complex+0xa90>
    80003e64:	ffffa637          	lui	a2,0xffffa
    80003e68:	00160613          	addi	a2,a2,1 # ffffffffffffa001 <_pmem_end+0xffffffff77ffa001>
    80003e6c:	00c7c7b3          	xor	a5,a5,a2
    80003e70:	03079793          	slli	a5,a5,0x30
    80003e74:	0307d793          	srli	a5,a5,0x30
    80003e78:	0017f613          	andi	a2,a5,1
    80003e7c:	0017d793          	srli	a5,a5,0x1
    80003e80:	00d60c63          	beq	a2,a3,80003e98 <cmp_complex+0xab0>
    80003e84:	ffffa6b7          	lui	a3,0xffffa
    80003e88:	00168693          	addi	a3,a3,1 # ffffffffffffa001 <_pmem_end+0xffffffff77ffa001>
    80003e8c:	00d7c7b3          	xor	a5,a5,a3
    80003e90:	03079793          	slli	a5,a5,0x30
    80003e94:	0307d793          	srli	a5,a5,0x30
    80003e98:	00875593          	srli	a1,a4,0x8
    80003e9c:	00b7c5b3          	xor	a1,a5,a1
    80003ea0:	0015f593          	andi	a1,a1,1
    80003ea4:	00875613          	srli	a2,a4,0x8
    80003ea8:	00975693          	srli	a3,a4,0x9
    80003eac:	0017d793          	srli	a5,a5,0x1
    80003eb0:	00058c63          	beqz	a1,80003ec8 <cmp_complex+0xae0>
    80003eb4:	ffffa737          	lui	a4,0xffffa
    80003eb8:	00170713          	addi	a4,a4,1 # ffffffffffffa001 <_pmem_end+0xffffffff77ffa001>
    80003ebc:	00e7c7b3          	xor	a5,a5,a4
    80003ec0:	03079793          	slli	a5,a5,0x30
    80003ec4:	0307d793          	srli	a5,a5,0x30
    80003ec8:	00d7c6b3          	xor	a3,a5,a3
    80003ecc:	0016f693          	andi	a3,a3,1
    80003ed0:	00265713          	srli	a4,a2,0x2
    80003ed4:	0017d793          	srli	a5,a5,0x1
    80003ed8:	00068c63          	beqz	a3,80003ef0 <cmp_complex+0xb08>
    80003edc:	ffffa6b7          	lui	a3,0xffffa
    80003ee0:	00168693          	addi	a3,a3,1 # ffffffffffffa001 <_pmem_end+0xffffffff77ffa001>
    80003ee4:	00d7c7b3          	xor	a5,a5,a3
    80003ee8:	03079793          	slli	a5,a5,0x30
    80003eec:	0307d793          	srli	a5,a5,0x30
    80003ef0:	00e7c6b3          	xor	a3,a5,a4
    80003ef4:	0016f693          	andi	a3,a3,1
    80003ef8:	00365713          	srli	a4,a2,0x3
    80003efc:	0017d793          	srli	a5,a5,0x1
    80003f00:	00068c63          	beqz	a3,80003f18 <cmp_complex+0xb30>
    80003f04:	ffffa6b7          	lui	a3,0xffffa
    80003f08:	00168693          	addi	a3,a3,1 # ffffffffffffa001 <_pmem_end+0xffffffff77ffa001>
    80003f0c:	00d7c7b3          	xor	a5,a5,a3
    80003f10:	03079793          	slli	a5,a5,0x30
    80003f14:	0307d793          	srli	a5,a5,0x30
    80003f18:	00e7c733          	xor	a4,a5,a4
    80003f1c:	00177713          	andi	a4,a4,1
    80003f20:	00465693          	srli	a3,a2,0x4
    80003f24:	0017d793          	srli	a5,a5,0x1
    80003f28:	00070c63          	beqz	a4,80003f40 <cmp_complex+0xb58>
    80003f2c:	ffffa737          	lui	a4,0xffffa
    80003f30:	00170713          	addi	a4,a4,1 # ffffffffffffa001 <_pmem_end+0xffffffff77ffa001>
    80003f34:	00e7c7b3          	xor	a5,a5,a4
    80003f38:	03079793          	slli	a5,a5,0x30
    80003f3c:	0307d793          	srli	a5,a5,0x30
    80003f40:	00d7c6b3          	xor	a3,a5,a3
    80003f44:	0016f693          	andi	a3,a3,1
    80003f48:	00565713          	srli	a4,a2,0x5
    80003f4c:	0017d793          	srli	a5,a5,0x1
    80003f50:	00068c63          	beqz	a3,80003f68 <cmp_complex+0xb80>
    80003f54:	ffffa6b7          	lui	a3,0xffffa
    80003f58:	00168693          	addi	a3,a3,1 # ffffffffffffa001 <_pmem_end+0xffffffff77ffa001>
    80003f5c:	00d7c7b3          	xor	a5,a5,a3
    80003f60:	03079793          	slli	a5,a5,0x30
    80003f64:	0307d793          	srli	a5,a5,0x30
    80003f68:	00e7c733          	xor	a4,a5,a4
    80003f6c:	00177713          	andi	a4,a4,1
    80003f70:	00665693          	srli	a3,a2,0x6
    80003f74:	0017d793          	srli	a5,a5,0x1
    80003f78:	00070c63          	beqz	a4,80003f90 <cmp_complex+0xba8>
    80003f7c:	ffffa737          	lui	a4,0xffffa
    80003f80:	00170713          	addi	a4,a4,1 # ffffffffffffa001 <_pmem_end+0xffffffff77ffa001>
    80003f84:	00e7c7b3          	xor	a5,a5,a4
    80003f88:	03079793          	slli	a5,a5,0x30
    80003f8c:	0307d793          	srli	a5,a5,0x30
    80003f90:	00d7c6b3          	xor	a3,a5,a3
    80003f94:	0016f693          	andi	a3,a3,1
    80003f98:	00765713          	srli	a4,a2,0x7
    80003f9c:	0017d793          	srli	a5,a5,0x1
    80003fa0:	00068c63          	beqz	a3,80003fb8 <cmp_complex+0xbd0>
    80003fa4:	ffffa6b7          	lui	a3,0xffffa
    80003fa8:	00168693          	addi	a3,a3,1 # ffffffffffffa001 <_pmem_end+0xffffffff77ffa001>
    80003fac:	00d7c7b3          	xor	a5,a5,a3
    80003fb0:	03079793          	slli	a5,a5,0x30
    80003fb4:	0307d793          	srli	a5,a5,0x30
    80003fb8:	00f74733          	xor	a4,a4,a5
    80003fbc:	00177713          	andi	a4,a4,1
    80003fc0:	0017d513          	srli	a0,a5,0x1
    80003fc4:	00070c63          	beqz	a4,80003fdc <cmp_complex+0xbf4>
    80003fc8:	ffffa7b7          	lui	a5,0xffffa
    80003fcc:	00178793          	addi	a5,a5,1 # ffffffffffffa001 <_pmem_end+0xffffffff77ffa001>
    80003fd0:	00f547b3          	xor	a5,a0,a5
    80003fd4:	03079513          	slli	a0,a5,0x30
    80003fd8:	03055513          	srli	a0,a0,0x30
    80003fdc:	0644d783          	lhu	a5,100(s1)
    80003fe0:	01051a1b          	slliw	s4,a0,0x10
    80003fe4:	0604d403          	lhu	s0,96(s1)
    80003fe8:	410a5a1b          	sraiw	s4,s4,0x10
    80003fec:	c6079663          	bnez	a5,80003458 <cmp_complex+0x70>
    80003ff0:	06a49223          	sh	a0,100(s1)
    80003ff4:	c64ff06f          	j	80003458 <cmp_complex+0x70>

0000000080003ff8 <core_bench_list>:
    80003ff8:	00451e03          	lh	t3,4(a0)
    80003ffc:	f9010113          	addi	sp,sp,-112
    80004000:	06813023          	sd	s0,96(sp)
    80004004:	03813023          	sd	s8,32(sp)
    80004008:	01b13423          	sd	s11,8(sp)
    8000400c:	06113423          	sd	ra,104(sp)
    80004010:	04913c23          	sd	s1,88(sp)
    80004014:	05213823          	sd	s2,80(sp)
    80004018:	05313423          	sd	s3,72(sp)
    8000401c:	05413023          	sd	s4,64(sp)
    80004020:	03513c23          	sd	s5,56(sp)
    80004024:	03613823          	sd	s6,48(sp)
    80004028:	03713423          	sd	s7,40(sp)
    8000402c:	01913c23          	sd	s9,24(sp)
    80004030:	01a13823          	sd	s10,16(sp)
    80004034:	03853403          	ld	s0,56(a0)
    80004038:	00050d93          	mv	s11,a0
    8000403c:	00058813          	mv	a6,a1
    80004040:	00058c13          	mv	s8,a1
    80004044:	05c058e3          	blez	t3,80004894 <core_bench_list+0x89c>
    80004048:	00000593          	li	a1,0
    8000404c:	00000313          	li	t1,0
    80004050:	00000513          	li	a0,0
    80004054:	00000893          	li	a7,0
    80004058:	0ff5fc93          	zext.b	s9,a1
    8000405c:	000c061b          	sext.w	a2,s8
    80004060:	360c4c63          	bltz	s8,800043d8 <core_bench_list+0x3e0>
    80004064:	02040ee3          	beqz	s0,800048a0 <core_bench_list+0x8a8>
    80004068:	00040793          	mv	a5,s0
    8000406c:	00c0006f          	j	80004078 <core_bench_list+0x80>
    80004070:	0007b783          	ld	a5,0(a5)
    80004074:	00078863          	beqz	a5,80004084 <core_bench_list+0x8c>
    80004078:	0087b703          	ld	a4,8(a5)
    8000407c:	00271703          	lh	a4,2(a4)
    80004080:	fec718e3          	bne	a4,a2,80004070 <core_bench_list+0x78>
    80004084:	00040713          	mv	a4,s0
    80004088:	00000693          	li	a3,0
    8000408c:	0080006f          	j	80004094 <core_bench_list+0x9c>
    80004090:	00040693          	mv	a3,s0
    80004094:	00070413          	mv	s0,a4
    80004098:	00073703          	ld	a4,0(a4)
    8000409c:	00d43023          	sd	a3,0(s0)
    800040a0:	fe0718e3          	bnez	a4,80004090 <core_bench_list+0x98>
    800040a4:	34078e63          	beqz	a5,80004400 <core_bench_list+0x408>
    800040a8:	0087b703          	ld	a4,8(a5)
    800040ac:	0015051b          	addiw	a0,a0,1
    800040b0:	03051513          	slli	a0,a0,0x30
    800040b4:	00071703          	lh	a4,0(a4)
    800040b8:	03055513          	srli	a0,a0,0x30
    800040bc:	00177693          	andi	a3,a4,1
    800040c0:	00068c63          	beqz	a3,800040d8 <core_bench_list+0xe0>
    800040c4:	4097591b          	sraiw	s2,a4,0x9
    800040c8:	00197913          	andi	s2,s2,1
    800040cc:	0119093b          	addw	s2,s2,a7
    800040d0:	03091893          	slli	a7,s2,0x30
    800040d4:	0308d893          	srli	a7,a7,0x30
    800040d8:	0007b703          	ld	a4,0(a5)
    800040dc:	00070c63          	beqz	a4,800040f4 <core_bench_list+0xfc>
    800040e0:	00073683          	ld	a3,0(a4)
    800040e4:	00d7b023          	sd	a3,0(a5)
    800040e8:	00043783          	ld	a5,0(s0)
    800040ec:	00f73023          	sd	a5,0(a4)
    800040f0:	00e43023          	sd	a4,0(s0)
    800040f4:	00064863          	bltz	a2,80004104 <core_bench_list+0x10c>
    800040f8:	001c0c1b          	addiw	s8,s8,1
    800040fc:	010c1c1b          	slliw	s8,s8,0x10
    80004100:	410c5c1b          	sraiw	s8,s8,0x10
    80004104:	0015859b          	addiw	a1,a1,1
    80004108:	0105959b          	slliw	a1,a1,0x10
    8000410c:	4105d59b          	sraiw	a1,a1,0x10
    80004110:	f4be14e3          	bne	t3,a1,80004058 <core_bench_list+0x60>
    80004114:	0025191b          	slliw	s2,a0,0x2
    80004118:	4069093b          	subw	s2,s2,t1
    8000411c:	0119093b          	addw	s2,s2,a7
    80004120:	03091913          	slli	s2,s2,0x30
    80004124:	03095913          	srli	s2,s2,0x30
    80004128:	69004e63          	bgtz	a6,800047c4 <core_bench_list+0x7cc>
    8000412c:	00043703          	ld	a4,0(s0)
    80004130:	000c061b          	sext.w	a2,s8
    80004134:	00040793          	mv	a5,s0
    80004138:	00073503          	ld	a0,0(a4)
    8000413c:	00873a03          	ld	s4,8(a4)
    80004140:	000c8c9b          	sext.w	s9,s9
    80004144:	00853583          	ld	a1,8(a0)
    80004148:	00053683          	ld	a3,0(a0)
    8000414c:	00b73423          	sd	a1,8(a4)
    80004150:	01453423          	sd	s4,8(a0)
    80004154:	00d73023          	sd	a3,0(a4)
    80004158:	00053023          	sd	zero,0(a0)
    8000415c:	240c4663          	bltz	s8,800043a8 <core_bench_list+0x3b0>
    80004160:	0087b703          	ld	a4,8(a5)
    80004164:	0007b783          	ld	a5,0(a5)
    80004168:	00271703          	lh	a4,2(a4)
    8000416c:	26c70063          	beq	a4,a2,800043cc <core_bench_list+0x3d4>
    80004170:	fe0798e3          	bnez	a5,80004160 <core_bench_list+0x168>
    80004174:	00043883          	ld	a7,0(s0)
    80004178:	0008b783          	ld	a5,0(a7)
    8000417c:	00078b13          	mv	s6,a5
    80004180:	00843683          	ld	a3,8(s0)
    80004184:	ffffa737          	lui	a4,0xffffa
    80004188:	00170713          	addi	a4,a4,1 # ffffffffffffa001 <_pmem_end+0xffffffff77ffa001>
    8000418c:	00069583          	lh	a1,0(a3)
    80004190:	0085d813          	srli	a6,a1,0x8
    80004194:	0ff5f613          	zext.b	a2,a1
    80004198:	0ff87693          	zext.b	a3,a6
    8000419c:	0185959b          	slliw	a1,a1,0x18
    800041a0:	0188181b          	slliw	a6,a6,0x18
    800041a4:	00165c13          	srli	s8,a2,0x1
    800041a8:	00265b93          	srli	s7,a2,0x2
    800041ac:	00365a93          	srli	s5,a2,0x3
    800041b0:	00465993          	srli	s3,a2,0x4
    800041b4:	00565493          	srli	s1,a2,0x5
    800041b8:	00665393          	srli	t2,a2,0x6
    800041bc:	0016d293          	srli	t0,a3,0x1
    800041c0:	0026df93          	srli	t6,a3,0x2
    800041c4:	0036df13          	srli	t5,a3,0x3
    800041c8:	0046de93          	srli	t4,a3,0x4
    800041cc:	0056de13          	srli	t3,a3,0x5
    800041d0:	0066d313          	srli	t1,a3,0x6
    800041d4:	4185d59b          	sraiw	a1,a1,0x18
    800041d8:	00765613          	srli	a2,a2,0x7
    800041dc:	4188581b          	sraiw	a6,a6,0x18
    800041e0:	0076d693          	srli	a3,a3,0x7
    800041e4:	0125ccb3          	xor	s9,a1,s2
    800041e8:	001cfc93          	andi	s9,s9,1
    800041ec:	00195913          	srli	s2,s2,0x1
    800041f0:	000c8863          	beqz	s9,80004200 <core_bench_list+0x208>
    800041f4:	00e94933          	xor	s2,s2,a4
    800041f8:	03091913          	slli	s2,s2,0x30
    800041fc:	03095913          	srli	s2,s2,0x30
    80004200:	012c4cb3          	xor	s9,s8,s2
    80004204:	001cfc93          	andi	s9,s9,1
    80004208:	00195913          	srli	s2,s2,0x1
    8000420c:	000c8863          	beqz	s9,8000421c <core_bench_list+0x224>
    80004210:	00e94933          	xor	s2,s2,a4
    80004214:	03091913          	slli	s2,s2,0x30
    80004218:	03095913          	srli	s2,s2,0x30
    8000421c:	012bccb3          	xor	s9,s7,s2
    80004220:	001cfc93          	andi	s9,s9,1
    80004224:	00195913          	srli	s2,s2,0x1
    80004228:	000c8863          	beqz	s9,80004238 <core_bench_list+0x240>
    8000422c:	00e94933          	xor	s2,s2,a4
    80004230:	03091913          	slli	s2,s2,0x30
    80004234:	03095913          	srli	s2,s2,0x30
    80004238:	012accb3          	xor	s9,s5,s2
    8000423c:	001cfc93          	andi	s9,s9,1
    80004240:	00195913          	srli	s2,s2,0x1
    80004244:	000c8863          	beqz	s9,80004254 <core_bench_list+0x25c>
    80004248:	00e94933          	xor	s2,s2,a4
    8000424c:	03091913          	slli	s2,s2,0x30
    80004250:	03095913          	srli	s2,s2,0x30
    80004254:	0129ccb3          	xor	s9,s3,s2
    80004258:	001cfc93          	andi	s9,s9,1
    8000425c:	00195913          	srli	s2,s2,0x1
    80004260:	000c8863          	beqz	s9,80004270 <core_bench_list+0x278>
    80004264:	00e94933          	xor	s2,s2,a4
    80004268:	03091913          	slli	s2,s2,0x30
    8000426c:	03095913          	srli	s2,s2,0x30
    80004270:	0124ccb3          	xor	s9,s1,s2
    80004274:	001cfc93          	andi	s9,s9,1
    80004278:	00195913          	srli	s2,s2,0x1
    8000427c:	000c8863          	beqz	s9,8000428c <core_bench_list+0x294>
    80004280:	00e94933          	xor	s2,s2,a4
    80004284:	03091913          	slli	s2,s2,0x30
    80004288:	03095913          	srli	s2,s2,0x30
    8000428c:	0123ccb3          	xor	s9,t2,s2
    80004290:	001cfc93          	andi	s9,s9,1
    80004294:	00195913          	srli	s2,s2,0x1
    80004298:	000c8863          	beqz	s9,800042a8 <core_bench_list+0x2b0>
    8000429c:	00e94933          	xor	s2,s2,a4
    800042a0:	03091913          	slli	s2,s2,0x30
    800042a4:	03095913          	srli	s2,s2,0x30
    800042a8:	00197c93          	andi	s9,s2,1
    800042ac:	00195913          	srli	s2,s2,0x1
    800042b0:	00cc8863          	beq	s9,a2,800042c0 <core_bench_list+0x2c8>
    800042b4:	00e94933          	xor	s2,s2,a4
    800042b8:	03091913          	slli	s2,s2,0x30
    800042bc:	03095913          	srli	s2,s2,0x30
    800042c0:	01284cb3          	xor	s9,a6,s2
    800042c4:	001cfc93          	andi	s9,s9,1
    800042c8:	00195913          	srli	s2,s2,0x1
    800042cc:	000c8863          	beqz	s9,800042dc <core_bench_list+0x2e4>
    800042d0:	00e94933          	xor	s2,s2,a4
    800042d4:	03091913          	slli	s2,s2,0x30
    800042d8:	03095913          	srli	s2,s2,0x30
    800042dc:	0122ccb3          	xor	s9,t0,s2
    800042e0:	001cfc93          	andi	s9,s9,1
    800042e4:	00195913          	srli	s2,s2,0x1
    800042e8:	000c8863          	beqz	s9,800042f8 <core_bench_list+0x300>
    800042ec:	00e94933          	xor	s2,s2,a4
    800042f0:	03091913          	slli	s2,s2,0x30
    800042f4:	03095913          	srli	s2,s2,0x30
    800042f8:	012fccb3          	xor	s9,t6,s2
    800042fc:	001cfc93          	andi	s9,s9,1
    80004300:	00195913          	srli	s2,s2,0x1
    80004304:	000c8863          	beqz	s9,80004314 <core_bench_list+0x31c>
    80004308:	00e94933          	xor	s2,s2,a4
    8000430c:	03091913          	slli	s2,s2,0x30
    80004310:	03095913          	srli	s2,s2,0x30
    80004314:	012f4cb3          	xor	s9,t5,s2
    80004318:	001cfc93          	andi	s9,s9,1
    8000431c:	00195913          	srli	s2,s2,0x1
    80004320:	000c8863          	beqz	s9,80004330 <core_bench_list+0x338>
    80004324:	00e94933          	xor	s2,s2,a4
    80004328:	03091913          	slli	s2,s2,0x30
    8000432c:	03095913          	srli	s2,s2,0x30
    80004330:	012eccb3          	xor	s9,t4,s2
    80004334:	001cfc93          	andi	s9,s9,1
    80004338:	00195913          	srli	s2,s2,0x1
    8000433c:	000c8863          	beqz	s9,8000434c <core_bench_list+0x354>
    80004340:	00e94933          	xor	s2,s2,a4
    80004344:	03091913          	slli	s2,s2,0x30
    80004348:	03095913          	srli	s2,s2,0x30
    8000434c:	012e4cb3          	xor	s9,t3,s2
    80004350:	001cfc93          	andi	s9,s9,1
    80004354:	00195913          	srli	s2,s2,0x1
    80004358:	000c8863          	beqz	s9,80004368 <core_bench_list+0x370>
    8000435c:	00e94933          	xor	s2,s2,a4
    80004360:	03091913          	slli	s2,s2,0x30
    80004364:	03095913          	srli	s2,s2,0x30
    80004368:	01234cb3          	xor	s9,t1,s2
    8000436c:	001cfc93          	andi	s9,s9,1
    80004370:	00195913          	srli	s2,s2,0x1
    80004374:	000c8863          	beqz	s9,80004384 <core_bench_list+0x38c>
    80004378:	00e94933          	xor	s2,s2,a4
    8000437c:	03091913          	slli	s2,s2,0x30
    80004380:	03095913          	srli	s2,s2,0x30
    80004384:	00197c93          	andi	s9,s2,1
    80004388:	00195913          	srli	s2,s2,0x1
    8000438c:	00dc8863          	beq	s9,a3,8000439c <core_bench_list+0x3a4>
    80004390:	00e94933          	xor	s2,s2,a4
    80004394:	03091913          	slli	s2,s2,0x30
    80004398:	03095913          	srli	s2,s2,0x30
    8000439c:	08078663          	beqz	a5,80004428 <core_bench_list+0x430>
    800043a0:	0007b783          	ld	a5,0(a5)
    800043a4:	e41ff06f          	j	800041e4 <core_bench_list+0x1ec>
    800043a8:	0087b703          	ld	a4,8(a5)
    800043ac:	0007b783          	ld	a5,0(a5)
    800043b0:	00074703          	lbu	a4,0(a4)
    800043b4:	01970c63          	beq	a4,s9,800043cc <core_bench_list+0x3d4>
    800043b8:	da078ee3          	beqz	a5,80004174 <core_bench_list+0x17c>
    800043bc:	0087b703          	ld	a4,8(a5)
    800043c0:	0007b783          	ld	a5,0(a5)
    800043c4:	00074703          	lbu	a4,0(a4)
    800043c8:	ff9718e3          	bne	a4,s9,800043b8 <core_bench_list+0x3c0>
    800043cc:	00043883          	ld	a7,0(s0)
    800043d0:	0008bb03          	ld	s6,0(a7)
    800043d4:	dadff06f          	j	80004180 <core_bench_list+0x188>
    800043d8:	4c040463          	beqz	s0,800048a0 <core_bench_list+0x8a8>
    800043dc:	000c869b          	sext.w	a3,s9
    800043e0:	00040793          	mv	a5,s0
    800043e4:	00c0006f          	j	800043f0 <core_bench_list+0x3f8>
    800043e8:	0007b783          	ld	a5,0(a5)
    800043ec:	c8078ce3          	beqz	a5,80004084 <core_bench_list+0x8c>
    800043f0:	0087b703          	ld	a4,8(a5)
    800043f4:	00074703          	lbu	a4,0(a4)
    800043f8:	fed718e3          	bne	a4,a3,800043e8 <core_bench_list+0x3f0>
    800043fc:	c89ff06f          	j	80004084 <core_bench_list+0x8c>
    80004400:	0086b783          	ld	a5,8(a3)
    80004404:	0013091b          	addiw	s2,t1,1
    80004408:	03091313          	slli	t1,s2,0x30
    8000440c:	00178903          	lb	s2,1(a5)
    80004410:	03035313          	srli	t1,t1,0x30
    80004414:	00197913          	andi	s2,s2,1
    80004418:	0119093b          	addw	s2,s2,a7
    8000441c:	03091893          	slli	a7,s2,0x30
    80004420:	0308d893          	srli	a7,a7,0x30
    80004424:	cd1ff06f          	j	800040f4 <core_bench_list+0xfc>
    80004428:	0088b783          	ld	a5,8(a7)
    8000442c:	00000613          	li	a2,0
    80004430:	00000f13          	li	t5,0
    80004434:	00f53423          	sd	a5,8(a0)
    80004438:	0148b423          	sd	s4,8(a7)
    8000443c:	01653023          	sd	s6,0(a0)
    80004440:	00a8b023          	sd	a0,0(a7)
    80004444:	00100e13          	li	t3,1
    80004448:	00000f93          	li	t6,0
    8000444c:	00100293          	li	t0,1
    80004450:	001f8f9b          	addiw	t6,t6,1
    80004454:	00040793          	mv	a5,s0
    80004458:	00000713          	li	a4,0
    8000445c:	0007b783          	ld	a5,0(a5)
    80004460:	0017071b          	addiw	a4,a4,1
    80004464:	00078463          	beqz	a5,8000446c <core_bench_list+0x474>
    80004468:	feee1ae3          	bne	t3,a4,8000445c <core_bench_list+0x464>
    8000446c:	000e0593          	mv	a1,t3
    80004470:	06070c63          	beqz	a4,800044e8 <core_bench_list+0x4f0>
    80004474:	08058c63          	beqz	a1,8000450c <core_bench_list+0x514>
    80004478:	08078a63          	beqz	a5,8000450c <core_bench_list+0x514>
    8000447c:	00843883          	ld	a7,8(s0)
    80004480:	0087b803          	ld	a6,8(a5)
    80004484:	00089683          	lh	a3,0(a7)
    80004488:	00281e83          	lh	t4,2(a6)
    8000448c:	00289503          	lh	a0,2(a7)
    80004490:	0106931b          	slliw	t1,a3,0x10
    80004494:	0103531b          	srliw	t1,t1,0x10
    80004498:	f006f693          	andi	a3,a3,-256
    8000449c:	0083531b          	srliw	t1,t1,0x8
    800044a0:	0066e6b3          	or	a3,a3,t1
    800044a4:	00d89023          	sh	a3,0(a7)
    800044a8:	00081683          	lh	a3,0(a6)
    800044ac:	41d5053b          	subw	a0,a0,t4
    800044b0:	0106989b          	slliw	a7,a3,0x10
    800044b4:	0108d89b          	srliw	a7,a7,0x10
    800044b8:	f006f693          	andi	a3,a3,-256
    800044bc:	0088d89b          	srliw	a7,a7,0x8
    800044c0:	0116e6b3          	or	a3,a3,a7
    800044c4:	00d81023          	sh	a3,0(a6)
    800044c8:	04a05263          	blez	a0,8000450c <core_bench_list+0x514>
    800044cc:	00078693          	mv	a3,a5
    800044d0:	0007b783          	ld	a5,0(a5)
    800044d4:	fff5859b          	addiw	a1,a1,-1
    800044d8:	02060463          	beqz	a2,80004500 <core_bench_list+0x508>
    800044dc:	00d63023          	sd	a3,0(a2)
    800044e0:	00068613          	mv	a2,a3
    800044e4:	f80718e3          	bnez	a4,80004474 <core_bench_list+0x47c>
    800044e8:	02058a63          	beqz	a1,8000451c <core_bench_list+0x524>
    800044ec:	02078e63          	beqz	a5,80004528 <core_bench_list+0x530>
    800044f0:	00078693          	mv	a3,a5
    800044f4:	fff5859b          	addiw	a1,a1,-1
    800044f8:	0007b783          	ld	a5,0(a5)
    800044fc:	fe0610e3          	bnez	a2,800044dc <core_bench_list+0x4e4>
    80004500:	00068f13          	mv	t5,a3
    80004504:	00068613          	mv	a2,a3
    80004508:	fddff06f          	j	800044e4 <core_bench_list+0x4ec>
    8000450c:	00040693          	mv	a3,s0
    80004510:	fff7071b          	addiw	a4,a4,-1
    80004514:	00043403          	ld	s0,0(s0)
    80004518:	fc1ff06f          	j	800044d8 <core_bench_list+0x4e0>
    8000451c:	00078663          	beqz	a5,80004528 <core_bench_list+0x530>
    80004520:	00078413          	mv	s0,a5
    80004524:	f2dff06f          	j	80004450 <core_bench_list+0x458>
    80004528:	00063023          	sd	zero,0(a2)
    8000452c:	025f8663          	beq	t6,t0,80004558 <core_bench_list+0x560>
    80004530:	001e1e1b          	slliw	t3,t3,0x1
    80004534:	000f0e63          	beqz	t5,80004550 <core_bench_list+0x558>
    80004538:	000f0793          	mv	a5,t5
    8000453c:	00000613          	li	a2,0
    80004540:	00000f13          	li	t5,0
    80004544:	00000f93          	li	t6,0
    80004548:	00078413          	mv	s0,a5
    8000454c:	f05ff06f          	j	80004450 <core_bench_list+0x458>
    80004550:	00003023          	sd	zero,0(zero) # 0 <_start-0x80000000>
    80004554:	00100073          	ebreak
    80004558:	000f3703          	ld	a4,0(t5)
    8000455c:	22070463          	beqz	a4,80004784 <core_bench_list+0x78c>
    80004560:	008f3683          	ld	a3,8(t5)
    80004564:	ffffa7b7          	lui	a5,0xffffa
    80004568:	00178793          	addi	a5,a5,1 # ffffffffffffa001 <_pmem_end+0xffffffff77ffa001>
    8000456c:	00069583          	lh	a1,0(a3)
    80004570:	0085d513          	srli	a0,a1,0x8
    80004574:	0ff5f613          	zext.b	a2,a1
    80004578:	0ff57693          	zext.b	a3,a0
    8000457c:	0185959b          	slliw	a1,a1,0x18
    80004580:	0185151b          	slliw	a0,a0,0x18
    80004584:	00165993          	srli	s3,a2,0x1
    80004588:	00265493          	srli	s1,a2,0x2
    8000458c:	00365413          	srli	s0,a2,0x3
    80004590:	00465393          	srli	t2,a2,0x4
    80004594:	00565293          	srli	t0,a2,0x5
    80004598:	00665f93          	srli	t6,a2,0x6
    8000459c:	0016df13          	srli	t5,a3,0x1
    800045a0:	0026de93          	srli	t4,a3,0x2
    800045a4:	0036de13          	srli	t3,a3,0x3
    800045a8:	0046d313          	srli	t1,a3,0x4
    800045ac:	0056d893          	srli	a7,a3,0x5
    800045b0:	0066d813          	srli	a6,a3,0x6
    800045b4:	4185d59b          	sraiw	a1,a1,0x18
    800045b8:	00765613          	srli	a2,a2,0x7
    800045bc:	4185551b          	sraiw	a0,a0,0x18
    800045c0:	0076d693          	srli	a3,a3,0x7
    800045c4:	0125ca33          	xor	s4,a1,s2
    800045c8:	001a7a13          	andi	s4,s4,1
    800045cc:	00195913          	srli	s2,s2,0x1
    800045d0:	000a0863          	beqz	s4,800045e0 <core_bench_list+0x5e8>
    800045d4:	00f94933          	xor	s2,s2,a5
    800045d8:	03091913          	slli	s2,s2,0x30
    800045dc:	03095913          	srli	s2,s2,0x30
    800045e0:	0129ca33          	xor	s4,s3,s2
    800045e4:	001a7a13          	andi	s4,s4,1
    800045e8:	00195913          	srli	s2,s2,0x1
    800045ec:	000a0863          	beqz	s4,800045fc <core_bench_list+0x604>
    800045f0:	00f94933          	xor	s2,s2,a5
    800045f4:	03091913          	slli	s2,s2,0x30
    800045f8:	03095913          	srli	s2,s2,0x30
    800045fc:	0124ca33          	xor	s4,s1,s2
    80004600:	001a7a13          	andi	s4,s4,1
    80004604:	00195913          	srli	s2,s2,0x1
    80004608:	000a0863          	beqz	s4,80004618 <core_bench_list+0x620>
    8000460c:	00f94933          	xor	s2,s2,a5
    80004610:	03091913          	slli	s2,s2,0x30
    80004614:	03095913          	srli	s2,s2,0x30
    80004618:	01244a33          	xor	s4,s0,s2
    8000461c:	001a7a13          	andi	s4,s4,1
    80004620:	00195913          	srli	s2,s2,0x1
    80004624:	000a0863          	beqz	s4,80004634 <core_bench_list+0x63c>
    80004628:	00f94933          	xor	s2,s2,a5
    8000462c:	03091913          	slli	s2,s2,0x30
    80004630:	03095913          	srli	s2,s2,0x30
    80004634:	0123ca33          	xor	s4,t2,s2
    80004638:	001a7a13          	andi	s4,s4,1
    8000463c:	00195913          	srli	s2,s2,0x1
    80004640:	000a0863          	beqz	s4,80004650 <core_bench_list+0x658>
    80004644:	00f94933          	xor	s2,s2,a5
    80004648:	03091913          	slli	s2,s2,0x30
    8000464c:	03095913          	srli	s2,s2,0x30
    80004650:	0122ca33          	xor	s4,t0,s2
    80004654:	001a7a13          	andi	s4,s4,1
    80004658:	00195913          	srli	s2,s2,0x1
    8000465c:	000a0863          	beqz	s4,8000466c <core_bench_list+0x674>
    80004660:	00f94933          	xor	s2,s2,a5
    80004664:	03091913          	slli	s2,s2,0x30
    80004668:	03095913          	srli	s2,s2,0x30
    8000466c:	012fca33          	xor	s4,t6,s2
    80004670:	001a7a13          	andi	s4,s4,1
    80004674:	00195913          	srli	s2,s2,0x1
    80004678:	000a0863          	beqz	s4,80004688 <core_bench_list+0x690>
    8000467c:	00f94933          	xor	s2,s2,a5
    80004680:	03091913          	slli	s2,s2,0x30
    80004684:	03095913          	srli	s2,s2,0x30
    80004688:	00197a13          	andi	s4,s2,1
    8000468c:	00195913          	srli	s2,s2,0x1
    80004690:	00ca0863          	beq	s4,a2,800046a0 <core_bench_list+0x6a8>
    80004694:	00f94933          	xor	s2,s2,a5
    80004698:	03091913          	slli	s2,s2,0x30
    8000469c:	03095913          	srli	s2,s2,0x30
    800046a0:	01254a33          	xor	s4,a0,s2
    800046a4:	001a7a13          	andi	s4,s4,1
    800046a8:	00195913          	srli	s2,s2,0x1
    800046ac:	000a0863          	beqz	s4,800046bc <core_bench_list+0x6c4>
    800046b0:	00f94933          	xor	s2,s2,a5
    800046b4:	03091913          	slli	s2,s2,0x30
    800046b8:	03095913          	srli	s2,s2,0x30
    800046bc:	012f4a33          	xor	s4,t5,s2
    800046c0:	001a7a13          	andi	s4,s4,1
    800046c4:	00195913          	srli	s2,s2,0x1
    800046c8:	000a0863          	beqz	s4,800046d8 <core_bench_list+0x6e0>
    800046cc:	00f94933          	xor	s2,s2,a5
    800046d0:	03091913          	slli	s2,s2,0x30
    800046d4:	03095913          	srli	s2,s2,0x30
    800046d8:	012eca33          	xor	s4,t4,s2
    800046dc:	001a7a13          	andi	s4,s4,1
    800046e0:	00195913          	srli	s2,s2,0x1
    800046e4:	000a0863          	beqz	s4,800046f4 <core_bench_list+0x6fc>
    800046e8:	00f94933          	xor	s2,s2,a5
    800046ec:	03091913          	slli	s2,s2,0x30
    800046f0:	03095913          	srli	s2,s2,0x30
    800046f4:	012e4a33          	xor	s4,t3,s2
    800046f8:	001a7a13          	andi	s4,s4,1
    800046fc:	00195913          	srli	s2,s2,0x1
    80004700:	000a0863          	beqz	s4,80004710 <core_bench_list+0x718>
    80004704:	00f94933          	xor	s2,s2,a5
    80004708:	03091913          	slli	s2,s2,0x30
    8000470c:	03095913          	srli	s2,s2,0x30
    80004710:	01234a33          	xor	s4,t1,s2
    80004714:	001a7a13          	andi	s4,s4,1
    80004718:	00195913          	srli	s2,s2,0x1
    8000471c:	000a0863          	beqz	s4,8000472c <core_bench_list+0x734>
    80004720:	00f94933          	xor	s2,s2,a5
    80004724:	03091913          	slli	s2,s2,0x30
    80004728:	03095913          	srli	s2,s2,0x30
    8000472c:	0128ca33          	xor	s4,a7,s2
    80004730:	001a7a13          	andi	s4,s4,1
    80004734:	00195913          	srli	s2,s2,0x1
    80004738:	000a0863          	beqz	s4,80004748 <core_bench_list+0x750>
    8000473c:	00f94933          	xor	s2,s2,a5
    80004740:	03091913          	slli	s2,s2,0x30
    80004744:	03095913          	srli	s2,s2,0x30
    80004748:	01284a33          	xor	s4,a6,s2
    8000474c:	001a7a13          	andi	s4,s4,1
    80004750:	00195913          	srli	s2,s2,0x1
    80004754:	000a0863          	beqz	s4,80004764 <core_bench_list+0x76c>
    80004758:	00f94933          	xor	s2,s2,a5
    8000475c:	03091913          	slli	s2,s2,0x30
    80004760:	03095913          	srli	s2,s2,0x30
    80004764:	00197a13          	andi	s4,s2,1
    80004768:	00195913          	srli	s2,s2,0x1
    8000476c:	00da0863          	beq	s4,a3,8000477c <core_bench_list+0x784>
    80004770:	00f94933          	xor	s2,s2,a5
    80004774:	03091913          	slli	s2,s2,0x30
    80004778:	03095913          	srli	s2,s2,0x30
    8000477c:	00073703          	ld	a4,0(a4)
    80004780:	e40712e3          	bnez	a4,800045c4 <core_bench_list+0x5cc>
    80004784:	06813083          	ld	ra,104(sp)
    80004788:	06013403          	ld	s0,96(sp)
    8000478c:	05813483          	ld	s1,88(sp)
    80004790:	04813983          	ld	s3,72(sp)
    80004794:	04013a03          	ld	s4,64(sp)
    80004798:	03813a83          	ld	s5,56(sp)
    8000479c:	03013b03          	ld	s6,48(sp)
    800047a0:	02813b83          	ld	s7,40(sp)
    800047a4:	02013c03          	ld	s8,32(sp)
    800047a8:	01813c83          	ld	s9,24(sp)
    800047ac:	01013d03          	ld	s10,16(sp)
    800047b0:	00813d83          	ld	s11,8(sp)
    800047b4:	00090513          	mv	a0,s2
    800047b8:	05013903          	ld	s2,80(sp)
    800047bc:	07010113          	addi	sp,sp,112
    800047c0:	00008067          	ret
    800047c4:	00100d13          	li	s10,1
    800047c8:	d80404e3          	beqz	s0,80004550 <core_bench_list+0x558>
    800047cc:	00000993          	li	s3,0
    800047d0:	00000b13          	li	s6,0
    800047d4:	00000b93          	li	s7,0
    800047d8:	001b8b9b          	addiw	s7,s7,1
    800047dc:	00040793          	mv	a5,s0
    800047e0:	00000493          	li	s1,0
    800047e4:	0007b783          	ld	a5,0(a5)
    800047e8:	0014849b          	addiw	s1,s1,1
    800047ec:	00078463          	beqz	a5,800047f4 <core_bench_list+0x7fc>
    800047f0:	ffa49ae3          	bne	s1,s10,800047e4 <core_bench_list+0x7ec>
    800047f4:	00040a93          	mv	s5,s0
    800047f8:	000d0a13          	mv	s4,s10
    800047fc:	00078413          	mv	s0,a5
    80004800:	02048e63          	beqz	s1,8000483c <core_bench_list+0x844>
    80004804:	040a0e63          	beqz	s4,80004860 <core_bench_list+0x868>
    80004808:	04040c63          	beqz	s0,80004860 <core_bench_list+0x868>
    8000480c:	00843583          	ld	a1,8(s0)
    80004810:	008ab503          	ld	a0,8(s5)
    80004814:	000d8613          	mv	a2,s11
    80004818:	bd1fe0ef          	jal	ra,800033e8 <cmp_complex>
    8000481c:	04a05263          	blez	a0,80004860 <core_bench_list+0x868>
    80004820:	00040793          	mv	a5,s0
    80004824:	00043403          	ld	s0,0(s0)
    80004828:	fffa0a1b          	addiw	s4,s4,-1
    8000482c:	02098463          	beqz	s3,80004854 <core_bench_list+0x85c>
    80004830:	00f9b023          	sd	a5,0(s3)
    80004834:	00078993          	mv	s3,a5
    80004838:	fc0496e3          	bnez	s1,80004804 <core_bench_list+0x80c>
    8000483c:	020a0a63          	beqz	s4,80004870 <core_bench_list+0x878>
    80004840:	02040a63          	beqz	s0,80004874 <core_bench_list+0x87c>
    80004844:	00040793          	mv	a5,s0
    80004848:	fffa0a1b          	addiw	s4,s4,-1
    8000484c:	00043403          	ld	s0,0(s0)
    80004850:	fe0990e3          	bnez	s3,80004830 <core_bench_list+0x838>
    80004854:	00078b13          	mv	s6,a5
    80004858:	00078993          	mv	s3,a5
    8000485c:	fddff06f          	j	80004838 <core_bench_list+0x840>
    80004860:	000a8793          	mv	a5,s5
    80004864:	fff4849b          	addiw	s1,s1,-1
    80004868:	000aba83          	ld	s5,0(s5)
    8000486c:	fc1ff06f          	j	8000482c <core_bench_list+0x834>
    80004870:	f60414e3          	bnez	s0,800047d8 <core_bench_list+0x7e0>
    80004874:	0009b023          	sd	zero,0(s3)
    80004878:	00100793          	li	a5,1
    8000487c:	00fb8863          	beq	s7,a5,8000488c <core_bench_list+0x894>
    80004880:	001d1d1b          	slliw	s10,s10,0x1
    80004884:	000b0413          	mv	s0,s6
    80004888:	f41ff06f          	j	800047c8 <core_bench_list+0x7d0>
    8000488c:	000b0413          	mv	s0,s6
    80004890:	89dff06f          	j	8000412c <core_bench_list+0x134>
    80004894:	00000913          	li	s2,0
    80004898:	00000c93          	li	s9,0
    8000489c:	88dff06f          	j	80004128 <core_bench_list+0x130>
    800048a0:	00003783          	ld	a5,0(zero) # 0 <_start-0x80000000>
    800048a4:	00100073          	ebreak

00000000800048a8 <iterate>:
    800048a8:	fd010113          	addi	sp,sp,-48
    800048ac:	00913c23          	sd	s1,24(sp)
    800048b0:	02c52483          	lw	s1,44(a0)
    800048b4:	02813023          	sd	s0,32(sp)
    800048b8:	01213823          	sd	s2,16(sp)
    800048bc:	01313423          	sd	s3,8(sp)
    800048c0:	02113423          	sd	ra,40(sp)
    800048c4:	ffffa937          	lui	s2,0xffffa
    800048c8:	06053023          	sd	zero,96(a0)
    800048cc:	00050993          	mv	s3,a0
    800048d0:	00000413          	li	s0,0
    800048d4:	00190913          	addi	s2,s2,1 # ffffffffffffa001 <_pmem_end+0xffffffff77ffa001>
    800048d8:	42048863          	beqz	s1,80004d08 <iterate+0x460>
    800048dc:	00100593          	li	a1,1
    800048e0:	00098513          	mv	a0,s3
    800048e4:	f14ff0ef          	jal	ra,80003ff8 <core_bench_list>
    800048e8:	0609d783          	lhu	a5,96(s3)
    800048ec:	0ff57693          	zext.b	a3,a0
    800048f0:	0016d613          	srli	a2,a3,0x1
    800048f4:	00a7c733          	xor	a4,a5,a0
    800048f8:	00177713          	andi	a4,a4,1
    800048fc:	42071663          	bnez	a4,80004d28 <iterate+0x480>
    80004900:	0017d793          	srli	a5,a5,0x1
    80004904:	00c7c633          	xor	a2,a5,a2
    80004908:	00167613          	andi	a2,a2,1
    8000490c:	0026d713          	srli	a4,a3,0x2
    80004910:	0017d793          	srli	a5,a5,0x1
    80004914:	00060863          	beqz	a2,80004924 <iterate+0x7c>
    80004918:	0127c7b3          	xor	a5,a5,s2
    8000491c:	03079793          	slli	a5,a5,0x30
    80004920:	0307d793          	srli	a5,a5,0x30
    80004924:	00e7c733          	xor	a4,a5,a4
    80004928:	00177713          	andi	a4,a4,1
    8000492c:	0036d613          	srli	a2,a3,0x3
    80004930:	0017d793          	srli	a5,a5,0x1
    80004934:	00070863          	beqz	a4,80004944 <iterate+0x9c>
    80004938:	0127c7b3          	xor	a5,a5,s2
    8000493c:	03079793          	slli	a5,a5,0x30
    80004940:	0307d793          	srli	a5,a5,0x30
    80004944:	00c7c633          	xor	a2,a5,a2
    80004948:	00167613          	andi	a2,a2,1
    8000494c:	0046d713          	srli	a4,a3,0x4
    80004950:	0017d793          	srli	a5,a5,0x1
    80004954:	00060863          	beqz	a2,80004964 <iterate+0xbc>
    80004958:	0127c7b3          	xor	a5,a5,s2
    8000495c:	03079793          	slli	a5,a5,0x30
    80004960:	0307d793          	srli	a5,a5,0x30
    80004964:	00e7c733          	xor	a4,a5,a4
    80004968:	00177713          	andi	a4,a4,1
    8000496c:	0056d613          	srli	a2,a3,0x5
    80004970:	0017d793          	srli	a5,a5,0x1
    80004974:	00070863          	beqz	a4,80004984 <iterate+0xdc>
    80004978:	0127c7b3          	xor	a5,a5,s2
    8000497c:	03079793          	slli	a5,a5,0x30
    80004980:	0307d793          	srli	a5,a5,0x30
    80004984:	00c7c633          	xor	a2,a5,a2
    80004988:	00167613          	andi	a2,a2,1
    8000498c:	0066d713          	srli	a4,a3,0x6
    80004990:	0017d793          	srli	a5,a5,0x1
    80004994:	00060863          	beqz	a2,800049a4 <iterate+0xfc>
    80004998:	0127c7b3          	xor	a5,a5,s2
    8000499c:	03079793          	slli	a5,a5,0x30
    800049a0:	0307d793          	srli	a5,a5,0x30
    800049a4:	00e7c733          	xor	a4,a5,a4
    800049a8:	00177713          	andi	a4,a4,1
    800049ac:	0076d693          	srli	a3,a3,0x7
    800049b0:	0017d793          	srli	a5,a5,0x1
    800049b4:	00070863          	beqz	a4,800049c4 <iterate+0x11c>
    800049b8:	0127c7b3          	xor	a5,a5,s2
    800049bc:	03079793          	slli	a5,a5,0x30
    800049c0:	0307d793          	srli	a5,a5,0x30
    800049c4:	0017f713          	andi	a4,a5,1
    800049c8:	0017d793          	srli	a5,a5,0x1
    800049cc:	00d70863          	beq	a4,a3,800049dc <iterate+0x134>
    800049d0:	0127c7b3          	xor	a5,a5,s2
    800049d4:	03079793          	slli	a5,a5,0x30
    800049d8:	0307d793          	srli	a5,a5,0x30
    800049dc:	0085551b          	srliw	a0,a0,0x8
    800049e0:	00a7c6b3          	xor	a3,a5,a0
    800049e4:	0ff57713          	zext.b	a4,a0
    800049e8:	0016f693          	andi	a3,a3,1
    800049ec:	00175613          	srli	a2,a4,0x1
    800049f0:	0017d793          	srli	a5,a5,0x1
    800049f4:	00068863          	beqz	a3,80004a04 <iterate+0x15c>
    800049f8:	0127c7b3          	xor	a5,a5,s2
    800049fc:	03079793          	slli	a5,a5,0x30
    80004a00:	0307d793          	srli	a5,a5,0x30
    80004a04:	00c7c633          	xor	a2,a5,a2
    80004a08:	00167613          	andi	a2,a2,1
    80004a0c:	00275693          	srli	a3,a4,0x2
    80004a10:	0017d793          	srli	a5,a5,0x1
    80004a14:	00060863          	beqz	a2,80004a24 <iterate+0x17c>
    80004a18:	0127c7b3          	xor	a5,a5,s2
    80004a1c:	03079793          	slli	a5,a5,0x30
    80004a20:	0307d793          	srli	a5,a5,0x30
    80004a24:	00d7c6b3          	xor	a3,a5,a3
    80004a28:	0016f693          	andi	a3,a3,1
    80004a2c:	00375613          	srli	a2,a4,0x3
    80004a30:	0017d793          	srli	a5,a5,0x1
    80004a34:	00068863          	beqz	a3,80004a44 <iterate+0x19c>
    80004a38:	0127c7b3          	xor	a5,a5,s2
    80004a3c:	03079793          	slli	a5,a5,0x30
    80004a40:	0307d793          	srli	a5,a5,0x30
    80004a44:	00c7c633          	xor	a2,a5,a2
    80004a48:	00167613          	andi	a2,a2,1
    80004a4c:	00475693          	srli	a3,a4,0x4
    80004a50:	0017d793          	srli	a5,a5,0x1
    80004a54:	00060863          	beqz	a2,80004a64 <iterate+0x1bc>
    80004a58:	0127c7b3          	xor	a5,a5,s2
    80004a5c:	03079793          	slli	a5,a5,0x30
    80004a60:	0307d793          	srli	a5,a5,0x30
    80004a64:	00d7c6b3          	xor	a3,a5,a3
    80004a68:	0016f693          	andi	a3,a3,1
    80004a6c:	00575613          	srli	a2,a4,0x5
    80004a70:	0017d793          	srli	a5,a5,0x1
    80004a74:	00068863          	beqz	a3,80004a84 <iterate+0x1dc>
    80004a78:	0127c7b3          	xor	a5,a5,s2
    80004a7c:	03079793          	slli	a5,a5,0x30
    80004a80:	0307d793          	srli	a5,a5,0x30
    80004a84:	00c7c633          	xor	a2,a5,a2
    80004a88:	00167613          	andi	a2,a2,1
    80004a8c:	00675693          	srli	a3,a4,0x6
    80004a90:	0017d793          	srli	a5,a5,0x1
    80004a94:	00060863          	beqz	a2,80004aa4 <iterate+0x1fc>
    80004a98:	0127c7b3          	xor	a5,a5,s2
    80004a9c:	03079793          	slli	a5,a5,0x30
    80004aa0:	0307d793          	srli	a5,a5,0x30
    80004aa4:	00d7c6b3          	xor	a3,a5,a3
    80004aa8:	0016f693          	andi	a3,a3,1
    80004aac:	00775713          	srli	a4,a4,0x7
    80004ab0:	0017d793          	srli	a5,a5,0x1
    80004ab4:	00068863          	beqz	a3,80004ac4 <iterate+0x21c>
    80004ab8:	0127c7b3          	xor	a5,a5,s2
    80004abc:	03079793          	slli	a5,a5,0x30
    80004ac0:	0307d793          	srli	a5,a5,0x30
    80004ac4:	00e7c733          	xor	a4,a5,a4
    80004ac8:	00177713          	andi	a4,a4,1
    80004acc:	0017d793          	srli	a5,a5,0x1
    80004ad0:	00070863          	beqz	a4,80004ae0 <iterate+0x238>
    80004ad4:	0127c7b3          	xor	a5,a5,s2
    80004ad8:	03079793          	slli	a5,a5,0x30
    80004adc:	0307d793          	srli	a5,a5,0x30
    80004ae0:	06f99023          	sh	a5,96(s3)
    80004ae4:	fff00593          	li	a1,-1
    80004ae8:	00098513          	mv	a0,s3
    80004aec:	d0cff0ef          	jal	ra,80003ff8 <core_bench_list>
    80004af0:	0609d583          	lhu	a1,96(s3)
    80004af4:	0ff57693          	zext.b	a3,a0
    80004af8:	0016d613          	srli	a2,a3,0x1
    80004afc:	00a5c733          	xor	a4,a1,a0
    80004b00:	00177713          	andi	a4,a4,1
    80004b04:	0015d793          	srli	a5,a1,0x1
    80004b08:	00070a63          	beqz	a4,80004b1c <iterate+0x274>
    80004b0c:	0015d79b          	srliw	a5,a1,0x1
    80004b10:	00f947b3          	xor	a5,s2,a5
    80004b14:	03079793          	slli	a5,a5,0x30
    80004b18:	0307d793          	srli	a5,a5,0x30
    80004b1c:	00c7c633          	xor	a2,a5,a2
    80004b20:	00167613          	andi	a2,a2,1
    80004b24:	0026d713          	srli	a4,a3,0x2
    80004b28:	0017d793          	srli	a5,a5,0x1
    80004b2c:	00060863          	beqz	a2,80004b3c <iterate+0x294>
    80004b30:	0127c7b3          	xor	a5,a5,s2
    80004b34:	03079793          	slli	a5,a5,0x30
    80004b38:	0307d793          	srli	a5,a5,0x30
    80004b3c:	00e7c733          	xor	a4,a5,a4
    80004b40:	00177713          	andi	a4,a4,1
    80004b44:	0036d613          	srli	a2,a3,0x3
    80004b48:	0017d793          	srli	a5,a5,0x1
    80004b4c:	00070863          	beqz	a4,80004b5c <iterate+0x2b4>
    80004b50:	0127c7b3          	xor	a5,a5,s2
    80004b54:	03079793          	slli	a5,a5,0x30
    80004b58:	0307d793          	srli	a5,a5,0x30
    80004b5c:	00c7c633          	xor	a2,a5,a2
    80004b60:	00167613          	andi	a2,a2,1
    80004b64:	0046d713          	srli	a4,a3,0x4
    80004b68:	0017d793          	srli	a5,a5,0x1
    80004b6c:	00060863          	beqz	a2,80004b7c <iterate+0x2d4>
    80004b70:	0127c7b3          	xor	a5,a5,s2
    80004b74:	03079793          	slli	a5,a5,0x30
    80004b78:	0307d793          	srli	a5,a5,0x30
    80004b7c:	00e7c733          	xor	a4,a5,a4
    80004b80:	00177713          	andi	a4,a4,1
    80004b84:	0056d613          	srli	a2,a3,0x5
    80004b88:	0017d793          	srli	a5,a5,0x1
    80004b8c:	00070863          	beqz	a4,80004b9c <iterate+0x2f4>
    80004b90:	0127c7b3          	xor	a5,a5,s2
    80004b94:	03079793          	slli	a5,a5,0x30
    80004b98:	0307d793          	srli	a5,a5,0x30
    80004b9c:	00c7c633          	xor	a2,a5,a2
    80004ba0:	00167613          	andi	a2,a2,1
    80004ba4:	0066d713          	srli	a4,a3,0x6
    80004ba8:	0017d793          	srli	a5,a5,0x1
    80004bac:	00060863          	beqz	a2,80004bbc <iterate+0x314>
    80004bb0:	0127c7b3          	xor	a5,a5,s2
    80004bb4:	03079793          	slli	a5,a5,0x30
    80004bb8:	0307d793          	srli	a5,a5,0x30
    80004bbc:	00e7c733          	xor	a4,a5,a4
    80004bc0:	00177713          	andi	a4,a4,1
    80004bc4:	0076d693          	srli	a3,a3,0x7
    80004bc8:	0017d793          	srli	a5,a5,0x1
    80004bcc:	00070863          	beqz	a4,80004bdc <iterate+0x334>
    80004bd0:	0127c7b3          	xor	a5,a5,s2
    80004bd4:	03079793          	slli	a5,a5,0x30
    80004bd8:	0307d793          	srli	a5,a5,0x30
    80004bdc:	0017f713          	andi	a4,a5,1
    80004be0:	0017d793          	srli	a5,a5,0x1
    80004be4:	00d70863          	beq	a4,a3,80004bf4 <iterate+0x34c>
    80004be8:	0127c7b3          	xor	a5,a5,s2
    80004bec:	03079793          	slli	a5,a5,0x30
    80004bf0:	0307d793          	srli	a5,a5,0x30
    80004bf4:	0085571b          	srliw	a4,a0,0x8
    80004bf8:	00e7c6b3          	xor	a3,a5,a4
    80004bfc:	0016f693          	andi	a3,a3,1
    80004c00:	0ff77713          	zext.b	a4,a4
    80004c04:	00175613          	srli	a2,a4,0x1
    80004c08:	0017d793          	srli	a5,a5,0x1
    80004c0c:	00068863          	beqz	a3,80004c1c <iterate+0x374>
    80004c10:	0127c7b3          	xor	a5,a5,s2
    80004c14:	03079793          	slli	a5,a5,0x30
    80004c18:	0307d793          	srli	a5,a5,0x30
    80004c1c:	00c7c633          	xor	a2,a5,a2
    80004c20:	00167613          	andi	a2,a2,1
    80004c24:	00275693          	srli	a3,a4,0x2
    80004c28:	0017d793          	srli	a5,a5,0x1
    80004c2c:	00060863          	beqz	a2,80004c3c <iterate+0x394>
    80004c30:	0127c7b3          	xor	a5,a5,s2
    80004c34:	03079793          	slli	a5,a5,0x30
    80004c38:	0307d793          	srli	a5,a5,0x30
    80004c3c:	00d7c6b3          	xor	a3,a5,a3
    80004c40:	0016f693          	andi	a3,a3,1
    80004c44:	00375613          	srli	a2,a4,0x3
    80004c48:	0017d793          	srli	a5,a5,0x1
    80004c4c:	00068863          	beqz	a3,80004c5c <iterate+0x3b4>
    80004c50:	0127c7b3          	xor	a5,a5,s2
    80004c54:	03079793          	slli	a5,a5,0x30
    80004c58:	0307d793          	srli	a5,a5,0x30
    80004c5c:	00c7c633          	xor	a2,a5,a2
    80004c60:	00167613          	andi	a2,a2,1
    80004c64:	00475693          	srli	a3,a4,0x4
    80004c68:	0017d793          	srli	a5,a5,0x1
    80004c6c:	00060863          	beqz	a2,80004c7c <iterate+0x3d4>
    80004c70:	0127c7b3          	xor	a5,a5,s2
    80004c74:	03079793          	slli	a5,a5,0x30
    80004c78:	0307d793          	srli	a5,a5,0x30
    80004c7c:	00d7c6b3          	xor	a3,a5,a3
    80004c80:	0016f693          	andi	a3,a3,1
    80004c84:	00575613          	srli	a2,a4,0x5
    80004c88:	0017d793          	srli	a5,a5,0x1
    80004c8c:	00068863          	beqz	a3,80004c9c <iterate+0x3f4>
    80004c90:	0127c7b3          	xor	a5,a5,s2
    80004c94:	03079793          	slli	a5,a5,0x30
    80004c98:	0307d793          	srli	a5,a5,0x30
    80004c9c:	00c7c633          	xor	a2,a5,a2
    80004ca0:	00167613          	andi	a2,a2,1
    80004ca4:	00675693          	srli	a3,a4,0x6
    80004ca8:	0017d793          	srli	a5,a5,0x1
    80004cac:	00060863          	beqz	a2,80004cbc <iterate+0x414>
    80004cb0:	0127c7b3          	xor	a5,a5,s2
    80004cb4:	03079793          	slli	a5,a5,0x30
    80004cb8:	0307d793          	srli	a5,a5,0x30
    80004cbc:	00d7c6b3          	xor	a3,a5,a3
    80004cc0:	0016f693          	andi	a3,a3,1
    80004cc4:	00775713          	srli	a4,a4,0x7
    80004cc8:	0017d793          	srli	a5,a5,0x1
    80004ccc:	00068863          	beqz	a3,80004cdc <iterate+0x434>
    80004cd0:	0127c7b3          	xor	a5,a5,s2
    80004cd4:	03079793          	slli	a5,a5,0x30
    80004cd8:	0307d793          	srli	a5,a5,0x30
    80004cdc:	00e7c733          	xor	a4,a5,a4
    80004ce0:	00177713          	andi	a4,a4,1
    80004ce4:	0017d793          	srli	a5,a5,0x1
    80004ce8:	00070863          	beqz	a4,80004cf8 <iterate+0x450>
    80004cec:	0127c7b3          	xor	a5,a5,s2
    80004cf0:	03079793          	slli	a5,a5,0x30
    80004cf4:	0307d793          	srli	a5,a5,0x30
    80004cf8:	06f99023          	sh	a5,96(s3)
    80004cfc:	04040063          	beqz	s0,80004d3c <iterate+0x494>
    80004d00:	0014041b          	addiw	s0,s0,1
    80004d04:	bc849ce3          	bne	s1,s0,800048dc <iterate+0x34>
    80004d08:	02813083          	ld	ra,40(sp)
    80004d0c:	02013403          	ld	s0,32(sp)
    80004d10:	01813483          	ld	s1,24(sp)
    80004d14:	01013903          	ld	s2,16(sp)
    80004d18:	00813983          	ld	s3,8(sp)
    80004d1c:	00000513          	li	a0,0
    80004d20:	03010113          	addi	sp,sp,48
    80004d24:	00008067          	ret
    80004d28:	0017d79b          	srliw	a5,a5,0x1
    80004d2c:	00f947b3          	xor	a5,s2,a5
    80004d30:	03079793          	slli	a5,a5,0x30
    80004d34:	0307d793          	srli	a5,a5,0x30
    80004d38:	bcdff06f          	j	80004904 <iterate+0x5c>
    80004d3c:	06f99123          	sh	a5,98(s3)
    80004d40:	00100793          	li	a5,1
    80004d44:	fcf482e3          	beq	s1,a5,80004d08 <iterate+0x460>
    80004d48:	00100413          	li	s0,1
    80004d4c:	b91ff06f          	j	800048dc <iterate+0x34>

0000000080004d50 <get_seed_32>:
    80004d50:	00500793          	li	a5,5
    80004d54:	04a7ee63          	bltu	a5,a0,80004db0 <get_seed_32+0x60>
    80004d58:	00003717          	auipc	a4,0x3
    80004d5c:	32870713          	addi	a4,a4,808 # 80008080 <printf_+0x54>
    80004d60:	00251513          	slli	a0,a0,0x2
    80004d64:	00e50533          	add	a0,a0,a4
    80004d68:	00052783          	lw	a5,0(a0)
    80004d6c:	00e787b3          	add	a5,a5,a4
    80004d70:	00078067          	jr	a5
    80004d74:	00005517          	auipc	a0,0x5
    80004d78:	ca452503          	lw	a0,-860(a0) # 80009a18 <seed5_volatile>
    80004d7c:	00008067          	ret
    80004d80:	00005517          	auipc	a0,0x5
    80004d84:	ca052503          	lw	a0,-864(a0) # 80009a20 <seed1_volatile>
    80004d88:	00008067          	ret
    80004d8c:	00005517          	auipc	a0,0x5
    80004d90:	c9052503          	lw	a0,-880(a0) # 80009a1c <seed2_volatile>
    80004d94:	00008067          	ret
    80004d98:	00004517          	auipc	a0,0x4
    80004d9c:	c8052503          	lw	a0,-896(a0) # 80008a18 <seed3_volatile>
    80004da0:	00008067          	ret
    80004da4:	00004517          	auipc	a0,0x4
    80004da8:	c7052503          	lw	a0,-912(a0) # 80008a14 <seed4_volatile>
    80004dac:	00008067          	ret
    80004db0:	00000513          	li	a0,0
    80004db4:	00008067          	ret

0000000080004db8 <crcu8>:
    80004db8:	00b546b3          	xor	a3,a0,a1
    80004dbc:	0016f693          	andi	a3,a3,1
    80004dc0:	00155713          	srli	a4,a0,0x1
    80004dc4:	0015d793          	srli	a5,a1,0x1
    80004dc8:	00068c63          	beqz	a3,80004de0 <crcu8+0x28>
    80004dcc:	ffffa6b7          	lui	a3,0xffffa
    80004dd0:	00168693          	addi	a3,a3,1 # ffffffffffffa001 <_pmem_end+0xffffffff77ffa001>
    80004dd4:	00d7c7b3          	xor	a5,a5,a3
    80004dd8:	03079793          	slli	a5,a5,0x30
    80004ddc:	0307d793          	srli	a5,a5,0x30
    80004de0:	00e7c733          	xor	a4,a5,a4
    80004de4:	00177713          	andi	a4,a4,1
    80004de8:	00255693          	srli	a3,a0,0x2
    80004dec:	0017d793          	srli	a5,a5,0x1
    80004df0:	00070c63          	beqz	a4,80004e08 <crcu8+0x50>
    80004df4:	ffffa737          	lui	a4,0xffffa
    80004df8:	00170713          	addi	a4,a4,1 # ffffffffffffa001 <_pmem_end+0xffffffff77ffa001>
    80004dfc:	00e7c7b3          	xor	a5,a5,a4
    80004e00:	03079793          	slli	a5,a5,0x30
    80004e04:	0307d793          	srli	a5,a5,0x30
    80004e08:	00d7c6b3          	xor	a3,a5,a3
    80004e0c:	0016f693          	andi	a3,a3,1
    80004e10:	00355713          	srli	a4,a0,0x3
    80004e14:	0017d793          	srli	a5,a5,0x1
    80004e18:	00068c63          	beqz	a3,80004e30 <crcu8+0x78>
    80004e1c:	ffffa6b7          	lui	a3,0xffffa
    80004e20:	00168693          	addi	a3,a3,1 # ffffffffffffa001 <_pmem_end+0xffffffff77ffa001>
    80004e24:	00d7c7b3          	xor	a5,a5,a3
    80004e28:	03079793          	slli	a5,a5,0x30
    80004e2c:	0307d793          	srli	a5,a5,0x30
    80004e30:	00e7c733          	xor	a4,a5,a4
    80004e34:	00177713          	andi	a4,a4,1
    80004e38:	00455693          	srli	a3,a0,0x4
    80004e3c:	0017d793          	srli	a5,a5,0x1
    80004e40:	00070c63          	beqz	a4,80004e58 <crcu8+0xa0>
    80004e44:	ffffa737          	lui	a4,0xffffa
    80004e48:	00170713          	addi	a4,a4,1 # ffffffffffffa001 <_pmem_end+0xffffffff77ffa001>
    80004e4c:	00e7c7b3          	xor	a5,a5,a4
    80004e50:	03079793          	slli	a5,a5,0x30
    80004e54:	0307d793          	srli	a5,a5,0x30
    80004e58:	00d7c6b3          	xor	a3,a5,a3
    80004e5c:	0016f693          	andi	a3,a3,1
    80004e60:	00555713          	srli	a4,a0,0x5
    80004e64:	0017d793          	srli	a5,a5,0x1
    80004e68:	00068c63          	beqz	a3,80004e80 <crcu8+0xc8>
    80004e6c:	ffffa6b7          	lui	a3,0xffffa
    80004e70:	00168693          	addi	a3,a3,1 # ffffffffffffa001 <_pmem_end+0xffffffff77ffa001>
    80004e74:	00d7c7b3          	xor	a5,a5,a3
    80004e78:	03079793          	slli	a5,a5,0x30
    80004e7c:	0307d793          	srli	a5,a5,0x30
    80004e80:	00e7c733          	xor	a4,a5,a4
    80004e84:	00177713          	andi	a4,a4,1
    80004e88:	00655693          	srli	a3,a0,0x6
    80004e8c:	0017d793          	srli	a5,a5,0x1
    80004e90:	00070c63          	beqz	a4,80004ea8 <crcu8+0xf0>
    80004e94:	ffffa737          	lui	a4,0xffffa
    80004e98:	00170713          	addi	a4,a4,1 # ffffffffffffa001 <_pmem_end+0xffffffff77ffa001>
    80004e9c:	00e7c7b3          	xor	a5,a5,a4
    80004ea0:	03079793          	slli	a5,a5,0x30
    80004ea4:	0307d793          	srli	a5,a5,0x30
    80004ea8:	00d7c6b3          	xor	a3,a5,a3
    80004eac:	0016f693          	andi	a3,a3,1
    80004eb0:	00755713          	srli	a4,a0,0x7
    80004eb4:	0017d513          	srli	a0,a5,0x1
    80004eb8:	00068c63          	beqz	a3,80004ed0 <crcu8+0x118>
    80004ebc:	ffffa7b7          	lui	a5,0xffffa
    80004ec0:	00178793          	addi	a5,a5,1 # ffffffffffffa001 <_pmem_end+0xffffffff77ffa001>
    80004ec4:	00f54533          	xor	a0,a0,a5
    80004ec8:	03051513          	slli	a0,a0,0x30
    80004ecc:	03055513          	srli	a0,a0,0x30
    80004ed0:	00157793          	andi	a5,a0,1
    80004ed4:	00155513          	srli	a0,a0,0x1
    80004ed8:	00e78c63          	beq	a5,a4,80004ef0 <crcu8+0x138>
    80004edc:	ffffa7b7          	lui	a5,0xffffa
    80004ee0:	00178793          	addi	a5,a5,1 # ffffffffffffa001 <_pmem_end+0xffffffff77ffa001>
    80004ee4:	00f54533          	xor	a0,a0,a5
    80004ee8:	03051513          	slli	a0,a0,0x30
    80004eec:	03055513          	srli	a0,a0,0x30
    80004ef0:	00008067          	ret

0000000080004ef4 <crcu16>:
    80004ef4:	00a5c6b3          	xor	a3,a1,a0
    80004ef8:	0ff57713          	zext.b	a4,a0
    80004efc:	0016f693          	andi	a3,a3,1
    80004f00:	00050793          	mv	a5,a0
    80004f04:	00175613          	srli	a2,a4,0x1
    80004f08:	0015d513          	srli	a0,a1,0x1
    80004f0c:	00068c63          	beqz	a3,80004f24 <crcu16+0x30>
    80004f10:	ffffa6b7          	lui	a3,0xffffa
    80004f14:	00168693          	addi	a3,a3,1 # ffffffffffffa001 <_pmem_end+0xffffffff77ffa001>
    80004f18:	00d54533          	xor	a0,a0,a3
    80004f1c:	03051513          	slli	a0,a0,0x30
    80004f20:	03055513          	srli	a0,a0,0x30
    80004f24:	00c54633          	xor	a2,a0,a2
    80004f28:	00167613          	andi	a2,a2,1
    80004f2c:	00275693          	srli	a3,a4,0x2
    80004f30:	00155513          	srli	a0,a0,0x1
    80004f34:	00060c63          	beqz	a2,80004f4c <crcu16+0x58>
    80004f38:	ffffa637          	lui	a2,0xffffa
    80004f3c:	00160613          	addi	a2,a2,1 # ffffffffffffa001 <_pmem_end+0xffffffff77ffa001>
    80004f40:	00c54533          	xor	a0,a0,a2
    80004f44:	03051513          	slli	a0,a0,0x30
    80004f48:	03055513          	srli	a0,a0,0x30
    80004f4c:	00d546b3          	xor	a3,a0,a3
    80004f50:	0016f693          	andi	a3,a3,1
    80004f54:	00375613          	srli	a2,a4,0x3
    80004f58:	00155513          	srli	a0,a0,0x1
    80004f5c:	00068c63          	beqz	a3,80004f74 <crcu16+0x80>
    80004f60:	ffffa6b7          	lui	a3,0xffffa
    80004f64:	00168693          	addi	a3,a3,1 # ffffffffffffa001 <_pmem_end+0xffffffff77ffa001>
    80004f68:	00d54533          	xor	a0,a0,a3
    80004f6c:	03051513          	slli	a0,a0,0x30
    80004f70:	03055513          	srli	a0,a0,0x30
    80004f74:	00c54633          	xor	a2,a0,a2
    80004f78:	00167613          	andi	a2,a2,1
    80004f7c:	00475693          	srli	a3,a4,0x4
    80004f80:	00155513          	srli	a0,a0,0x1
    80004f84:	00060c63          	beqz	a2,80004f9c <crcu16+0xa8>
    80004f88:	ffffa637          	lui	a2,0xffffa
    80004f8c:	00160613          	addi	a2,a2,1 # ffffffffffffa001 <_pmem_end+0xffffffff77ffa001>
    80004f90:	00c54533          	xor	a0,a0,a2
    80004f94:	03051513          	slli	a0,a0,0x30
    80004f98:	03055513          	srli	a0,a0,0x30
    80004f9c:	00d546b3          	xor	a3,a0,a3
    80004fa0:	0016f693          	andi	a3,a3,1
    80004fa4:	00575613          	srli	a2,a4,0x5
    80004fa8:	00155513          	srli	a0,a0,0x1
    80004fac:	00068c63          	beqz	a3,80004fc4 <crcu16+0xd0>
    80004fb0:	ffffa6b7          	lui	a3,0xffffa
    80004fb4:	00168693          	addi	a3,a3,1 # ffffffffffffa001 <_pmem_end+0xffffffff77ffa001>
    80004fb8:	00d54533          	xor	a0,a0,a3
    80004fbc:	03051513          	slli	a0,a0,0x30
    80004fc0:	03055513          	srli	a0,a0,0x30
    80004fc4:	00c54633          	xor	a2,a0,a2
    80004fc8:	00167613          	andi	a2,a2,1
    80004fcc:	00675693          	srli	a3,a4,0x6
    80004fd0:	00155513          	srli	a0,a0,0x1
    80004fd4:	00060c63          	beqz	a2,80004fec <crcu16+0xf8>
    80004fd8:	ffffa637          	lui	a2,0xffffa
    80004fdc:	00160613          	addi	a2,a2,1 # ffffffffffffa001 <_pmem_end+0xffffffff77ffa001>
    80004fe0:	00c54533          	xor	a0,a0,a2
    80004fe4:	03051513          	slli	a0,a0,0x30
    80004fe8:	03055513          	srli	a0,a0,0x30
    80004fec:	00d546b3          	xor	a3,a0,a3
    80004ff0:	0016f693          	andi	a3,a3,1
    80004ff4:	00775713          	srli	a4,a4,0x7
    80004ff8:	00155513          	srli	a0,a0,0x1
    80004ffc:	00068c63          	beqz	a3,80005014 <crcu16+0x120>
    80005000:	ffffa6b7          	lui	a3,0xffffa
    80005004:	00168693          	addi	a3,a3,1 # ffffffffffffa001 <_pmem_end+0xffffffff77ffa001>
    80005008:	00d54533          	xor	a0,a0,a3
    8000500c:	03051513          	slli	a0,a0,0x30
    80005010:	03055513          	srli	a0,a0,0x30
    80005014:	00157693          	andi	a3,a0,1
    80005018:	00155513          	srli	a0,a0,0x1
    8000501c:	00e68c63          	beq	a3,a4,80005034 <crcu16+0x140>
    80005020:	ffffa737          	lui	a4,0xffffa
    80005024:	00170713          	addi	a4,a4,1 # ffffffffffffa001 <_pmem_end+0xffffffff77ffa001>
    80005028:	00e54533          	xor	a0,a0,a4
    8000502c:	03051513          	slli	a0,a0,0x30
    80005030:	03055513          	srli	a0,a0,0x30
    80005034:	0087d613          	srli	a2,a5,0x8
    80005038:	00a64633          	xor	a2,a2,a0
    8000503c:	00167613          	andi	a2,a2,1
    80005040:	0087d693          	srli	a3,a5,0x8
    80005044:	0097d713          	srli	a4,a5,0x9
    80005048:	00155513          	srli	a0,a0,0x1
    8000504c:	00060c63          	beqz	a2,80005064 <crcu16+0x170>
    80005050:	ffffa7b7          	lui	a5,0xffffa
    80005054:	00178793          	addi	a5,a5,1 # ffffffffffffa001 <_pmem_end+0xffffffff77ffa001>
    80005058:	00f54533          	xor	a0,a0,a5
    8000505c:	03051513          	slli	a0,a0,0x30
    80005060:	03055513          	srli	a0,a0,0x30
    80005064:	00a74733          	xor	a4,a4,a0
    80005068:	00177713          	andi	a4,a4,1
    8000506c:	0026d793          	srli	a5,a3,0x2
    80005070:	00155513          	srli	a0,a0,0x1
    80005074:	00070c63          	beqz	a4,8000508c <crcu16+0x198>
    80005078:	ffffa737          	lui	a4,0xffffa
    8000507c:	00170713          	addi	a4,a4,1 # ffffffffffffa001 <_pmem_end+0xffffffff77ffa001>
    80005080:	00e54533          	xor	a0,a0,a4
    80005084:	03051513          	slli	a0,a0,0x30
    80005088:	03055513          	srli	a0,a0,0x30
    8000508c:	00f54733          	xor	a4,a0,a5
    80005090:	00177713          	andi	a4,a4,1
    80005094:	0036d793          	srli	a5,a3,0x3
    80005098:	00155513          	srli	a0,a0,0x1
    8000509c:	00070c63          	beqz	a4,800050b4 <crcu16+0x1c0>
    800050a0:	ffffa737          	lui	a4,0xffffa
    800050a4:	00170713          	addi	a4,a4,1 # ffffffffffffa001 <_pmem_end+0xffffffff77ffa001>
    800050a8:	00e54533          	xor	a0,a0,a4
    800050ac:	03051513          	slli	a0,a0,0x30
    800050b0:	03055513          	srli	a0,a0,0x30
    800050b4:	00f547b3          	xor	a5,a0,a5
    800050b8:	0017f793          	andi	a5,a5,1
    800050bc:	0046d713          	srli	a4,a3,0x4
    800050c0:	00155513          	srli	a0,a0,0x1
    800050c4:	00078c63          	beqz	a5,800050dc <crcu16+0x1e8>
    800050c8:	ffffa7b7          	lui	a5,0xffffa
    800050cc:	00178793          	addi	a5,a5,1 # ffffffffffffa001 <_pmem_end+0xffffffff77ffa001>
    800050d0:	00f54533          	xor	a0,a0,a5
    800050d4:	03051513          	slli	a0,a0,0x30
    800050d8:	03055513          	srli	a0,a0,0x30
    800050dc:	00e54733          	xor	a4,a0,a4
    800050e0:	00177713          	andi	a4,a4,1
    800050e4:	0056d793          	srli	a5,a3,0x5
    800050e8:	00155513          	srli	a0,a0,0x1
    800050ec:	00070c63          	beqz	a4,80005104 <crcu16+0x210>
    800050f0:	ffffa737          	lui	a4,0xffffa
    800050f4:	00170713          	addi	a4,a4,1 # ffffffffffffa001 <_pmem_end+0xffffffff77ffa001>
    800050f8:	00e54533          	xor	a0,a0,a4
    800050fc:	03051513          	slli	a0,a0,0x30
    80005100:	03055513          	srli	a0,a0,0x30
    80005104:	00f547b3          	xor	a5,a0,a5
    80005108:	0017f793          	andi	a5,a5,1
    8000510c:	0066d713          	srli	a4,a3,0x6
    80005110:	00155513          	srli	a0,a0,0x1
    80005114:	00078c63          	beqz	a5,8000512c <crcu16+0x238>
    80005118:	ffffa7b7          	lui	a5,0xffffa
    8000511c:	00178793          	addi	a5,a5,1 # ffffffffffffa001 <_pmem_end+0xffffffff77ffa001>
    80005120:	00f54533          	xor	a0,a0,a5
    80005124:	03051513          	slli	a0,a0,0x30
    80005128:	03055513          	srli	a0,a0,0x30
    8000512c:	00e54733          	xor	a4,a0,a4
    80005130:	00177713          	andi	a4,a4,1
    80005134:	0076d793          	srli	a5,a3,0x7
    80005138:	00155513          	srli	a0,a0,0x1
    8000513c:	00070c63          	beqz	a4,80005154 <crcu16+0x260>
    80005140:	ffffa737          	lui	a4,0xffffa
    80005144:	00170713          	addi	a4,a4,1 # ffffffffffffa001 <_pmem_end+0xffffffff77ffa001>
    80005148:	00e54533          	xor	a0,a0,a4
    8000514c:	03051513          	slli	a0,a0,0x30
    80005150:	03055513          	srli	a0,a0,0x30
    80005154:	00a7c7b3          	xor	a5,a5,a0
    80005158:	0017f793          	andi	a5,a5,1
    8000515c:	00155513          	srli	a0,a0,0x1
    80005160:	00078c63          	beqz	a5,80005178 <crcu16+0x284>
    80005164:	ffffa7b7          	lui	a5,0xffffa
    80005168:	00178793          	addi	a5,a5,1 # ffffffffffffa001 <_pmem_end+0xffffffff77ffa001>
    8000516c:	00f54533          	xor	a0,a0,a5
    80005170:	03051513          	slli	a0,a0,0x30
    80005174:	03055513          	srli	a0,a0,0x30
    80005178:	00008067          	ret

000000008000517c <crcu32>:
    8000517c:	00b54833          	xor	a6,a0,a1
    80005180:	0ff57713          	zext.b	a4,a0
    80005184:	03051693          	slli	a3,a0,0x30
    80005188:	00187813          	andi	a6,a6,1
    8000518c:	00050793          	mv	a5,a0
    80005190:	0306d693          	srli	a3,a3,0x30
    80005194:	00175613          	srli	a2,a4,0x1
    80005198:	0015d513          	srli	a0,a1,0x1
    8000519c:	00080c63          	beqz	a6,800051b4 <crcu32+0x38>
    800051a0:	ffffa5b7          	lui	a1,0xffffa
    800051a4:	00158593          	addi	a1,a1,1 # ffffffffffffa001 <_pmem_end+0xffffffff77ffa001>
    800051a8:	00b54533          	xor	a0,a0,a1
    800051ac:	03051513          	slli	a0,a0,0x30
    800051b0:	03055513          	srli	a0,a0,0x30
    800051b4:	00c545b3          	xor	a1,a0,a2
    800051b8:	0015f593          	andi	a1,a1,1
    800051bc:	00275613          	srli	a2,a4,0x2
    800051c0:	00155513          	srli	a0,a0,0x1
    800051c4:	00058c63          	beqz	a1,800051dc <crcu32+0x60>
    800051c8:	ffffa5b7          	lui	a1,0xffffa
    800051cc:	00158593          	addi	a1,a1,1 # ffffffffffffa001 <_pmem_end+0xffffffff77ffa001>
    800051d0:	00b54533          	xor	a0,a0,a1
    800051d4:	03051513          	slli	a0,a0,0x30
    800051d8:	03055513          	srli	a0,a0,0x30
    800051dc:	00c54633          	xor	a2,a0,a2
    800051e0:	00167613          	andi	a2,a2,1
    800051e4:	00375593          	srli	a1,a4,0x3
    800051e8:	00155513          	srli	a0,a0,0x1
    800051ec:	00060c63          	beqz	a2,80005204 <crcu32+0x88>
    800051f0:	ffffa637          	lui	a2,0xffffa
    800051f4:	00160613          	addi	a2,a2,1 # ffffffffffffa001 <_pmem_end+0xffffffff77ffa001>
    800051f8:	00c54533          	xor	a0,a0,a2
    800051fc:	03051513          	slli	a0,a0,0x30
    80005200:	03055513          	srli	a0,a0,0x30
    80005204:	00b545b3          	xor	a1,a0,a1
    80005208:	0015f593          	andi	a1,a1,1
    8000520c:	00475613          	srli	a2,a4,0x4
    80005210:	00155513          	srli	a0,a0,0x1
    80005214:	00058c63          	beqz	a1,8000522c <crcu32+0xb0>
    80005218:	ffffa5b7          	lui	a1,0xffffa
    8000521c:	00158593          	addi	a1,a1,1 # ffffffffffffa001 <_pmem_end+0xffffffff77ffa001>
    80005220:	00b54533          	xor	a0,a0,a1
    80005224:	03051513          	slli	a0,a0,0x30
    80005228:	03055513          	srli	a0,a0,0x30
    8000522c:	00c54633          	xor	a2,a0,a2
    80005230:	00167613          	andi	a2,a2,1
    80005234:	00575593          	srli	a1,a4,0x5
    80005238:	00155513          	srli	a0,a0,0x1
    8000523c:	00060c63          	beqz	a2,80005254 <crcu32+0xd8>
    80005240:	ffffa637          	lui	a2,0xffffa
    80005244:	00160613          	addi	a2,a2,1 # ffffffffffffa001 <_pmem_end+0xffffffff77ffa001>
    80005248:	00c54533          	xor	a0,a0,a2
    8000524c:	03051513          	slli	a0,a0,0x30
    80005250:	03055513          	srli	a0,a0,0x30
    80005254:	00b545b3          	xor	a1,a0,a1
    80005258:	0015f593          	andi	a1,a1,1
    8000525c:	00675613          	srli	a2,a4,0x6
    80005260:	00155513          	srli	a0,a0,0x1
    80005264:	00058c63          	beqz	a1,8000527c <crcu32+0x100>
    80005268:	ffffa5b7          	lui	a1,0xffffa
    8000526c:	00158593          	addi	a1,a1,1 # ffffffffffffa001 <_pmem_end+0xffffffff77ffa001>
    80005270:	00b54533          	xor	a0,a0,a1
    80005274:	03051513          	slli	a0,a0,0x30
    80005278:	03055513          	srli	a0,a0,0x30
    8000527c:	00c54633          	xor	a2,a0,a2
    80005280:	00167613          	andi	a2,a2,1
    80005284:	00775713          	srli	a4,a4,0x7
    80005288:	00155513          	srli	a0,a0,0x1
    8000528c:	00060c63          	beqz	a2,800052a4 <crcu32+0x128>
    80005290:	ffffa637          	lui	a2,0xffffa
    80005294:	00160613          	addi	a2,a2,1 # ffffffffffffa001 <_pmem_end+0xffffffff77ffa001>
    80005298:	00c54533          	xor	a0,a0,a2
    8000529c:	03051513          	slli	a0,a0,0x30
    800052a0:	03055513          	srli	a0,a0,0x30
    800052a4:	00157613          	andi	a2,a0,1
    800052a8:	00155513          	srli	a0,a0,0x1
    800052ac:	3ce61e63          	bne	a2,a4,80005688 <crcu32+0x50c>
    800052b0:	0086d613          	srli	a2,a3,0x8
    800052b4:	00c54633          	xor	a2,a0,a2
    800052b8:	00167613          	andi	a2,a2,1
    800052bc:	0086d713          	srli	a4,a3,0x8
    800052c0:	00155513          	srli	a0,a0,0x1
    800052c4:	0096d693          	srli	a3,a3,0x9
    800052c8:	00060c63          	beqz	a2,800052e0 <crcu32+0x164>
    800052cc:	ffffa637          	lui	a2,0xffffa
    800052d0:	00160613          	addi	a2,a2,1 # ffffffffffffa001 <_pmem_end+0xffffffff77ffa001>
    800052d4:	00c54533          	xor	a0,a0,a2
    800052d8:	03051513          	slli	a0,a0,0x30
    800052dc:	03055513          	srli	a0,a0,0x30
    800052e0:	00d546b3          	xor	a3,a0,a3
    800052e4:	0016f693          	andi	a3,a3,1
    800052e8:	00275613          	srli	a2,a4,0x2
    800052ec:	00155513          	srli	a0,a0,0x1
    800052f0:	00068c63          	beqz	a3,80005308 <crcu32+0x18c>
    800052f4:	ffffa6b7          	lui	a3,0xffffa
    800052f8:	00168693          	addi	a3,a3,1 # ffffffffffffa001 <_pmem_end+0xffffffff77ffa001>
    800052fc:	00d54533          	xor	a0,a0,a3
    80005300:	03051513          	slli	a0,a0,0x30
    80005304:	03055513          	srli	a0,a0,0x30
    80005308:	00c546b3          	xor	a3,a0,a2
    8000530c:	0016f693          	andi	a3,a3,1
    80005310:	00375613          	srli	a2,a4,0x3
    80005314:	00155513          	srli	a0,a0,0x1
    80005318:	00068c63          	beqz	a3,80005330 <crcu32+0x1b4>
    8000531c:	ffffa6b7          	lui	a3,0xffffa
    80005320:	00168693          	addi	a3,a3,1 # ffffffffffffa001 <_pmem_end+0xffffffff77ffa001>
    80005324:	00d54533          	xor	a0,a0,a3
    80005328:	03051513          	slli	a0,a0,0x30
    8000532c:	03055513          	srli	a0,a0,0x30
    80005330:	00c54633          	xor	a2,a0,a2
    80005334:	00167613          	andi	a2,a2,1
    80005338:	00475693          	srli	a3,a4,0x4
    8000533c:	00155513          	srli	a0,a0,0x1
    80005340:	00060c63          	beqz	a2,80005358 <crcu32+0x1dc>
    80005344:	ffffa637          	lui	a2,0xffffa
    80005348:	00160613          	addi	a2,a2,1 # ffffffffffffa001 <_pmem_end+0xffffffff77ffa001>
    8000534c:	00c54533          	xor	a0,a0,a2
    80005350:	03051513          	slli	a0,a0,0x30
    80005354:	03055513          	srli	a0,a0,0x30
    80005358:	00d546b3          	xor	a3,a0,a3
    8000535c:	0016f693          	andi	a3,a3,1
    80005360:	00575613          	srli	a2,a4,0x5
    80005364:	00155513          	srli	a0,a0,0x1
    80005368:	00068c63          	beqz	a3,80005380 <crcu32+0x204>
    8000536c:	ffffa6b7          	lui	a3,0xffffa
    80005370:	00168693          	addi	a3,a3,1 # ffffffffffffa001 <_pmem_end+0xffffffff77ffa001>
    80005374:	00d54533          	xor	a0,a0,a3
    80005378:	03051513          	slli	a0,a0,0x30
    8000537c:	03055513          	srli	a0,a0,0x30
    80005380:	00c54633          	xor	a2,a0,a2
    80005384:	00167613          	andi	a2,a2,1
    80005388:	00675693          	srli	a3,a4,0x6
    8000538c:	00155513          	srli	a0,a0,0x1
    80005390:	00060c63          	beqz	a2,800053a8 <crcu32+0x22c>
    80005394:	ffffa637          	lui	a2,0xffffa
    80005398:	00160613          	addi	a2,a2,1 # ffffffffffffa001 <_pmem_end+0xffffffff77ffa001>
    8000539c:	00c54533          	xor	a0,a0,a2
    800053a0:	03051513          	slli	a0,a0,0x30
    800053a4:	03055513          	srli	a0,a0,0x30
    800053a8:	00d546b3          	xor	a3,a0,a3
    800053ac:	0016f693          	andi	a3,a3,1
    800053b0:	00775713          	srli	a4,a4,0x7
    800053b4:	00155513          	srli	a0,a0,0x1
    800053b8:	00068c63          	beqz	a3,800053d0 <crcu32+0x254>
    800053bc:	ffffa6b7          	lui	a3,0xffffa
    800053c0:	00168693          	addi	a3,a3,1 # ffffffffffffa001 <_pmem_end+0xffffffff77ffa001>
    800053c4:	00d54533          	xor	a0,a0,a3
    800053c8:	03051513          	slli	a0,a0,0x30
    800053cc:	03055513          	srli	a0,a0,0x30
    800053d0:	00a74733          	xor	a4,a4,a0
    800053d4:	00177713          	andi	a4,a4,1
    800053d8:	00155513          	srli	a0,a0,0x1
    800053dc:	28071a63          	bnez	a4,80005670 <crcu32+0x4f4>
    800053e0:	0107d71b          	srliw	a4,a5,0x10
    800053e4:	00a746b3          	xor	a3,a4,a0
    800053e8:	0016f693          	andi	a3,a3,1
    800053ec:	0ff77713          	zext.b	a4,a4
    800053f0:	0107d79b          	srliw	a5,a5,0x10
    800053f4:	00175613          	srli	a2,a4,0x1
    800053f8:	00155513          	srli	a0,a0,0x1
    800053fc:	00068c63          	beqz	a3,80005414 <crcu32+0x298>
    80005400:	ffffa6b7          	lui	a3,0xffffa
    80005404:	00168693          	addi	a3,a3,1 # ffffffffffffa001 <_pmem_end+0xffffffff77ffa001>
    80005408:	00d54533          	xor	a0,a0,a3
    8000540c:	03051513          	slli	a0,a0,0x30
    80005410:	03055513          	srli	a0,a0,0x30
    80005414:	00c54633          	xor	a2,a0,a2
    80005418:	00167613          	andi	a2,a2,1
    8000541c:	00275693          	srli	a3,a4,0x2
    80005420:	00155513          	srli	a0,a0,0x1
    80005424:	00060c63          	beqz	a2,8000543c <crcu32+0x2c0>
    80005428:	ffffa637          	lui	a2,0xffffa
    8000542c:	00160613          	addi	a2,a2,1 # ffffffffffffa001 <_pmem_end+0xffffffff77ffa001>
    80005430:	00c54533          	xor	a0,a0,a2
    80005434:	03051513          	slli	a0,a0,0x30
    80005438:	03055513          	srli	a0,a0,0x30
    8000543c:	00d546b3          	xor	a3,a0,a3
    80005440:	0016f693          	andi	a3,a3,1
    80005444:	00375613          	srli	a2,a4,0x3
    80005448:	00155513          	srli	a0,a0,0x1
    8000544c:	00068c63          	beqz	a3,80005464 <crcu32+0x2e8>
    80005450:	ffffa6b7          	lui	a3,0xffffa
    80005454:	00168693          	addi	a3,a3,1 # ffffffffffffa001 <_pmem_end+0xffffffff77ffa001>
    80005458:	00d54533          	xor	a0,a0,a3
    8000545c:	03051513          	slli	a0,a0,0x30
    80005460:	03055513          	srli	a0,a0,0x30
    80005464:	00c54633          	xor	a2,a0,a2
    80005468:	00167613          	andi	a2,a2,1
    8000546c:	00475693          	srli	a3,a4,0x4
    80005470:	00155513          	srli	a0,a0,0x1
    80005474:	00060c63          	beqz	a2,8000548c <crcu32+0x310>
    80005478:	ffffa637          	lui	a2,0xffffa
    8000547c:	00160613          	addi	a2,a2,1 # ffffffffffffa001 <_pmem_end+0xffffffff77ffa001>
    80005480:	00c54533          	xor	a0,a0,a2
    80005484:	03051513          	slli	a0,a0,0x30
    80005488:	03055513          	srli	a0,a0,0x30
    8000548c:	00d546b3          	xor	a3,a0,a3
    80005490:	0016f693          	andi	a3,a3,1
    80005494:	00575613          	srli	a2,a4,0x5
    80005498:	00155513          	srli	a0,a0,0x1
    8000549c:	00068c63          	beqz	a3,800054b4 <crcu32+0x338>
    800054a0:	ffffa6b7          	lui	a3,0xffffa
    800054a4:	00168693          	addi	a3,a3,1 # ffffffffffffa001 <_pmem_end+0xffffffff77ffa001>
    800054a8:	00d54533          	xor	a0,a0,a3
    800054ac:	03051513          	slli	a0,a0,0x30
    800054b0:	03055513          	srli	a0,a0,0x30
    800054b4:	00c54633          	xor	a2,a0,a2
    800054b8:	00167613          	andi	a2,a2,1
    800054bc:	00675693          	srli	a3,a4,0x6
    800054c0:	00155513          	srli	a0,a0,0x1
    800054c4:	00060c63          	beqz	a2,800054dc <crcu32+0x360>
    800054c8:	ffffa637          	lui	a2,0xffffa
    800054cc:	00160613          	addi	a2,a2,1 # ffffffffffffa001 <_pmem_end+0xffffffff77ffa001>
    800054d0:	00c54533          	xor	a0,a0,a2
    800054d4:	03051513          	slli	a0,a0,0x30
    800054d8:	03055513          	srli	a0,a0,0x30
    800054dc:	00d546b3          	xor	a3,a0,a3
    800054e0:	0016f693          	andi	a3,a3,1
    800054e4:	00775713          	srli	a4,a4,0x7
    800054e8:	00155513          	srli	a0,a0,0x1
    800054ec:	00068c63          	beqz	a3,80005504 <crcu32+0x388>
    800054f0:	ffffa6b7          	lui	a3,0xffffa
    800054f4:	00168693          	addi	a3,a3,1 # ffffffffffffa001 <_pmem_end+0xffffffff77ffa001>
    800054f8:	00d54533          	xor	a0,a0,a3
    800054fc:	03051513          	slli	a0,a0,0x30
    80005500:	03055513          	srli	a0,a0,0x30
    80005504:	00157693          	andi	a3,a0,1
    80005508:	00155513          	srli	a0,a0,0x1
    8000550c:	14e69663          	bne	a3,a4,80005658 <crcu32+0x4dc>
    80005510:	0087d693          	srli	a3,a5,0x8
    80005514:	00a6c6b3          	xor	a3,a3,a0
    80005518:	0016f693          	andi	a3,a3,1
    8000551c:	0087d713          	srli	a4,a5,0x8
    80005520:	00155513          	srli	a0,a0,0x1
    80005524:	0097d793          	srli	a5,a5,0x9
    80005528:	00068c63          	beqz	a3,80005540 <crcu32+0x3c4>
    8000552c:	ffffa6b7          	lui	a3,0xffffa
    80005530:	00168693          	addi	a3,a3,1 # ffffffffffffa001 <_pmem_end+0xffffffff77ffa001>
    80005534:	00d54533          	xor	a0,a0,a3
    80005538:	03051513          	slli	a0,a0,0x30
    8000553c:	03055513          	srli	a0,a0,0x30
    80005540:	00f547b3          	xor	a5,a0,a5
    80005544:	0017f793          	andi	a5,a5,1
    80005548:	00275693          	srli	a3,a4,0x2
    8000554c:	00155513          	srli	a0,a0,0x1
    80005550:	00078c63          	beqz	a5,80005568 <crcu32+0x3ec>
    80005554:	ffffa7b7          	lui	a5,0xffffa
    80005558:	00178793          	addi	a5,a5,1 # ffffffffffffa001 <_pmem_end+0xffffffff77ffa001>
    8000555c:	00f54533          	xor	a0,a0,a5
    80005560:	03051513          	slli	a0,a0,0x30
    80005564:	03055513          	srli	a0,a0,0x30
    80005568:	00a6c7b3          	xor	a5,a3,a0
    8000556c:	0017f793          	andi	a5,a5,1
    80005570:	00375693          	srli	a3,a4,0x3
    80005574:	00155513          	srli	a0,a0,0x1
    80005578:	00078c63          	beqz	a5,80005590 <crcu32+0x414>
    8000557c:	ffffa7b7          	lui	a5,0xffffa
    80005580:	00178793          	addi	a5,a5,1 # ffffffffffffa001 <_pmem_end+0xffffffff77ffa001>
    80005584:	00f54533          	xor	a0,a0,a5
    80005588:	03051513          	slli	a0,a0,0x30
    8000558c:	03055513          	srli	a0,a0,0x30
    80005590:	00a6c6b3          	xor	a3,a3,a0
    80005594:	0016f693          	andi	a3,a3,1
    80005598:	00475793          	srli	a5,a4,0x4
    8000559c:	00155513          	srli	a0,a0,0x1
    800055a0:	00068c63          	beqz	a3,800055b8 <crcu32+0x43c>
    800055a4:	ffffa6b7          	lui	a3,0xffffa
    800055a8:	00168693          	addi	a3,a3,1 # ffffffffffffa001 <_pmem_end+0xffffffff77ffa001>
    800055ac:	00d54533          	xor	a0,a0,a3
    800055b0:	03051513          	slli	a0,a0,0x30
    800055b4:	03055513          	srli	a0,a0,0x30
    800055b8:	00f547b3          	xor	a5,a0,a5
    800055bc:	0017f793          	andi	a5,a5,1
    800055c0:	00575693          	srli	a3,a4,0x5
    800055c4:	00155513          	srli	a0,a0,0x1
    800055c8:	00078c63          	beqz	a5,800055e0 <crcu32+0x464>
    800055cc:	ffffa7b7          	lui	a5,0xffffa
    800055d0:	00178793          	addi	a5,a5,1 # ffffffffffffa001 <_pmem_end+0xffffffff77ffa001>
    800055d4:	00f54533          	xor	a0,a0,a5
    800055d8:	03051513          	slli	a0,a0,0x30
    800055dc:	03055513          	srli	a0,a0,0x30
    800055e0:	00d546b3          	xor	a3,a0,a3
    800055e4:	0016f693          	andi	a3,a3,1
    800055e8:	00675793          	srli	a5,a4,0x6
    800055ec:	00155513          	srli	a0,a0,0x1
    800055f0:	00068c63          	beqz	a3,80005608 <crcu32+0x48c>
    800055f4:	ffffa6b7          	lui	a3,0xffffa
    800055f8:	00168693          	addi	a3,a3,1 # ffffffffffffa001 <_pmem_end+0xffffffff77ffa001>
    800055fc:	00d54533          	xor	a0,a0,a3
    80005600:	03051513          	slli	a0,a0,0x30
    80005604:	03055513          	srli	a0,a0,0x30
    80005608:	00f547b3          	xor	a5,a0,a5
    8000560c:	0017f793          	andi	a5,a5,1
    80005610:	00775713          	srli	a4,a4,0x7
    80005614:	00155513          	srli	a0,a0,0x1
    80005618:	00078c63          	beqz	a5,80005630 <crcu32+0x4b4>
    8000561c:	ffffa7b7          	lui	a5,0xffffa
    80005620:	00178793          	addi	a5,a5,1 # ffffffffffffa001 <_pmem_end+0xffffffff77ffa001>
    80005624:	00f54533          	xor	a0,a0,a5
    80005628:	03051513          	slli	a0,a0,0x30
    8000562c:	03055513          	srli	a0,a0,0x30
    80005630:	00a74733          	xor	a4,a4,a0
    80005634:	00177713          	andi	a4,a4,1
    80005638:	00155513          	srli	a0,a0,0x1
    8000563c:	00070c63          	beqz	a4,80005654 <crcu32+0x4d8>
    80005640:	ffffa7b7          	lui	a5,0xffffa
    80005644:	00178793          	addi	a5,a5,1 # ffffffffffffa001 <_pmem_end+0xffffffff77ffa001>
    80005648:	00f54533          	xor	a0,a0,a5
    8000564c:	03051513          	slli	a0,a0,0x30
    80005650:	03055513          	srli	a0,a0,0x30
    80005654:	00008067          	ret
    80005658:	ffffa737          	lui	a4,0xffffa
    8000565c:	00170713          	addi	a4,a4,1 # ffffffffffffa001 <_pmem_end+0xffffffff77ffa001>
    80005660:	00e54533          	xor	a0,a0,a4
    80005664:	03051513          	slli	a0,a0,0x30
    80005668:	03055513          	srli	a0,a0,0x30
    8000566c:	ea5ff06f          	j	80005510 <crcu32+0x394>
    80005670:	ffffa737          	lui	a4,0xffffa
    80005674:	00170713          	addi	a4,a4,1 # ffffffffffffa001 <_pmem_end+0xffffffff77ffa001>
    80005678:	00e54533          	xor	a0,a0,a4
    8000567c:	03051513          	slli	a0,a0,0x30
    80005680:	03055513          	srli	a0,a0,0x30
    80005684:	d5dff06f          	j	800053e0 <crcu32+0x264>
    80005688:	ffffa737          	lui	a4,0xffffa
    8000568c:	00170713          	addi	a4,a4,1 # ffffffffffffa001 <_pmem_end+0xffffffff77ffa001>
    80005690:	00e54533          	xor	a0,a0,a4
    80005694:	03051513          	slli	a0,a0,0x30
    80005698:	03055513          	srli	a0,a0,0x30
    8000569c:	c15ff06f          	j	800052b0 <crcu32+0x134>

00000000800056a0 <crc16>:
    800056a0:	00a5c6b3          	xor	a3,a1,a0
    800056a4:	0ff57713          	zext.b	a4,a0
    800056a8:	03051793          	slli	a5,a0,0x30
    800056ac:	0016f693          	andi	a3,a3,1
    800056b0:	0307d793          	srli	a5,a5,0x30
    800056b4:	00175613          	srli	a2,a4,0x1
    800056b8:	0015d513          	srli	a0,a1,0x1
    800056bc:	00068c63          	beqz	a3,800056d4 <crc16+0x34>
    800056c0:	ffffa6b7          	lui	a3,0xffffa
    800056c4:	00168693          	addi	a3,a3,1 # ffffffffffffa001 <_pmem_end+0xffffffff77ffa001>
    800056c8:	00d54533          	xor	a0,a0,a3
    800056cc:	03051513          	slli	a0,a0,0x30
    800056d0:	03055513          	srli	a0,a0,0x30
    800056d4:	00c54633          	xor	a2,a0,a2
    800056d8:	00167613          	andi	a2,a2,1
    800056dc:	00275693          	srli	a3,a4,0x2
    800056e0:	00155513          	srli	a0,a0,0x1
    800056e4:	00060c63          	beqz	a2,800056fc <crc16+0x5c>
    800056e8:	ffffa637          	lui	a2,0xffffa
    800056ec:	00160613          	addi	a2,a2,1 # ffffffffffffa001 <_pmem_end+0xffffffff77ffa001>
    800056f0:	00c54533          	xor	a0,a0,a2
    800056f4:	03051513          	slli	a0,a0,0x30
    800056f8:	03055513          	srli	a0,a0,0x30
    800056fc:	00d546b3          	xor	a3,a0,a3
    80005700:	0016f693          	andi	a3,a3,1
    80005704:	00375613          	srli	a2,a4,0x3
    80005708:	00155513          	srli	a0,a0,0x1
    8000570c:	00068c63          	beqz	a3,80005724 <crc16+0x84>
    80005710:	ffffa6b7          	lui	a3,0xffffa
    80005714:	00168693          	addi	a3,a3,1 # ffffffffffffa001 <_pmem_end+0xffffffff77ffa001>
    80005718:	00d54533          	xor	a0,a0,a3
    8000571c:	03051513          	slli	a0,a0,0x30
    80005720:	03055513          	srli	a0,a0,0x30
    80005724:	00c54633          	xor	a2,a0,a2
    80005728:	00167613          	andi	a2,a2,1
    8000572c:	00475693          	srli	a3,a4,0x4
    80005730:	00155513          	srli	a0,a0,0x1
    80005734:	00060c63          	beqz	a2,8000574c <crc16+0xac>
    80005738:	ffffa637          	lui	a2,0xffffa
    8000573c:	00160613          	addi	a2,a2,1 # ffffffffffffa001 <_pmem_end+0xffffffff77ffa001>
    80005740:	00c54533          	xor	a0,a0,a2
    80005744:	03051513          	slli	a0,a0,0x30
    80005748:	03055513          	srli	a0,a0,0x30
    8000574c:	00d546b3          	xor	a3,a0,a3
    80005750:	0016f693          	andi	a3,a3,1
    80005754:	00575613          	srli	a2,a4,0x5
    80005758:	00155513          	srli	a0,a0,0x1
    8000575c:	00068c63          	beqz	a3,80005774 <crc16+0xd4>
    80005760:	ffffa6b7          	lui	a3,0xffffa
    80005764:	00168693          	addi	a3,a3,1 # ffffffffffffa001 <_pmem_end+0xffffffff77ffa001>
    80005768:	00d54533          	xor	a0,a0,a3
    8000576c:	03051513          	slli	a0,a0,0x30
    80005770:	03055513          	srli	a0,a0,0x30
    80005774:	00c54633          	xor	a2,a0,a2
    80005778:	00167613          	andi	a2,a2,1
    8000577c:	00675693          	srli	a3,a4,0x6
    80005780:	00155513          	srli	a0,a0,0x1
    80005784:	00060c63          	beqz	a2,8000579c <crc16+0xfc>
    80005788:	ffffa637          	lui	a2,0xffffa
    8000578c:	00160613          	addi	a2,a2,1 # ffffffffffffa001 <_pmem_end+0xffffffff77ffa001>
    80005790:	00c54533          	xor	a0,a0,a2
    80005794:	03051513          	slli	a0,a0,0x30
    80005798:	03055513          	srli	a0,a0,0x30
    8000579c:	00d546b3          	xor	a3,a0,a3
    800057a0:	0016f693          	andi	a3,a3,1
    800057a4:	00775713          	srli	a4,a4,0x7
    800057a8:	00155513          	srli	a0,a0,0x1
    800057ac:	00068c63          	beqz	a3,800057c4 <crc16+0x124>
    800057b0:	ffffa6b7          	lui	a3,0xffffa
    800057b4:	00168693          	addi	a3,a3,1 # ffffffffffffa001 <_pmem_end+0xffffffff77ffa001>
    800057b8:	00d54533          	xor	a0,a0,a3
    800057bc:	03051513          	slli	a0,a0,0x30
    800057c0:	03055513          	srli	a0,a0,0x30
    800057c4:	00157693          	andi	a3,a0,1
    800057c8:	00155513          	srli	a0,a0,0x1
    800057cc:	14e69663          	bne	a3,a4,80005918 <crc16+0x278>
    800057d0:	0087d613          	srli	a2,a5,0x8
    800057d4:	00a64633          	xor	a2,a2,a0
    800057d8:	00167613          	andi	a2,a2,1
    800057dc:	0087d693          	srli	a3,a5,0x8
    800057e0:	0097d713          	srli	a4,a5,0x9
    800057e4:	00155513          	srli	a0,a0,0x1
    800057e8:	00060c63          	beqz	a2,80005800 <crc16+0x160>
    800057ec:	ffffa7b7          	lui	a5,0xffffa
    800057f0:	00178793          	addi	a5,a5,1 # ffffffffffffa001 <_pmem_end+0xffffffff77ffa001>
    800057f4:	00f54533          	xor	a0,a0,a5
    800057f8:	03051513          	slli	a0,a0,0x30
    800057fc:	03055513          	srli	a0,a0,0x30
    80005800:	00a74733          	xor	a4,a4,a0
    80005804:	00177713          	andi	a4,a4,1
    80005808:	0026d793          	srli	a5,a3,0x2
    8000580c:	00155513          	srli	a0,a0,0x1
    80005810:	00070c63          	beqz	a4,80005828 <crc16+0x188>
    80005814:	ffffa737          	lui	a4,0xffffa
    80005818:	00170713          	addi	a4,a4,1 # ffffffffffffa001 <_pmem_end+0xffffffff77ffa001>
    8000581c:	00e54533          	xor	a0,a0,a4
    80005820:	03051513          	slli	a0,a0,0x30
    80005824:	03055513          	srli	a0,a0,0x30
    80005828:	00f54733          	xor	a4,a0,a5
    8000582c:	00177713          	andi	a4,a4,1
    80005830:	0036d793          	srli	a5,a3,0x3
    80005834:	00155513          	srli	a0,a0,0x1
    80005838:	00070c63          	beqz	a4,80005850 <crc16+0x1b0>
    8000583c:	ffffa737          	lui	a4,0xffffa
    80005840:	00170713          	addi	a4,a4,1 # ffffffffffffa001 <_pmem_end+0xffffffff77ffa001>
    80005844:	00e54533          	xor	a0,a0,a4
    80005848:	03051513          	slli	a0,a0,0x30
    8000584c:	03055513          	srli	a0,a0,0x30
    80005850:	00f547b3          	xor	a5,a0,a5
    80005854:	0017f793          	andi	a5,a5,1
    80005858:	0046d713          	srli	a4,a3,0x4
    8000585c:	00155513          	srli	a0,a0,0x1
    80005860:	00078c63          	beqz	a5,80005878 <crc16+0x1d8>
    80005864:	ffffa7b7          	lui	a5,0xffffa
    80005868:	00178793          	addi	a5,a5,1 # ffffffffffffa001 <_pmem_end+0xffffffff77ffa001>
    8000586c:	00f54533          	xor	a0,a0,a5
    80005870:	03051513          	slli	a0,a0,0x30
    80005874:	03055513          	srli	a0,a0,0x30
    80005878:	00e54733          	xor	a4,a0,a4
    8000587c:	00177713          	andi	a4,a4,1
    80005880:	0056d793          	srli	a5,a3,0x5
    80005884:	00155513          	srli	a0,a0,0x1
    80005888:	00070c63          	beqz	a4,800058a0 <crc16+0x200>
    8000588c:	ffffa737          	lui	a4,0xffffa
    80005890:	00170713          	addi	a4,a4,1 # ffffffffffffa001 <_pmem_end+0xffffffff77ffa001>
    80005894:	00e54533          	xor	a0,a0,a4
    80005898:	03051513          	slli	a0,a0,0x30
    8000589c:	03055513          	srli	a0,a0,0x30
    800058a0:	00f547b3          	xor	a5,a0,a5
    800058a4:	0017f793          	andi	a5,a5,1
    800058a8:	0066d713          	srli	a4,a3,0x6
    800058ac:	00155513          	srli	a0,a0,0x1
    800058b0:	00078c63          	beqz	a5,800058c8 <crc16+0x228>
    800058b4:	ffffa7b7          	lui	a5,0xffffa
    800058b8:	00178793          	addi	a5,a5,1 # ffffffffffffa001 <_pmem_end+0xffffffff77ffa001>
    800058bc:	00f54533          	xor	a0,a0,a5
    800058c0:	03051513          	slli	a0,a0,0x30
    800058c4:	03055513          	srli	a0,a0,0x30
    800058c8:	00e54733          	xor	a4,a0,a4
    800058cc:	00177713          	andi	a4,a4,1
    800058d0:	0076d793          	srli	a5,a3,0x7
    800058d4:	00155513          	srli	a0,a0,0x1
    800058d8:	00070c63          	beqz	a4,800058f0 <crc16+0x250>
    800058dc:	ffffa737          	lui	a4,0xffffa
    800058e0:	00170713          	addi	a4,a4,1 # ffffffffffffa001 <_pmem_end+0xffffffff77ffa001>
    800058e4:	00e54533          	xor	a0,a0,a4
    800058e8:	03051513          	slli	a0,a0,0x30
    800058ec:	03055513          	srli	a0,a0,0x30
    800058f0:	00a7c7b3          	xor	a5,a5,a0
    800058f4:	0017f793          	andi	a5,a5,1
    800058f8:	00155513          	srli	a0,a0,0x1
    800058fc:	00078c63          	beqz	a5,80005914 <crc16+0x274>
    80005900:	ffffa7b7          	lui	a5,0xffffa
    80005904:	00178793          	addi	a5,a5,1 # ffffffffffffa001 <_pmem_end+0xffffffff77ffa001>
    80005908:	00f54533          	xor	a0,a0,a5
    8000590c:	03051513          	slli	a0,a0,0x30
    80005910:	03055513          	srli	a0,a0,0x30
    80005914:	00008067          	ret
    80005918:	ffffa737          	lui	a4,0xffffa
    8000591c:	00170713          	addi	a4,a4,1 # ffffffffffffa001 <_pmem_end+0xffffffff77ffa001>
    80005920:	00e54533          	xor	a0,a0,a4
    80005924:	03051513          	slli	a0,a0,0x30
    80005928:	03055513          	srli	a0,a0,0x30
    8000592c:	ea5ff06f          	j	800057d0 <crc16+0x130>

0000000080005930 <check_data_types>:
    80005930:	00000513          	li	a0,0
    80005934:	00008067          	ret

0000000080005938 <start_time>:
    80005938:	b00027f3          	csrr	a5,mcycle
    8000593c:	0007879b          	sext.w	a5,a5
    80005940:	00004717          	auipc	a4,0x4
    80005944:	0cf73823          	sd	a5,208(a4) # 80009a10 <start_time_val>
    80005948:	00008067          	ret

000000008000594c <stop_time>:
    8000594c:	b00027f3          	csrr	a5,mcycle
    80005950:	0007879b          	sext.w	a5,a5
    80005954:	00004717          	auipc	a4,0x4
    80005958:	0af73a23          	sd	a5,180(a4) # 80009a08 <stop_time_val>
    8000595c:	00008067          	ret

0000000080005960 <get_time>:
    80005960:	00004517          	auipc	a0,0x4
    80005964:	0a853503          	ld	a0,168(a0) # 80009a08 <stop_time_val>
    80005968:	00004797          	auipc	a5,0x4
    8000596c:	0a87b783          	ld	a5,168(a5) # 80009a10 <start_time_val>
    80005970:	40f5053b          	subw	a0,a0,a5
    80005974:	00008067          	ret

0000000080005978 <time_in_secs>:
    80005978:	3e800793          	li	a5,1000
    8000597c:	02f5553b          	divuw	a0,a0,a5
    80005980:	00008067          	ret

0000000080005984 <portable_init>:
    80005984:	00100793          	li	a5,1
    80005988:	00f50023          	sb	a5,0(a0)
    8000598c:	00008067          	ret

0000000080005990 <portable_fini>:
    80005990:	00050023          	sb	zero,0(a0)
    80005994:	00008067          	ret

0000000080005998 <whisperPrintfImpl>:
    80005998:	00054703          	lbu	a4,0(a0)
    8000599c:	38070263          	beqz	a4,80005d20 <whisperPrintfImpl+0x388>
    800059a0:	fa010113          	addi	sp,sp,-96
    800059a4:	04813c23          	sd	s0,88(sp)
    800059a8:	01a0b637          	lui	a2,0x1a0b
    800059ac:	00810413          	addi	s0,sp,8
    800059b0:	00100293          	li	t0,1
    800059b4:	04913823          	sd	s1,80(sp)
    800059b8:	05213423          	sd	s2,72(sp)
    800059bc:	05313023          	sd	s3,64(sp)
    800059c0:	00050693          	mv	a3,a0
    800059c4:	03413c23          	sd	s4,56(sp)
    800059c8:	03513823          	sd	s5,48(sp)
    800059cc:	03613423          	sd	s6,40(sp)
    800059d0:	03713023          	sd	s7,32(sp)
    800059d4:	00000513          	li	a0,0
    800059d8:	02500e93          	li	t4,37
    800059dc:	00761613          	slli	a2,a2,0x7
    800059e0:	03000813          	li	a6,48
    800059e4:	02d00493          	li	s1,45
    800059e8:	02a00993          	li	s3,42
    800059ec:	02000913          	li	s2,32
    800059f0:	00002397          	auipc	t2,0x2
    800059f4:	6a838393          	addi	t2,t2,1704 # 80008098 <printf_+0x6c>
    800059f8:	408282bb          	subw	t0,t0,s0
    800059fc:	00900f13          	li	t5,9
    80005a00:	00a00f93          	li	t6,10
    80005a04:	0200006f          	j	80005a24 <whisperPrintfImpl+0x8c>
    80005a08:	00078893          	mv	a7,a5
    80005a0c:	00e60023          	sb	a4,0(a2) # 1a0b000 <_start-0x7e5f5000>
    80005a10:	00068793          	mv	a5,a3
    80005a14:	0015051b          	addiw	a0,a0,1
    80005a18:	00088693          	mv	a3,a7
    80005a1c:	0017c703          	lbu	a4,1(a5)
    80005a20:	0c070663          	beqz	a4,80005aec <whisperPrintfImpl+0x154>
    80005a24:	00168793          	addi	a5,a3,1
    80005a28:	ffd710e3          	bne	a4,t4,80005a08 <whisperPrintfImpl+0x70>
    80005a2c:	0016c303          	lbu	t1,1(a3)
    80005a30:	0a030e63          	beqz	t1,80005aec <whisperPrintfImpl+0x154>
    80005a34:	00268693          	addi	a3,a3,2
    80005a38:	0dd30e63          	beq	t1,t4,80005b14 <whisperPrintfImpl+0x17c>
    80005a3c:	2d031a63          	bne	t1,a6,80005d10 <whisperPrintfImpl+0x378>
    80005a40:	0017c703          	lbu	a4,1(a5)
    80005a44:	00078693          	mv	a3,a5
    80005a48:	00178793          	addi	a5,a5,1
    80005a4c:	ff070ae3          	beq	a4,a6,80005a40 <whisperPrintfImpl+0xa8>
    80005a50:	00268693          	addi	a3,a3,2
    80005a54:	06970463          	beq	a4,s1,80005abc <whisperPrintfImpl+0x124>
    80005a58:	07370a63          	beq	a4,s3,80005acc <whisperPrintfImpl+0x134>
    80005a5c:	fd070a1b          	addiw	s4,a4,-48
    80005a60:	0ffa7893          	zext.b	a7,s4
    80005a64:	00000e13          	li	t3,0
    80005a68:	031f7263          	bgeu	t5,a7,80005a8c <whisperPrintfImpl+0xf4>
    80005a6c:	fa87071b          	addiw	a4,a4,-88
    80005a70:	0ff77713          	zext.b	a4,a4
    80005a74:	fae964e3          	bltu	s2,a4,80005a1c <whisperPrintfImpl+0x84>
    80005a78:	00271713          	slli	a4,a4,0x2
    80005a7c:	00770733          	add	a4,a4,t2
    80005a80:	00072703          	lw	a4,0(a4)
    80005a84:	00770733          	add	a4,a4,t2
    80005a88:	00070067          	jr	a4
    80005a8c:	0017c703          	lbu	a4,1(a5)
    80005a90:	002e189b          	slliw	a7,t3,0x2
    80005a94:	01c888bb          	addw	a7,a7,t3
    80005a98:	0018989b          	slliw	a7,a7,0x1
    80005a9c:	011a0e3b          	addw	t3,s4,a7
    80005aa0:	fd070a1b          	addiw	s4,a4,-48
    80005aa4:	0ffa7893          	zext.b	a7,s4
    80005aa8:	00078693          	mv	a3,a5
    80005aac:	00178793          	addi	a5,a5,1
    80005ab0:	fd1f7ee3          	bgeu	t5,a7,80005a8c <whisperPrintfImpl+0xf4>
    80005ab4:	00268693          	addi	a3,a3,2
    80005ab8:	fb5ff06f          	j	80005a6c <whisperPrintfImpl+0xd4>
    80005abc:	0017c703          	lbu	a4,1(a5)
    80005ac0:	00068793          	mv	a5,a3
    80005ac4:	00168693          	addi	a3,a3,1
    80005ac8:	f9371ae3          	bne	a4,s3,80005a5c <whisperPrintfImpl+0xc4>
    80005acc:	0017c703          	lbu	a4,1(a5)
    80005ad0:	00000e13          	li	t3,0
    80005ad4:	00068793          	mv	a5,a3
    80005ad8:	00168693          	addi	a3,a3,1
    80005adc:	f91ff06f          	j	80005a6c <whisperPrintfImpl+0xd4>
    80005ae0:	0017c703          	lbu	a4,1(a5)
    80005ae4:	00858593          	addi	a1,a1,8
    80005ae8:	f2071ee3          	bnez	a4,80005a24 <whisperPrintfImpl+0x8c>
    80005aec:	05813403          	ld	s0,88(sp)
    80005af0:	05013483          	ld	s1,80(sp)
    80005af4:	04813903          	ld	s2,72(sp)
    80005af8:	04013983          	ld	s3,64(sp)
    80005afc:	03813a03          	ld	s4,56(sp)
    80005b00:	03013a83          	ld	s5,48(sp)
    80005b04:	02813b03          	ld	s6,40(sp)
    80005b08:	02013b83          	ld	s7,32(sp)
    80005b0c:	06010113          	addi	sp,sp,96
    80005b10:	00008067          	ret
    80005b14:	01d60023          	sb	t4,0(a2)
    80005b18:	f05ff06f          	j	80005a1c <whisperPrintfImpl+0x84>
    80005b1c:	0005a703          	lw	a4,0(a1)
    80005b20:	00040893          	mv	a7,s0
    80005b24:	00858593          	addi	a1,a1,8
    80005b28:	00f77a13          	andi	s4,a4,15
    80005b2c:	057a0e13          	addi	t3,s4,87
    80005b30:	014f4463          	blt	t5,s4,80005b38 <whisperPrintfImpl+0x1a0>
    80005b34:	030a0e13          	addi	t3,s4,48
    80005b38:	01c88023          	sb	t3,0(a7)
    80005b3c:	0047571b          	srliw	a4,a4,0x4
    80005b40:	01128e3b          	addw	t3,t0,a7
    80005b44:	00188893          	addi	a7,a7,1
    80005b48:	fe0710e3          	bnez	a4,80005b28 <whisperPrintfImpl+0x190>
    80005b4c:	fffe089b          	addiw	a7,t3,-1
    80005b50:	02089893          	slli	a7,a7,0x20
    80005b54:	fffe0713          	addi	a4,t3,-1
    80005b58:	0208d893          	srli	a7,a7,0x20
    80005b5c:	00e40733          	add	a4,s0,a4
    80005b60:	fff8c893          	not	a7,a7
    80005b64:	011708b3          	add	a7,a4,a7
    80005b68:	00074303          	lbu	t1,0(a4)
    80005b6c:	fff70713          	addi	a4,a4,-1
    80005b70:	00660023          	sb	t1,0(a2)
    80005b74:	fee89ae3          	bne	a7,a4,80005b68 <whisperPrintfImpl+0x1d0>
    80005b78:	01c5053b          	addw	a0,a0,t3
    80005b7c:	ea1ff06f          	j	80005a1c <whisperPrintfImpl+0x84>
    80005b80:	0005a703          	lw	a4,0(a1)
    80005b84:	00040a93          	mv	s5,s0
    80005b88:	00858593          	addi	a1,a1,8
    80005b8c:	00000a13          	li	s4,0
    80005b90:	03f778bb          	remuw	a7,a4,t6
    80005b94:	001a8a93          	addi	s5,s5,1
    80005b98:	00070b9b          	sext.w	s7,a4
    80005b9c:	000a0b13          	mv	s6,s4
    80005ba0:	001a0a1b          	addiw	s4,s4,1
    80005ba4:	0308889b          	addiw	a7,a7,48
    80005ba8:	ff1a8fa3          	sb	a7,-1(s5)
    80005bac:	03f7573b          	divuw	a4,a4,t6
    80005bb0:	ff7f60e3          	bltu	t5,s7,80005b90 <whisperPrintfImpl+0x1f8>
    80005bb4:	000a0713          	mv	a4,s4
    80005bb8:	01ca5863          	bge	s4,t3,80005bc8 <whisperPrintfImpl+0x230>
    80005bbc:	00660023          	sb	t1,0(a2)
    80005bc0:	0017071b          	addiw	a4,a4,1
    80005bc4:	feee1ce3          	bne	t3,a4,80005bbc <whisperPrintfImpl+0x224>
    80005bc8:	fffa0713          	addi	a4,s4,-1
    80005bcc:	00e40733          	add	a4,s0,a4
    80005bd0:	fffb4893          	not	a7,s6
    80005bd4:	011708b3          	add	a7,a4,a7
    80005bd8:	00074303          	lbu	t1,0(a4)
    80005bdc:	fff70713          	addi	a4,a4,-1
    80005be0:	00660023          	sb	t1,0(a2)
    80005be4:	ff171ae3          	bne	a4,a7,80005bd8 <whisperPrintfImpl+0x240>
    80005be8:	0145053b          	addw	a0,a0,s4
    80005bec:	e31ff06f          	j	80005a1c <whisperPrintfImpl+0x84>
    80005bf0:	0005b883          	ld	a7,0(a1)
    80005bf4:	00858593          	addi	a1,a1,8
    80005bf8:	0008c703          	lbu	a4,0(a7)
    80005bfc:	00070a63          	beqz	a4,80005c10 <whisperPrintfImpl+0x278>
    80005c00:	00188893          	addi	a7,a7,1
    80005c04:	00e60023          	sb	a4,0(a2)
    80005c08:	0008c703          	lbu	a4,0(a7)
    80005c0c:	fe071ae3          	bnez	a4,80005c00 <whisperPrintfImpl+0x268>
    80005c10:	0015051b          	addiw	a0,a0,1
    80005c14:	e09ff06f          	j	80005a1c <whisperPrintfImpl+0x84>
    80005c18:	0005a883          	lw	a7,0(a1)
    80005c1c:	00040713          	mv	a4,s0
    80005c20:	00858593          	addi	a1,a1,8
    80005c24:	0078f313          	andi	t1,a7,7
    80005c28:	0303031b          	addiw	t1,t1,48
    80005c2c:	00670023          	sb	t1,0(a4)
    80005c30:	0038d89b          	srliw	a7,a7,0x3
    80005c34:	00e28e3b          	addw	t3,t0,a4
    80005c38:	00170713          	addi	a4,a4,1
    80005c3c:	fe0894e3          	bnez	a7,80005c24 <whisperPrintfImpl+0x28c>
    80005c40:	fffe089b          	addiw	a7,t3,-1
    80005c44:	02089893          	slli	a7,a7,0x20
    80005c48:	fffe0713          	addi	a4,t3,-1
    80005c4c:	0208d893          	srli	a7,a7,0x20
    80005c50:	00e40733          	add	a4,s0,a4
    80005c54:	fff8c893          	not	a7,a7
    80005c58:	011708b3          	add	a7,a4,a7
    80005c5c:	00074303          	lbu	t1,0(a4)
    80005c60:	fff70713          	addi	a4,a4,-1
    80005c64:	00660023          	sb	t1,0(a2)
    80005c68:	fee89ae3          	bne	a7,a4,80005c5c <whisperPrintfImpl+0x2c4>
    80005c6c:	01c5053b          	addw	a0,a0,t3
    80005c70:	dadff06f          	j	80005a1c <whisperPrintfImpl+0x84>
    80005c74:	0005ab83          	lw	s7,0(a1)
    80005c78:	00858593          	addi	a1,a1,8
    80005c7c:	000b8713          	mv	a4,s7
    80005c80:	000bd863          	bgez	s7,80005c90 <whisperPrintfImpl+0x2f8>
    80005c84:	4170073b          	negw	a4,s7
    80005c88:	00960023          	sb	s1,0(a2)
    80005c8c:	fffe0e1b          	addiw	t3,t3,-1
    80005c90:	00040a93          	mv	s5,s0
    80005c94:	00000a13          	li	s4,0
    80005c98:	03f768bb          	remw	a7,a4,t6
    80005c9c:	001a8a93          	addi	s5,s5,1
    80005ca0:	000a0b13          	mv	s6,s4
    80005ca4:	001a0a1b          	addiw	s4,s4,1
    80005ca8:	03f7473b          	divw	a4,a4,t6
    80005cac:	0308889b          	addiw	a7,a7,48
    80005cb0:	ff1a8fa3          	sb	a7,-1(s5)
    80005cb4:	fe0712e3          	bnez	a4,80005c98 <whisperPrintfImpl+0x300>
    80005cb8:	000a0713          	mv	a4,s4
    80005cbc:	01ca5863          	bge	s4,t3,80005ccc <whisperPrintfImpl+0x334>
    80005cc0:	00660023          	sb	t1,0(a2)
    80005cc4:	0017071b          	addiw	a4,a4,1
    80005cc8:	ffc71ce3          	bne	a4,t3,80005cc0 <whisperPrintfImpl+0x328>
    80005ccc:	fffa0713          	addi	a4,s4,-1
    80005cd0:	00e40733          	add	a4,s0,a4
    80005cd4:	fffb4313          	not	t1,s6
    80005cd8:	00670333          	add	t1,a4,t1
    80005cdc:	00074883          	lbu	a7,0(a4)
    80005ce0:	fff70713          	addi	a4,a4,-1
    80005ce4:	01160023          	sb	a7,0(a2)
    80005ce8:	fe671ae3          	bne	a4,t1,80005cdc <whisperPrintfImpl+0x344>
    80005cec:	ee0bdee3          	bgez	s7,80005be8 <whisperPrintfImpl+0x250>
    80005cf0:	002b0a1b          	addiw	s4,s6,2
    80005cf4:	0145053b          	addw	a0,a0,s4
    80005cf8:	d25ff06f          	j	80005a1c <whisperPrintfImpl+0x84>
    80005cfc:	0005c703          	lbu	a4,0(a1)
    80005d00:	0015051b          	addiw	a0,a0,1
    80005d04:	00858593          	addi	a1,a1,8
    80005d08:	00e60023          	sb	a4,0(a2)
    80005d0c:	d11ff06f          	j	80005a1c <whisperPrintfImpl+0x84>
    80005d10:	00030713          	mv	a4,t1
    80005d14:	02000313          	li	t1,32
    80005d18:	d49710e3          	bne	a4,s1,80005a58 <whisperPrintfImpl+0xc0>
    80005d1c:	da1ff06f          	j	80005abc <whisperPrintfImpl+0x124>
    80005d20:	00000513          	li	a0,0
    80005d24:	00008067          	ret

0000000080005d28 <whisperPrintf>:
    80005d28:	fa010113          	addi	sp,sp,-96
    80005d2c:	02810313          	addi	t1,sp,40
    80005d30:	02b13423          	sd	a1,40(sp)
    80005d34:	00030593          	mv	a1,t1
    80005d38:	00113c23          	sd	ra,24(sp)
    80005d3c:	02c13823          	sd	a2,48(sp)
    80005d40:	02d13c23          	sd	a3,56(sp)
    80005d44:	04e13023          	sd	a4,64(sp)
    80005d48:	04f13423          	sd	a5,72(sp)
    80005d4c:	05013823          	sd	a6,80(sp)
    80005d50:	05113c23          	sd	a7,88(sp)
    80005d54:	00613423          	sd	t1,8(sp)
    80005d58:	c41ff0ef          	jal	ra,80005998 <whisperPrintfImpl>
    80005d5c:	01813083          	ld	ra,24(sp)
    80005d60:	06010113          	addi	sp,sp,96
    80005d64:	00008067          	ret

Disassembly of section .text.startup:

0000000080005d68 <main>:
    80005d68:	f2010113          	addi	sp,sp,-224
    80005d6c:	0c113c23          	sd	ra,216(sp)
    80005d70:	0c813823          	sd	s0,208(sp)
    80005d74:	0c913423          	sd	s1,200(sp)
    80005d78:	0d213023          	sd	s2,192(sp)
    80005d7c:	0b313c23          	sd	s3,184(sp)
    80005d80:	0b413823          	sd	s4,176(sp)
    80005d84:	0b513423          	sd	s5,168(sp)
    80005d88:	0b613023          	sd	s6,160(sp)
    80005d8c:	09713c23          	sd	s7,152(sp)
    80005d90:	09813823          	sd	s8,144(sp)
    80005d94:	09913423          	sd	s9,136(sp)
    80005d98:	09a13023          	sd	s10,128(sp)
    80005d9c:	07b13c23          	sd	s11,120(sp)
    80005da0:	f1402b73          	csrr	s6,mhartid
    80005da4:	00100793          	li	a5,1
    80005da8:	000b0b1b          	sext.w	s6,s6
    80005dac:	00003817          	auipc	a6,0x3
    80005db0:	44480813          	addi	a6,a6,1092 # 800091f0 <static_memblk1>
    80005db4:	00fb0663          	beq	s6,a5,80005dc0 <main+0x58>
    80005db8:	00003817          	auipc	a6,0x3
    80005dbc:	c6880813          	addi	a6,a6,-920 # 80008a20 <static_memblk0>
    80005dc0:	00004617          	auipc	a2,0x4
    80005dc4:	c6062603          	lw	a2,-928(a2) # 80009a20 <seed1_volatile>
    80005dc8:	00100593          	li	a1,1
    80005dcc:	00004697          	auipc	a3,0x4
    80005dd0:	c506a683          	lw	a3,-944(a3) # 80009a1c <seed2_volatile>
    80005dd4:	00003717          	auipc	a4,0x3
    80005dd8:	c4472703          	lw	a4,-956(a4) # 80008a18 <seed3_volatile>
    80005ddc:	00003797          	auipc	a5,0x3
    80005de0:	c387a783          	lw	a5,-968(a5) # 80008a14 <seed4_volatile>
    80005de4:	02f12623          	sw	a5,44(sp)
    80005de8:	06b10523          	sb	a1,106(sp)
    80005dec:	00c11023          	sh	a2,0(sp)
    80005df0:	00d11123          	sh	a3,2(sp)
    80005df4:	00e11223          	sh	a4,4(sp)
    80005df8:	00004797          	auipc	a5,0x4
    80005dfc:	c207a783          	lw	a5,-992(a5) # 80009a18 <seed5_volatile>
    80005e00:	00079463          	bnez	a5,80005e08 <main+0xa0>
    80005e04:	00700793          	li	a5,7
    80005e08:	02f12823          	sw	a5,48(sp)
    80005e0c:	00013783          	ld	a5,0(sp)
    80005e10:	01079713          	slli	a4,a5,0x10
    80005e14:	00071a63          	bnez	a4,80005e28 <main+0xc0>
    80005e18:	06600793          	li	a5,102
    80005e1c:	00012023          	sw	zero,0(sp)
    80005e20:	00f11223          	sh	a5,4(sp)
    80005e24:	00013783          	ld	a5,0(sp)
    80005e28:	01079793          	slli	a5,a5,0x10
    80005e2c:	0107d793          	srli	a5,a5,0x10
    80005e30:	00100713          	li	a4,1
    80005e34:	00e79c63          	bne	a5,a4,80005e4c <main+0xe4>
    80005e38:	341537b7          	lui	a5,0x34153
    80005e3c:	41578793          	addi	a5,a5,1045 # 34153415 <_start-0x4beacbeb>
    80005e40:	00f12023          	sw	a5,0(sp)
    80005e44:	06600793          	li	a5,102
    80005e48:	00f11223          	sh	a5,4(sp)
    80005e4c:	03012783          	lw	a5,48(sp)
    80005e50:	7d000613          	li	a2,2000
    80005e54:	01013423          	sd	a6,8(sp)
    80005e58:	0027fe13          	andi	t3,a5,2
    80005e5c:	0017f593          	andi	a1,a5,1
    80005e60:	01c036b3          	snez	a3,t3
    80005e64:	0047f313          	andi	t1,a5,4
    80005e68:	00d586b3          	add	a3,a1,a3
    80005e6c:	00603733          	snez	a4,t1
    80005e70:	00e68733          	add	a4,a3,a4
    80005e74:	02e6553b          	divuw	a0,a2,a4
    80005e78:	06011423          	sh	zero,104(sp)
    80005e7c:	00058893          	mv	a7,a1
    80005e80:	000e0713          	mv	a4,t3
    80005e84:	02a12423          	sw	a0,40(sp)
    80005e88:	00050613          	mv	a2,a0
    80005e8c:	78059063          	bnez	a1,8000660c <__perf_end+0x724>
    80005e90:	780e1263          	bnez	t3,80006614 <__perf_end+0x72c>
    80005e94:	74031e63          	bnez	t1,800065f0 <__perf_end+0x708>
    80005e98:	20089863          	bnez	a7,800060a8 <__perf_end+0x1c0>
    80005e9c:	22071463          	bnez	a4,800060c4 <__perf_end+0x1dc>
    80005ea0:	0047f793          	andi	a5,a5,4
    80005ea4:	00078a63          	beqz	a5,80005eb8 <main+0x150>
    80005ea8:	02013603          	ld	a2,32(sp)
    80005eac:	00011583          	lh	a1,0(sp)
    80005eb0:	02812503          	lw	a0,40(sp)
    80005eb4:	da1fb0ef          	jal	ra,80001c54 <core_init_state>
    80005eb8:	02c12783          	lw	a5,44(sp)
    80005ebc:	26078063          	beqz	a5,8000611c <__perf_end+0x234>
    80005ec0:	00004a17          	auipc	s4,0x4
    80005ec4:	b50a0a13          	addi	s4,s4,-1200 # 80009a10 <start_time_val>
    80005ec8:	00004a97          	auipc	s5,0x4
    80005ecc:	b40a8a93          	addi	s5,s5,-1216 # 80009a08 <stop_time_val>
    80005ed0:	00010493          	mv	s1,sp
    80005ed4:	b00027f3          	csrr	a5,mcycle
    80005ed8:	0007879b          	sext.w	a5,a5
    80005edc:	00fa3023          	sd	a5,0(s4)

0000000080005ee0 <__perf_start>:
    80005ee0:	00048513          	mv	a0,s1
    80005ee4:	9c5fe0ef          	jal	ra,800048a8 <iterate>

0000000080005ee8 <__perf_end>:
    80005ee8:	00100793          	li	a5,1
    80005eec:	1afb0c63          	beq	s6,a5,800060a4 <__perf_end+0x1bc>
    80005ef0:	b0002b73          	csrr	s6,mcycle
    80005ef4:	000a3703          	ld	a4,0(s4)
    80005ef8:	00015503          	lhu	a0,0(sp)
    80005efc:	000b079b          	sext.w	a5,s6
    80005f00:	00000593          	li	a1,0
    80005f04:	00fab023          	sd	a5,0(s5)
    80005f08:	40eb0b3b          	subw	s6,s6,a4
    80005f0c:	fe9fe0ef          	jal	ra,80004ef4 <crcu16>
    80005f10:	00050593          	mv	a1,a0
    80005f14:	00215503          	lhu	a0,2(sp)
    80005f18:	000b0a9b          	sext.w	s5,s6
    80005f1c:	fd9fe0ef          	jal	ra,80004ef4 <crcu16>
    80005f20:	00050593          	mv	a1,a0
    80005f24:	00415503          	lhu	a0,4(sp)
    80005f28:	fcdfe0ef          	jal	ra,80004ef4 <crcu16>
    80005f2c:	00050593          	mv	a1,a0
    80005f30:	02815503          	lhu	a0,40(sp)
    80005f34:	fc1fe0ef          	jal	ra,80004ef4 <crcu16>
    80005f38:	000087b7          	lui	a5,0x8
    80005f3c:	00050a1b          	sext.w	s4,a0
    80005f40:	b0578793          	addi	a5,a5,-1275 # 7b05 <_start-0x7fff84fb>
    80005f44:	22fa08e3          	beq	s4,a5,80006974 <__perf_end+0xa8c>
    80005f48:	1b47f463          	bgeu	a5,s4,800060f0 <__perf_end+0x208>
    80005f4c:	000097b7          	lui	a5,0x9
    80005f50:	a0278793          	addi	a5,a5,-1534 # 8a02 <_start-0x7fff75fe>
    80005f54:	1efa0ee3          	beq	s4,a5,80006950 <__perf_end+0xa68>
    80005f58:	0000f7b7          	lui	a5,0xf
    80005f5c:	9f578793          	addi	a5,a5,-1547 # e9f5 <_start-0x7fff160b>
    80005f60:	22fa1ae3          	bne	s4,a5,80006994 <__perf_end+0xaac>
    80005f64:	00002517          	auipc	a0,0x2
    80005f68:	30450513          	addi	a0,a0,772 # 80008268 <state_known_crc+0xa8>
    80005f6c:	0c0020ef          	jal	ra,8000802c <printf_>
    80005f70:	00300793          	li	a5,3
    80005f74:	00003917          	auipc	s2,0x3
    80005f78:	a9c90913          	addi	s2,s2,-1380 # 80008a10 <default_num_contexts>
    80005f7c:	00092703          	lw	a4,0(s2)
    80005f80:	6c070c63          	beqz	a4,80006658 <__perf_end+0x770>
    80005f84:	00179793          	slli	a5,a5,0x1
    80005f88:	00002717          	auipc	a4,0x2
    80005f8c:	19870713          	addi	a4,a4,408 # 80008120 <intpat>
    80005f90:	00000993          	li	s3,0
    80005f94:	00000d13          	li	s10,0
    80005f98:	00000d93          	li	s11,0
    80005f9c:	00f70bb3          	add	s7,a4,a5
    80005fa0:	00002c97          	auipc	s9,0x2
    80005fa4:	328c8c93          	addi	s9,s9,808 # 800082c8 <state_known_crc+0x108>
    80005fa8:	00002c17          	auipc	s8,0x2
    80005fac:	350c0c13          	addi	s8,s8,848 # 800082f8 <state_known_crc+0x138>
    80005fb0:	03c0006f          	j	80005fec <__perf_end+0x104>
    80005fb4:	41b407b3          	sub	a5,s0,s11
    80005fb8:	00479793          	slli	a5,a5,0x4
    80005fbc:	07010713          	addi	a4,sp,112
    80005fc0:	00f707b3          	add	a5,a4,a5
    80005fc4:	ff87d783          	lhu	a5,-8(a5)
    80005fc8:	001d0d1b          	addiw	s10,s10,1
    80005fcc:	00092683          	lw	a3,0(s2)
    80005fd0:	00f989bb          	addw	s3,s3,a5
    80005fd4:	030d1d13          	slli	s10,s10,0x30
    80005fd8:	030d5d13          	srli	s10,s10,0x30
    80005fdc:	0109999b          	slliw	s3,s3,0x10
    80005fe0:	4109d99b          	sraiw	s3,s3,0x10
    80005fe4:	000d0d9b          	sext.w	s11,s10
    80005fe8:	66dd7a63          	bgeu	s10,a3,8000665c <__perf_end+0x774>
    80005fec:	003d9413          	slli	s0,s11,0x3
    80005ff0:	41b404b3          	sub	s1,s0,s11
    80005ff4:	07010793          	addi	a5,sp,112
    80005ff8:	00449493          	slli	s1,s1,0x4
    80005ffc:	009784b3          	add	s1,a5,s1
    80006000:	fc04a783          	lw	a5,-64(s1)
    80006004:	fe049c23          	sh	zero,-8(s1)
    80006008:	0017f793          	andi	a5,a5,1
    8000600c:	02078463          	beqz	a5,80006034 <__perf_end+0x14c>
    80006010:	ff24d603          	lhu	a2,-14(s1)
    80006014:	080bd683          	lhu	a3,128(s7)
    80006018:	00d60e63          	beq	a2,a3,80006034 <__perf_end+0x14c>
    8000601c:	000d8593          	mv	a1,s11
    80006020:	000c8513          	mv	a0,s9
    80006024:	008020ef          	jal	ra,8000802c <printf_>
    80006028:	ff84d783          	lhu	a5,-8(s1)
    8000602c:	0017879b          	addiw	a5,a5,1
    80006030:	fef49c23          	sh	a5,-8(s1)
    80006034:	41b404b3          	sub	s1,s0,s11
    80006038:	07010793          	addi	a5,sp,112
    8000603c:	00449493          	slli	s1,s1,0x4
    80006040:	009784b3          	add	s1,a5,s1
    80006044:	fc04a783          	lw	a5,-64(s1)
    80006048:	0027f693          	andi	a3,a5,2
    8000604c:	02068663          	beqz	a3,80006078 <__perf_end+0x190>
    80006050:	ff44d603          	lhu	a2,-12(s1)
    80006054:	090bd683          	lhu	a3,144(s7)
    80006058:	02d60063          	beq	a2,a3,80006078 <__perf_end+0x190>
    8000605c:	000d8593          	mv	a1,s11
    80006060:	000c0513          	mv	a0,s8
    80006064:	7c9010ef          	jal	ra,8000802c <printf_>
    80006068:	ff84d683          	lhu	a3,-8(s1)
    8000606c:	fc04a783          	lw	a5,-64(s1)
    80006070:	0016869b          	addiw	a3,a3,1
    80006074:	fed49c23          	sh	a3,-8(s1)
    80006078:	0047f793          	andi	a5,a5,4
    8000607c:	f2078ce3          	beqz	a5,80005fb4 <__perf_end+0xcc>
    80006080:	41b40433          	sub	s0,s0,s11
    80006084:	00441413          	slli	s0,s0,0x4
    80006088:	07010793          	addi	a5,sp,112
    8000608c:	00878433          	add	s0,a5,s0
    80006090:	ff645603          	lhu	a2,-10(s0)
    80006094:	0a0bd683          	lhu	a3,160(s7)
    80006098:	58d61c63          	bne	a2,a3,80006630 <__perf_end+0x748>
    8000609c:	ff845783          	lhu	a5,-8(s0)
    800060a0:	f29ff06f          	j	80005fc8 <__perf_end+0xe0>
    800060a4:	0000006f          	j	800060a4 <__perf_end+0x1bc>
    800060a8:	00011603          	lh	a2,0(sp)
    800060ac:	01013583          	ld	a1,16(sp)
    800060b0:	fe5f90ef          	jal	ra,80000094 <core_list_init>
    800060b4:	03012783          	lw	a5,48(sp)
    800060b8:	02a13c23          	sd	a0,56(sp)
    800060bc:	0027f713          	andi	a4,a5,2
    800060c0:	de0700e3          	beqz	a4,80005ea0 <main+0x138>
    800060c4:	00211603          	lh	a2,2(sp)
    800060c8:	00011783          	lh	a5,0(sp)
    800060cc:	01813583          	ld	a1,24(sp)
    800060d0:	02812503          	lw	a0,40(sp)
    800060d4:	0106161b          	slliw	a2,a2,0x10
    800060d8:	00f66633          	or	a2,a2,a5
    800060dc:	04010693          	addi	a3,sp,64
    800060e0:	0006061b          	sext.w	a2,a2
    800060e4:	ef8fb0ef          	jal	ra,800017dc <core_init_matrix>
    800060e8:	03012783          	lw	a5,48(sp)
    800060ec:	db5ff06f          	j	80005ea0 <main+0x138>
    800060f0:	000027b7          	lui	a5,0x2
    800060f4:	8f278793          	addi	a5,a5,-1806 # 18f2 <_start-0x7fffe70e>
    800060f8:	04fa02e3          	beq	s4,a5,8000693c <__perf_end+0xa54>
    800060fc:	000057b7          	lui	a5,0x5
    80006100:	eaf78793          	addi	a5,a5,-337 # 4eaf <_start-0x7fffb151>
    80006104:	08fa18e3          	bne	s4,a5,80006994 <__perf_end+0xaac>
    80006108:	00002517          	auipc	a0,0x2
    8000610c:	12850513          	addi	a0,a0,296 # 80008230 <state_known_crc+0x70>
    80006110:	71d010ef          	jal	ra,8000802c <printf_>
    80006114:	00200793          	li	a5,2
    80006118:	e5dff06f          	j	80005f74 <__perf_end+0x8c>
    8000611c:	00100793          	li	a5,1
    80006120:	ffffac37          	lui	s8,0xffffa
    80006124:	02f12623          	sw	a5,44(sp)
    80006128:	00004a17          	auipc	s4,0x4
    8000612c:	8e8a0a13          	addi	s4,s4,-1816 # 80009a10 <start_time_val>
    80006130:	00004a97          	auipc	s5,0x4
    80006134:	8d8a8a93          	addi	s5,s5,-1832 # 80009a08 <stop_time_val>
    80006138:	00010493          	mv	s1,sp
    8000613c:	001c0c13          	addi	s8,s8,1 # ffffffffffffa001 <_pmem_end+0xffffffff77ffa001>
    80006140:	3e700b93          	li	s7,999
    80006144:	02c12703          	lw	a4,44(sp)
    80006148:	0027179b          	slliw	a5,a4,0x2
    8000614c:	00e787bb          	addw	a5,a5,a4
    80006150:	0017991b          	slliw	s2,a5,0x1
    80006154:	03212623          	sw	s2,44(sp)
    80006158:	b00029f3          	csrr	s3,mcycle
    8000615c:	0009879b          	sext.w	a5,s3
    80006160:	00fa3023          	sd	a5,0(s4)
    80006164:	06013023          	sd	zero,96(sp)
    80006168:	00000413          	li	s0,0
    8000616c:	44090063          	beqz	s2,800065ac <__perf_end+0x6c4>
    80006170:	00100593          	li	a1,1
    80006174:	00048513          	mv	a0,s1
    80006178:	e81fd0ef          	jal	ra,80003ff8 <core_bench_list>
    8000617c:	06015583          	lhu	a1,96(sp)
    80006180:	0ff57693          	zext.b	a3,a0
    80006184:	0016d613          	srli	a2,a3,0x1
    80006188:	00a5c733          	xor	a4,a1,a0
    8000618c:	00177713          	andi	a4,a4,1
    80006190:	0015d793          	srli	a5,a1,0x1
    80006194:	00070a63          	beqz	a4,800061a8 <__perf_end+0x2c0>
    80006198:	0015d79b          	srliw	a5,a1,0x1
    8000619c:	00fc47b3          	xor	a5,s8,a5
    800061a0:	03079793          	slli	a5,a5,0x30
    800061a4:	0307d793          	srli	a5,a5,0x30
    800061a8:	00c7c633          	xor	a2,a5,a2
    800061ac:	00167613          	andi	a2,a2,1
    800061b0:	0026d713          	srli	a4,a3,0x2
    800061b4:	0017d793          	srli	a5,a5,0x1
    800061b8:	00060863          	beqz	a2,800061c8 <__perf_end+0x2e0>
    800061bc:	0187c7b3          	xor	a5,a5,s8
    800061c0:	03079793          	slli	a5,a5,0x30
    800061c4:	0307d793          	srli	a5,a5,0x30
    800061c8:	00e7c733          	xor	a4,a5,a4
    800061cc:	00177713          	andi	a4,a4,1
    800061d0:	0036d613          	srli	a2,a3,0x3
    800061d4:	0017d793          	srli	a5,a5,0x1
    800061d8:	00070863          	beqz	a4,800061e8 <__perf_end+0x300>
    800061dc:	0187c7b3          	xor	a5,a5,s8
    800061e0:	03079793          	slli	a5,a5,0x30
    800061e4:	0307d793          	srli	a5,a5,0x30
    800061e8:	00c7c633          	xor	a2,a5,a2
    800061ec:	00167613          	andi	a2,a2,1
    800061f0:	0046d713          	srli	a4,a3,0x4
    800061f4:	0017d793          	srli	a5,a5,0x1
    800061f8:	00060863          	beqz	a2,80006208 <__perf_end+0x320>
    800061fc:	0187c7b3          	xor	a5,a5,s8
    80006200:	03079793          	slli	a5,a5,0x30
    80006204:	0307d793          	srli	a5,a5,0x30
    80006208:	00e7c733          	xor	a4,a5,a4
    8000620c:	00177713          	andi	a4,a4,1
    80006210:	0056d613          	srli	a2,a3,0x5
    80006214:	0017d793          	srli	a5,a5,0x1
    80006218:	00070863          	beqz	a4,80006228 <__perf_end+0x340>
    8000621c:	0187c7b3          	xor	a5,a5,s8
    80006220:	03079793          	slli	a5,a5,0x30
    80006224:	0307d793          	srli	a5,a5,0x30
    80006228:	00c7c633          	xor	a2,a5,a2
    8000622c:	00167613          	andi	a2,a2,1
    80006230:	0066d713          	srli	a4,a3,0x6
    80006234:	0017d793          	srli	a5,a5,0x1
    80006238:	00060863          	beqz	a2,80006248 <__perf_end+0x360>
    8000623c:	0187c7b3          	xor	a5,a5,s8
    80006240:	03079793          	slli	a5,a5,0x30
    80006244:	0307d793          	srli	a5,a5,0x30
    80006248:	00e7c733          	xor	a4,a5,a4
    8000624c:	00177713          	andi	a4,a4,1
    80006250:	0076d693          	srli	a3,a3,0x7
    80006254:	0017d793          	srli	a5,a5,0x1
    80006258:	00070863          	beqz	a4,80006268 <__perf_end+0x380>
    8000625c:	0187c7b3          	xor	a5,a5,s8
    80006260:	03079793          	slli	a5,a5,0x30
    80006264:	0307d793          	srli	a5,a5,0x30
    80006268:	0017f713          	andi	a4,a5,1
    8000626c:	0017d793          	srli	a5,a5,0x1
    80006270:	00d70863          	beq	a4,a3,80006280 <__perf_end+0x398>
    80006274:	0187c7b3          	xor	a5,a5,s8
    80006278:	03079793          	slli	a5,a5,0x30
    8000627c:	0307d793          	srli	a5,a5,0x30
    80006280:	0085551b          	srliw	a0,a0,0x8
    80006284:	00a7c6b3          	xor	a3,a5,a0
    80006288:	0ff57713          	zext.b	a4,a0
    8000628c:	0016f693          	andi	a3,a3,1
    80006290:	00175613          	srli	a2,a4,0x1
    80006294:	0017d793          	srli	a5,a5,0x1
    80006298:	00068863          	beqz	a3,800062a8 <__perf_end+0x3c0>
    8000629c:	0187c7b3          	xor	a5,a5,s8
    800062a0:	03079793          	slli	a5,a5,0x30
    800062a4:	0307d793          	srli	a5,a5,0x30
    800062a8:	00c7c633          	xor	a2,a5,a2
    800062ac:	00167613          	andi	a2,a2,1
    800062b0:	00275693          	srli	a3,a4,0x2
    800062b4:	0017d793          	srli	a5,a5,0x1
    800062b8:	00060863          	beqz	a2,800062c8 <__perf_end+0x3e0>
    800062bc:	0187c7b3          	xor	a5,a5,s8
    800062c0:	03079793          	slli	a5,a5,0x30
    800062c4:	0307d793          	srli	a5,a5,0x30
    800062c8:	00d7c6b3          	xor	a3,a5,a3
    800062cc:	0016f693          	andi	a3,a3,1
    800062d0:	00375613          	srli	a2,a4,0x3
    800062d4:	0017d793          	srli	a5,a5,0x1
    800062d8:	00068863          	beqz	a3,800062e8 <__perf_end+0x400>
    800062dc:	0187c7b3          	xor	a5,a5,s8
    800062e0:	03079793          	slli	a5,a5,0x30
    800062e4:	0307d793          	srli	a5,a5,0x30
    800062e8:	00c7c633          	xor	a2,a5,a2
    800062ec:	00167613          	andi	a2,a2,1
    800062f0:	00475693          	srli	a3,a4,0x4
    800062f4:	0017d793          	srli	a5,a5,0x1
    800062f8:	00060863          	beqz	a2,80006308 <__perf_end+0x420>
    800062fc:	0187c7b3          	xor	a5,a5,s8
    80006300:	03079793          	slli	a5,a5,0x30
    80006304:	0307d793          	srli	a5,a5,0x30
    80006308:	00d7c6b3          	xor	a3,a5,a3
    8000630c:	0016f693          	andi	a3,a3,1
    80006310:	00575613          	srli	a2,a4,0x5
    80006314:	0017d793          	srli	a5,a5,0x1
    80006318:	00068863          	beqz	a3,80006328 <__perf_end+0x440>
    8000631c:	0187c7b3          	xor	a5,a5,s8
    80006320:	03079793          	slli	a5,a5,0x30
    80006324:	0307d793          	srli	a5,a5,0x30
    80006328:	00c7c633          	xor	a2,a5,a2
    8000632c:	00167613          	andi	a2,a2,1
    80006330:	00675693          	srli	a3,a4,0x6
    80006334:	0017d793          	srli	a5,a5,0x1
    80006338:	00060863          	beqz	a2,80006348 <__perf_end+0x460>
    8000633c:	0187c7b3          	xor	a5,a5,s8
    80006340:	03079793          	slli	a5,a5,0x30
    80006344:	0307d793          	srli	a5,a5,0x30
    80006348:	00d7c6b3          	xor	a3,a5,a3
    8000634c:	0016f693          	andi	a3,a3,1
    80006350:	00775713          	srli	a4,a4,0x7
    80006354:	0017d793          	srli	a5,a5,0x1
    80006358:	00068863          	beqz	a3,80006368 <__perf_end+0x480>
    8000635c:	0187c7b3          	xor	a5,a5,s8
    80006360:	03079793          	slli	a5,a5,0x30
    80006364:	0307d793          	srli	a5,a5,0x30
    80006368:	00e7c733          	xor	a4,a5,a4
    8000636c:	00177713          	andi	a4,a4,1
    80006370:	0017d793          	srli	a5,a5,0x1
    80006374:	00070863          	beqz	a4,80006384 <__perf_end+0x49c>
    80006378:	0187c7b3          	xor	a5,a5,s8
    8000637c:	03079793          	slli	a5,a5,0x30
    80006380:	0307d793          	srli	a5,a5,0x30
    80006384:	fff00593          	li	a1,-1
    80006388:	00048513          	mv	a0,s1
    8000638c:	06f11023          	sh	a5,96(sp)
    80006390:	c69fd0ef          	jal	ra,80003ff8 <core_bench_list>
    80006394:	06015583          	lhu	a1,96(sp)
    80006398:	0ff57693          	zext.b	a3,a0
    8000639c:	0016d613          	srli	a2,a3,0x1
    800063a0:	00a5c733          	xor	a4,a1,a0
    800063a4:	00177713          	andi	a4,a4,1
    800063a8:	0015d793          	srli	a5,a1,0x1
    800063ac:	00070a63          	beqz	a4,800063c0 <__perf_end+0x4d8>
    800063b0:	0015d79b          	srliw	a5,a1,0x1
    800063b4:	00fc47b3          	xor	a5,s8,a5
    800063b8:	03079793          	slli	a5,a5,0x30
    800063bc:	0307d793          	srli	a5,a5,0x30
    800063c0:	00c7c633          	xor	a2,a5,a2
    800063c4:	00167613          	andi	a2,a2,1
    800063c8:	0026d713          	srli	a4,a3,0x2
    800063cc:	0017d793          	srli	a5,a5,0x1
    800063d0:	00060863          	beqz	a2,800063e0 <__perf_end+0x4f8>
    800063d4:	0187c7b3          	xor	a5,a5,s8
    800063d8:	03079793          	slli	a5,a5,0x30
    800063dc:	0307d793          	srli	a5,a5,0x30
    800063e0:	00e7c733          	xor	a4,a5,a4
    800063e4:	00177713          	andi	a4,a4,1
    800063e8:	0036d613          	srli	a2,a3,0x3
    800063ec:	0017d793          	srli	a5,a5,0x1
    800063f0:	00070863          	beqz	a4,80006400 <__perf_end+0x518>
    800063f4:	0187c7b3          	xor	a5,a5,s8
    800063f8:	03079793          	slli	a5,a5,0x30
    800063fc:	0307d793          	srli	a5,a5,0x30
    80006400:	00c7c633          	xor	a2,a5,a2
    80006404:	00167613          	andi	a2,a2,1
    80006408:	0046d713          	srli	a4,a3,0x4
    8000640c:	0017d793          	srli	a5,a5,0x1
    80006410:	00060863          	beqz	a2,80006420 <__perf_end+0x538>
    80006414:	0187c7b3          	xor	a5,a5,s8
    80006418:	03079793          	slli	a5,a5,0x30
    8000641c:	0307d793          	srli	a5,a5,0x30
    80006420:	00e7c733          	xor	a4,a5,a4
    80006424:	00177713          	andi	a4,a4,1
    80006428:	0056d613          	srli	a2,a3,0x5
    8000642c:	0017d793          	srli	a5,a5,0x1
    80006430:	00070863          	beqz	a4,80006440 <__perf_end+0x558>
    80006434:	0187c7b3          	xor	a5,a5,s8
    80006438:	03079793          	slli	a5,a5,0x30
    8000643c:	0307d793          	srli	a5,a5,0x30
    80006440:	00c7c633          	xor	a2,a5,a2
    80006444:	00167613          	andi	a2,a2,1
    80006448:	0066d713          	srli	a4,a3,0x6
    8000644c:	0017d793          	srli	a5,a5,0x1
    80006450:	00060863          	beqz	a2,80006460 <__perf_end+0x578>
    80006454:	0187c7b3          	xor	a5,a5,s8
    80006458:	03079793          	slli	a5,a5,0x30
    8000645c:	0307d793          	srli	a5,a5,0x30
    80006460:	00e7c733          	xor	a4,a5,a4
    80006464:	00177713          	andi	a4,a4,1
    80006468:	0076d693          	srli	a3,a3,0x7
    8000646c:	0017d793          	srli	a5,a5,0x1
    80006470:	00070863          	beqz	a4,80006480 <__perf_end+0x598>
    80006474:	0187c7b3          	xor	a5,a5,s8
    80006478:	03079793          	slli	a5,a5,0x30
    8000647c:	0307d793          	srli	a5,a5,0x30
    80006480:	0017f713          	andi	a4,a5,1
    80006484:	0017d793          	srli	a5,a5,0x1
    80006488:	00d70863          	beq	a4,a3,80006498 <__perf_end+0x5b0>
    8000648c:	0187c7b3          	xor	a5,a5,s8
    80006490:	03079793          	slli	a5,a5,0x30
    80006494:	0307d793          	srli	a5,a5,0x30
    80006498:	0085571b          	srliw	a4,a0,0x8
    8000649c:	00e7c6b3          	xor	a3,a5,a4
    800064a0:	0016f693          	andi	a3,a3,1
    800064a4:	0ff77713          	zext.b	a4,a4
    800064a8:	00175613          	srli	a2,a4,0x1
    800064ac:	0017d793          	srli	a5,a5,0x1
    800064b0:	00068863          	beqz	a3,800064c0 <__perf_end+0x5d8>
    800064b4:	0187c7b3          	xor	a5,a5,s8
    800064b8:	03079793          	slli	a5,a5,0x30
    800064bc:	0307d793          	srli	a5,a5,0x30
    800064c0:	00c7c633          	xor	a2,a5,a2
    800064c4:	00167613          	andi	a2,a2,1
    800064c8:	00275693          	srli	a3,a4,0x2
    800064cc:	0017d793          	srli	a5,a5,0x1
    800064d0:	00060863          	beqz	a2,800064e0 <__perf_end+0x5f8>
    800064d4:	0187c7b3          	xor	a5,a5,s8
    800064d8:	03079793          	slli	a5,a5,0x30
    800064dc:	0307d793          	srli	a5,a5,0x30
    800064e0:	00d7c6b3          	xor	a3,a5,a3
    800064e4:	0016f693          	andi	a3,a3,1
    800064e8:	00375613          	srli	a2,a4,0x3
    800064ec:	0017d793          	srli	a5,a5,0x1
    800064f0:	00068863          	beqz	a3,80006500 <__perf_end+0x618>
    800064f4:	0187c7b3          	xor	a5,a5,s8
    800064f8:	03079793          	slli	a5,a5,0x30
    800064fc:	0307d793          	srli	a5,a5,0x30
    80006500:	00c7c633          	xor	a2,a5,a2
    80006504:	00167613          	andi	a2,a2,1
    80006508:	00475693          	srli	a3,a4,0x4
    8000650c:	0017d793          	srli	a5,a5,0x1
    80006510:	00060863          	beqz	a2,80006520 <__perf_end+0x638>
    80006514:	0187c7b3          	xor	a5,a5,s8
    80006518:	03079793          	slli	a5,a5,0x30
    8000651c:	0307d793          	srli	a5,a5,0x30
    80006520:	00d7c6b3          	xor	a3,a5,a3
    80006524:	0016f693          	andi	a3,a3,1
    80006528:	00575613          	srli	a2,a4,0x5
    8000652c:	0017d793          	srli	a5,a5,0x1
    80006530:	00068863          	beqz	a3,80006540 <__perf_end+0x658>
    80006534:	0187c7b3          	xor	a5,a5,s8
    80006538:	03079793          	slli	a5,a5,0x30
    8000653c:	0307d793          	srli	a5,a5,0x30
    80006540:	00c7c633          	xor	a2,a5,a2
    80006544:	00167613          	andi	a2,a2,1
    80006548:	00675693          	srli	a3,a4,0x6
    8000654c:	0017d793          	srli	a5,a5,0x1
    80006550:	00060863          	beqz	a2,80006560 <__perf_end+0x678>
    80006554:	0187c7b3          	xor	a5,a5,s8
    80006558:	03079793          	slli	a5,a5,0x30
    8000655c:	0307d793          	srli	a5,a5,0x30
    80006560:	00d7c6b3          	xor	a3,a5,a3
    80006564:	0016f693          	andi	a3,a3,1
    80006568:	00775713          	srli	a4,a4,0x7
    8000656c:	0017d793          	srli	a5,a5,0x1
    80006570:	00068863          	beqz	a3,80006580 <__perf_end+0x698>
    80006574:	0187c7b3          	xor	a5,a5,s8
    80006578:	03079793          	slli	a5,a5,0x30
    8000657c:	0307d793          	srli	a5,a5,0x30
    80006580:	00e7c733          	xor	a4,a5,a4
    80006584:	00177713          	andi	a4,a4,1
    80006588:	0017d793          	srli	a5,a5,0x1
    8000658c:	00070863          	beqz	a4,8000659c <__perf_end+0x6b4>
    80006590:	0187c7b3          	xor	a5,a5,s8
    80006594:	03079793          	slli	a5,a5,0x30
    80006598:	0307d793          	srli	a5,a5,0x30
    8000659c:	06f11023          	sh	a5,96(sp)
    800065a0:	04040263          	beqz	s0,800065e4 <__perf_end+0x6fc>
    800065a4:	0014041b          	addiw	s0,s0,1
    800065a8:	bc8914e3          	bne	s2,s0,80006170 <__perf_end+0x288>
    800065ac:	b00027f3          	csrr	a5,mcycle
    800065b0:	0007871b          	sext.w	a4,a5
    800065b4:	00eab023          	sd	a4,0(s5)
    800065b8:	413787bb          	subw	a5,a5,s3
    800065bc:	b8fbf4e3          	bgeu	s7,a5,80006144 <__perf_end+0x25c>
    800065c0:	3e800713          	li	a4,1000
    800065c4:	02e7d7bb          	divuw	a5,a5,a4
    800065c8:	00a00713          	li	a4,10
    800065cc:	02f757bb          	divuw	a5,a4,a5
    800065d0:	02c12703          	lw	a4,44(sp)
    800065d4:	0017879b          	addiw	a5,a5,1
    800065d8:	02f707bb          	mulw	a5,a4,a5
    800065dc:	02f12623          	sw	a5,44(sp)
    800065e0:	8f5ff06f          	j	80005ed4 <main+0x16c>
    800065e4:	06f11123          	sh	a5,98(sp)
    800065e8:	00100413          	li	s0,1
    800065ec:	b85ff06f          	j	80006170 <__perf_end+0x288>
    800065f0:	02c686bb          	mulw	a3,a3,a2
    800065f4:	02069693          	slli	a3,a3,0x20
    800065f8:	0206d693          	srli	a3,a3,0x20
    800065fc:	00d806b3          	add	a3,a6,a3
    80006600:	02d13023          	sd	a3,32(sp)
    80006604:	88088ce3          	beqz	a7,80005e9c <main+0x134>
    80006608:	aa1ff06f          	j	800060a8 <__perf_end+0x1c0>
    8000660c:	01013823          	sd	a6,16(sp)
    80006610:	880e02e3          	beqz	t3,80005e94 <main+0x12c>
    80006614:	02c585bb          	mulw	a1,a1,a2
    80006618:	02059593          	slli	a1,a1,0x20
    8000661c:	0205d593          	srli	a1,a1,0x20
    80006620:	00b805b3          	add	a1,a6,a1
    80006624:	00b13c23          	sd	a1,24(sp)
    80006628:	860308e3          	beqz	t1,80005e98 <main+0x130>
    8000662c:	fc5ff06f          	j	800065f0 <__perf_end+0x708>
    80006630:	000d8593          	mv	a1,s11
    80006634:	00002517          	auipc	a0,0x2
    80006638:	cfc50513          	addi	a0,a0,-772 # 80008330 <state_known_crc+0x170>
    8000663c:	1f1010ef          	jal	ra,8000802c <printf_>
    80006640:	ff845783          	lhu	a5,-8(s0)
    80006644:	0017879b          	addiw	a5,a5,1
    80006648:	03079793          	slli	a5,a5,0x30
    8000664c:	0307d793          	srli	a5,a5,0x30
    80006650:	fef41c23          	sh	a5,-8(s0)
    80006654:	975ff06f          	j	80005fc8 <__perf_end+0xe0>
    80006658:	00000993          	li	s3,0
    8000665c:	02812583          	lw	a1,40(sp)
    80006660:	00002517          	auipc	a0,0x2
    80006664:	d0050513          	addi	a0,a0,-768 # 80008360 <state_known_crc+0x1a0>
    80006668:	1c5010ef          	jal	ra,8000802c <printf_>
    8000666c:	000a8593          	mv	a1,s5
    80006670:	00002517          	auipc	a0,0x2
    80006674:	d0850513          	addi	a0,a0,-760 # 80008378 <state_known_crc+0x1b8>
    80006678:	1b5010ef          	jal	ra,8000802c <printf_>
    8000667c:	3e800793          	li	a5,1000
    80006680:	02fb55bb          	divuw	a1,s6,a5
    80006684:	00002517          	auipc	a0,0x2
    80006688:	d0c50513          	addi	a0,a0,-756 # 80008390 <state_known_crc+0x1d0>
    8000668c:	00058b13          	mv	s6,a1
    80006690:	19d010ef          	jal	ra,8000802c <printf_>
    80006694:	00200793          	li	a5,2
    80006698:	00f92023          	sw	a5,0(s2)
    8000669c:	3e700793          	li	a5,999
    800066a0:	2357ea63          	bltu	a5,s5,800068d4 <__perf_end+0x9ec>
    800066a4:	0019899b          	addiw	s3,s3,1
    800066a8:	00002517          	auipc	a0,0x2
    800066ac:	d0050513          	addi	a0,a0,-768 # 800083a8 <state_known_crc+0x1e8>
    800066b0:	0109999b          	slliw	s3,s3,0x10
    800066b4:	179010ef          	jal	ra,8000802c <printf_>
    800066b8:	4109d99b          	sraiw	s3,s3,0x10
    800066bc:	00092783          	lw	a5,0(s2)
    800066c0:	02c12583          	lw	a1,44(sp)
    800066c4:	00002517          	auipc	a0,0x2
    800066c8:	d4450513          	addi	a0,a0,-700 # 80008408 <state_known_crc+0x248>
    800066cc:	02f585bb          	mulw	a1,a1,a5
    800066d0:	15d010ef          	jal	ra,8000802c <printf_>
    800066d4:	00002597          	auipc	a1,0x2
    800066d8:	d4c58593          	addi	a1,a1,-692 # 80008420 <state_known_crc+0x260>
    800066dc:	00002517          	auipc	a0,0x2
    800066e0:	d5450513          	addi	a0,a0,-684 # 80008430 <state_known_crc+0x270>
    800066e4:	149010ef          	jal	ra,8000802c <printf_>
    800066e8:	00002597          	auipc	a1,0x2
    800066ec:	d6058593          	addi	a1,a1,-672 # 80008448 <state_known_crc+0x288>
    800066f0:	00002517          	auipc	a0,0x2
    800066f4:	d6050513          	addi	a0,a0,-672 # 80008450 <state_known_crc+0x290>
    800066f8:	135010ef          	jal	ra,8000802c <printf_>
    800066fc:	00002597          	auipc	a1,0x2
    80006700:	d6c58593          	addi	a1,a1,-660 # 80008468 <state_known_crc+0x2a8>
    80006704:	00002517          	auipc	a0,0x2
    80006708:	d6c50513          	addi	a0,a0,-660 # 80008470 <state_known_crc+0x2b0>
    8000670c:	121010ef          	jal	ra,8000802c <printf_>
    80006710:	000a0593          	mv	a1,s4
    80006714:	00002517          	auipc	a0,0x2
    80006718:	d7450513          	addi	a0,a0,-652 # 80008488 <state_known_crc+0x2c8>
    8000671c:	111010ef          	jal	ra,8000802c <printf_>
    80006720:	03012783          	lw	a5,48(sp)
    80006724:	00100713          	li	a4,1
    80006728:	00e92023          	sw	a4,0(s2)
    8000672c:	0017f713          	andi	a4,a5,1
    80006730:	1e070463          	beqz	a4,80006918 <__perf_end+0xa30>
    80006734:	00000413          	li	s0,0
    80006738:	00000593          	li	a1,0
    8000673c:	00002497          	auipc	s1,0x2
    80006740:	d6c48493          	addi	s1,s1,-660 # 800084a8 <state_known_crc+0x2e8>
    80006744:	00359793          	slli	a5,a1,0x3
    80006748:	40b787b3          	sub	a5,a5,a1
    8000674c:	07010713          	addi	a4,sp,112
    80006750:	00479793          	slli	a5,a5,0x4
    80006754:	00f707b3          	add	a5,a4,a5
    80006758:	ff27d603          	lhu	a2,-14(a5)
    8000675c:	00048513          	mv	a0,s1
    80006760:	0014041b          	addiw	s0,s0,1
    80006764:	0c9010ef          	jal	ra,8000802c <printf_>
    80006768:	00092783          	lw	a5,0(s2)
    8000676c:	03041413          	slli	s0,s0,0x30
    80006770:	03045413          	srli	s0,s0,0x30
    80006774:	0004059b          	sext.w	a1,s0
    80006778:	fcf466e3          	bltu	s0,a5,80006744 <__perf_end+0x85c>
    8000677c:	03012703          	lw	a4,48(sp)
    80006780:	00277693          	andi	a3,a4,2
    80006784:	04068a63          	beqz	a3,800067d8 <__perf_end+0x8f0>
    80006788:	20078063          	beqz	a5,80006988 <__perf_end+0xaa0>
    8000678c:	00000413          	li	s0,0
    80006790:	00000593          	li	a1,0
    80006794:	00002497          	auipc	s1,0x2
    80006798:	d3448493          	addi	s1,s1,-716 # 800084c8 <state_known_crc+0x308>
    8000679c:	00359793          	slli	a5,a1,0x3
    800067a0:	40b787b3          	sub	a5,a5,a1
    800067a4:	07010713          	addi	a4,sp,112
    800067a8:	00479793          	slli	a5,a5,0x4
    800067ac:	00f707b3          	add	a5,a4,a5
    800067b0:	ff47d603          	lhu	a2,-12(a5)
    800067b4:	00048513          	mv	a0,s1
    800067b8:	0014041b          	addiw	s0,s0,1
    800067bc:	071010ef          	jal	ra,8000802c <printf_>
    800067c0:	00092783          	lw	a5,0(s2)
    800067c4:	03041413          	slli	s0,s0,0x30
    800067c8:	03045413          	srli	s0,s0,0x30
    800067cc:	0004059b          	sext.w	a1,s0
    800067d0:	fcf466e3          	bltu	s0,a5,8000679c <__perf_end+0x8b4>
    800067d4:	03012703          	lw	a4,48(sp)
    800067d8:	00477713          	andi	a4,a4,4
    800067dc:	04070a63          	beqz	a4,80006830 <__perf_end+0x948>
    800067e0:	00092783          	lw	a5,0(s2)
    800067e4:	00000413          	li	s0,0
    800067e8:	00000593          	li	a1,0
    800067ec:	00002497          	auipc	s1,0x2
    800067f0:	cfc48493          	addi	s1,s1,-772 # 800084e8 <state_known_crc+0x328>
    800067f4:	08078663          	beqz	a5,80006880 <__perf_end+0x998>
    800067f8:	00359793          	slli	a5,a1,0x3
    800067fc:	40b787b3          	sub	a5,a5,a1
    80006800:	07010713          	addi	a4,sp,112
    80006804:	00479793          	slli	a5,a5,0x4
    80006808:	00f707b3          	add	a5,a4,a5
    8000680c:	ff67d603          	lhu	a2,-10(a5)
    80006810:	00048513          	mv	a0,s1
    80006814:	0014041b          	addiw	s0,s0,1
    80006818:	015010ef          	jal	ra,8000802c <printf_>
    8000681c:	00092783          	lw	a5,0(s2)
    80006820:	03041413          	slli	s0,s0,0x30
    80006824:	03045413          	srli	s0,s0,0x30
    80006828:	0004059b          	sext.w	a1,s0
    8000682c:	fcf466e3          	bltu	s0,a5,800067f8 <__perf_end+0x910>
    80006830:	00092783          	lw	a5,0(s2)
    80006834:	04078663          	beqz	a5,80006880 <__perf_end+0x998>
    80006838:	00000413          	li	s0,0
    8000683c:	00000593          	li	a1,0
    80006840:	00002497          	auipc	s1,0x2
    80006844:	cc848493          	addi	s1,s1,-824 # 80008508 <state_known_crc+0x348>
    80006848:	00359793          	slli	a5,a1,0x3
    8000684c:	40b787b3          	sub	a5,a5,a1
    80006850:	07010713          	addi	a4,sp,112
    80006854:	00479793          	slli	a5,a5,0x4
    80006858:	00f707b3          	add	a5,a4,a5
    8000685c:	ff07d603          	lhu	a2,-16(a5)
    80006860:	00048513          	mv	a0,s1
    80006864:	0014041b          	addiw	s0,s0,1
    80006868:	7c4010ef          	jal	ra,8000802c <printf_>
    8000686c:	00092783          	lw	a5,0(s2)
    80006870:	03041413          	slli	s0,s0,0x30
    80006874:	03045413          	srli	s0,s0,0x30
    80006878:	0004059b          	sext.w	a1,s0
    8000687c:	fcf466e3          	bltu	s0,a5,80006848 <__perf_end+0x960>
    80006880:	0a098663          	beqz	s3,8000692c <__perf_end+0xa44>
    80006884:	0f305063          	blez	s3,80006964 <__perf_end+0xa7c>
    80006888:	00002517          	auipc	a0,0x2
    8000688c:	cf050513          	addi	a0,a0,-784 # 80008578 <state_known_crc+0x3b8>
    80006890:	79c010ef          	jal	ra,8000802c <printf_>
    80006894:	0d813083          	ld	ra,216(sp)
    80006898:	0d013403          	ld	s0,208(sp)
    8000689c:	0c813483          	ld	s1,200(sp)
    800068a0:	0c013903          	ld	s2,192(sp)
    800068a4:	0b813983          	ld	s3,184(sp)
    800068a8:	0b013a03          	ld	s4,176(sp)
    800068ac:	0a813a83          	ld	s5,168(sp)
    800068b0:	0a013b03          	ld	s6,160(sp)
    800068b4:	09813b83          	ld	s7,152(sp)
    800068b8:	09013c03          	ld	s8,144(sp)
    800068bc:	08813c83          	ld	s9,136(sp)
    800068c0:	08013d03          	ld	s10,128(sp)
    800068c4:	07813d83          	ld	s11,120(sp)
    800068c8:	00000513          	li	a0,0
    800068cc:	0e010113          	addi	sp,sp,224
    800068d0:	00008067          	ret
    800068d4:	7d000593          	li	a1,2000
    800068d8:	0365d5bb          	divuw	a1,a1,s6
    800068dc:	00002517          	auipc	a0,0x2
    800068e0:	b0c50513          	addi	a0,a0,-1268 # 800083e8 <state_known_crc+0x228>
    800068e4:	748010ef          	jal	ra,8000802c <printf_>
    800068e8:	000317b7          	lui	a5,0x31
    800068ec:	d407879b          	addiw	a5,a5,-704 # 30d40 <_start-0x7ffcf2c0>
    800068f0:	0367db3b          	divuw	s6,a5,s6
    800068f4:	06400593          	li	a1,100
    800068f8:	00002517          	auipc	a0,0x2
    800068fc:	b0850513          	addi	a0,a0,-1272 # 80008400 <state_known_crc+0x240>
    80006900:	02bb75bb          	remuw	a1,s6,a1
    80006904:	728010ef          	jal	ra,8000802c <printf_>
    80006908:	000027b7          	lui	a5,0x2
    8000690c:	70f78793          	addi	a5,a5,1807 # 270f <_start-0x7fffd8f1>
    80006910:	db57e6e3          	bltu	a5,s5,800066bc <__perf_end+0x7d4>
    80006914:	d91ff06f          	j	800066a4 <__perf_end+0x7bc>
    80006918:	0027f713          	andi	a4,a5,2
    8000691c:	e60718e3          	bnez	a4,8000678c <__perf_end+0x8a4>
    80006920:	0047f793          	andi	a5,a5,4
    80006924:	f0078ae3          	beqz	a5,80006838 <__perf_end+0x950>
    80006928:	eb9ff06f          	j	800067e0 <__perf_end+0x8f8>
    8000692c:	00002517          	auipc	a0,0x2
    80006930:	bfc50513          	addi	a0,a0,-1028 # 80008528 <state_known_crc+0x368>
    80006934:	6f8010ef          	jal	ra,8000802c <printf_>
    80006938:	f5dff06f          	j	80006894 <__perf_end+0x9ac>
    8000693c:	00002517          	auipc	a0,0x2
    80006940:	95c50513          	addi	a0,a0,-1700 # 80008298 <state_known_crc+0xd8>
    80006944:	6e8010ef          	jal	ra,8000802c <printf_>
    80006948:	00400793          	li	a5,4
    8000694c:	e28ff06f          	j	80005f74 <__perf_end+0x8c>
    80006950:	00002517          	auipc	a0,0x2
    80006954:	88050513          	addi	a0,a0,-1920 # 800081d0 <state_known_crc+0x10>
    80006958:	6d4010ef          	jal	ra,8000802c <printf_>
    8000695c:	00000793          	li	a5,0
    80006960:	e14ff06f          	j	80005f74 <__perf_end+0x8c>
    80006964:	00002517          	auipc	a0,0x2
    80006968:	c2c50513          	addi	a0,a0,-980 # 80008590 <state_known_crc+0x3d0>
    8000696c:	6c0010ef          	jal	ra,8000802c <printf_>
    80006970:	f25ff06f          	j	80006894 <__perf_end+0x9ac>
    80006974:	00002517          	auipc	a0,0x2
    80006978:	88c50513          	addi	a0,a0,-1908 # 80008200 <state_known_crc+0x40>
    8000697c:	6b0010ef          	jal	ra,8000802c <printf_>
    80006980:	00100793          	li	a5,1
    80006984:	df0ff06f          	j	80005f74 <__perf_end+0x8c>
    80006988:	00477713          	andi	a4,a4,4
    8000698c:	e4071ae3          	bnez	a4,800067e0 <__perf_end+0x8f8>
    80006990:	ef1ff06f          	j	80006880 <__perf_end+0x998>
    80006994:	fff00993          	li	s3,-1
    80006998:	00002917          	auipc	s2,0x2
    8000699c:	07890913          	addi	s2,s2,120 # 80008a10 <default_num_contexts>
    800069a0:	cbdff06f          	j	8000665c <__perf_end+0x774>

Disassembly of section .text._putc:

00000000800069a4 <_putc>:
    800069a4:	0a40006f          	j	80006a48 <__am_uartlite_putchar>

Disassembly of section .text._halt:

00000000800069a8 <_halt>:
    800069a8:	ff010113          	addi	sp,sp,-16
    800069ac:	00113423          	sd	ra,8(sp)
    800069b0:	00050593          	mv	a1,a0
    800069b4:	00050513          	mv	a0,a0
    800069b8:	0005006b          	.word	0x0005006b
    800069bc:	00002517          	auipc	a0,0x2
    800069c0:	d3450513          	addi	a0,a0,-716 # 800086f0 <state_known_crc+0x530>
    800069c4:	668010ef          	jal	ra,8000802c <printf_>
    800069c8:	0000006f          	j	800069c8 <_halt+0x20>

Disassembly of section .text._trm_init:

00000000800069cc <_trm_init>:
    800069cc:	ff010113          	addi	sp,sp,-16
    800069d0:	00113423          	sd	ra,8(sp)
    800069d4:	f14027f3          	csrr	a5,mhartid
    800069d8:	0007859b          	sext.w	a1,a5
    800069dc:	02058c63          	beqz	a1,80006a14 <_trm_init+0x48>
    800069e0:	00100713          	li	a4,1
    800069e4:	02e59063          	bne	a1,a4,80006a04 <_trm_init+0x38>
    800069e8:	00003717          	auipc	a4,0x3
    800069ec:	fcf72e23          	sw	a5,-36(a4) # 800099c4 <core_init_flag+0x4>
    800069f0:	0ff0000f          	fence
    800069f4:	00002517          	auipc	a0,0x2
    800069f8:	d3150513          	addi	a0,a0,-719 # 80008725 <__am_mainargs>
    800069fc:	b6cff0ef          	jal	ra,80005d68 <main>
    80006a00:	fa9ff0ef          	jal	ra,800069a8 <_halt>
    80006a04:	00002517          	auipc	a0,0x2
    80006a08:	d0450513          	addi	a0,a0,-764 # 80008708 <state_known_crc+0x548>
    80006a0c:	620010ef          	jal	ra,8000802c <printf_>
    80006a10:	0000006f          	j	80006a10 <_trm_init+0x44>
    80006a14:	024000ef          	jal	ra,80006a38 <__am_init_uartlite>
    80006a18:	390017b7          	lui	a5,0x39001
    80006a1c:	0007b423          	sd	zero,8(a5) # 39001008 <_start-0x46ffeff8>
    80006a20:	00003717          	auipc	a4,0x3
    80006a24:	fa070713          	addi	a4,a4,-96 # 800099c0 <core_init_flag>
    80006a28:	00472783          	lw	a5,4(a4)
    80006a2c:	0007879b          	sext.w	a5,a5
    80006a30:	fe078ce3          	beqz	a5,80006a28 <_trm_init+0x5c>
    80006a34:	fc1ff06f          	j	800069f4 <_trm_init+0x28>

Disassembly of section .text.__am_init_uartlite:

0000000080006a38 <__am_init_uartlite>:
    80006a38:	406007b7          	lui	a5,0x40600
    80006a3c:	00300713          	li	a4,3
    80006a40:	00e78623          	sb	a4,12(a5) # 4060000c <_start-0x3f9ffff4>
    80006a44:	00008067          	ret

Disassembly of section .text.__am_uartlite_putchar:

0000000080006a48 <__am_uartlite_putchar>:
    80006a48:	00a00793          	li	a5,10
    80006a4c:	00f50e63          	beq	a0,a5,80006a68 <__am_uartlite_putchar+0x20>
    80006a50:	40600737          	lui	a4,0x40600
    80006a54:	00874783          	lbu	a5,8(a4) # 40600008 <_start-0x3f9ffff8>
    80006a58:	0087f793          	andi	a5,a5,8
    80006a5c:	fe079ce3          	bnez	a5,80006a54 <__am_uartlite_putchar+0xc>
    80006a60:	00a70223          	sb	a0,4(a4)
    80006a64:	00008067          	ret
    80006a68:	40600737          	lui	a4,0x40600
    80006a6c:	00874783          	lbu	a5,8(a4) # 40600008 <_start-0x3f9ffff8>
    80006a70:	0087f793          	andi	a5,a5,8
    80006a74:	fe079ce3          	bnez	a5,80006a6c <__am_uartlite_putchar+0x24>
    80006a78:	00d00793          	li	a5,13
    80006a7c:	00f70223          	sb	a5,4(a4)
    80006a80:	fd1ff06f          	j	80006a50 <__am_uartlite_putchar+0x8>

Disassembly of section .text._out_null:

0000000080006a84 <_out_null>:
    80006a84:	00008067          	ret

Disassembly of section .text._out_rev:

0000000080006a88 <_out_rev>:
    80006a88:	fa010113          	addi	sp,sp,-96
    80006a8c:	04913423          	sd	s1,72(sp)
    80006a90:	05213023          	sd	s2,64(sp)
    80006a94:	03313c23          	sd	s3,56(sp)
    80006a98:	03413823          	sd	s4,48(sp)
    80006a9c:	03513423          	sd	s5,40(sp)
    80006aa0:	03613023          	sd	s6,32(sp)
    80006aa4:	00060a93          	mv	s5,a2
    80006aa8:	01813823          	sd	s8,16(sp)
    80006aac:	01913423          	sd	s9,8(sp)
    80006ab0:	01a13023          	sd	s10,0(sp)
    80006ab4:	04113c23          	sd	ra,88(sp)
    80006ab8:	04813823          	sd	s0,80(sp)
    80006abc:	01713c23          	sd	s7,24(sp)
    80006ac0:	0038f613          	andi	a2,a7,3
    80006ac4:	00088c93          	mv	s9,a7
    80006ac8:	00050913          	mv	s2,a0
    80006acc:	00058993          	mv	s3,a1
    80006ad0:	00068a13          	mv	s4,a3
    80006ad4:	00070b13          	mv	s6,a4
    80006ad8:	00078d13          	mv	s10,a5
    80006adc:	00080c13          	mv	s8,a6
    80006ae0:	000a8493          	mv	s1,s5
    80006ae4:	02061c63          	bnez	a2,80006b1c <_out_rev+0x94>
    80006ae8:	02081793          	slli	a5,a6,0x20
    80006aec:	0207d793          	srli	a5,a5,0x20
    80006af0:	41a784b3          	sub	s1,a5,s10
    80006af4:	015484b3          	add	s1,s1,s5
    80006af8:	000a8413          	mv	s0,s5
    80006afc:	0cfd7063          	bgeu	s10,a5,80006bbc <_out_rev+0x134>
    80006b00:	00040613          	mv	a2,s0
    80006b04:	000a0693          	mv	a3,s4
    80006b08:	00140413          	addi	s0,s0,1
    80006b0c:	00098593          	mv	a1,s3
    80006b10:	02000513          	li	a0,32
    80006b14:	000900e7          	jalr	s2
    80006b18:	fe9414e3          	bne	s0,s1,80006b00 <_out_rev+0x78>
    80006b1c:	01ab0433          	add	s0,s6,s10
    80006b20:	00940bb3          	add	s7,s0,s1
    80006b24:	020d0263          	beqz	s10,80006b48 <_out_rev+0xc0>
    80006b28:	fff44503          	lbu	a0,-1(s0)
    80006b2c:	408b8633          	sub	a2,s7,s0
    80006b30:	000a0693          	mv	a3,s4
    80006b34:	fff40413          	addi	s0,s0,-1
    80006b38:	00098593          	mv	a1,s3
    80006b3c:	000900e7          	jalr	s2
    80006b40:	fe8b14e3          	bne	s6,s0,80006b28 <_out_rev+0xa0>
    80006b44:	01a484b3          	add	s1,s1,s10
    80006b48:	002cfc93          	andi	s9,s9,2
    80006b4c:	020c8a63          	beqz	s9,80006b80 <_out_rev+0xf8>
    80006b50:	020c1c13          	slli	s8,s8,0x20
    80006b54:	41548ab3          	sub	s5,s1,s5
    80006b58:	020c5c13          	srli	s8,s8,0x20
    80006b5c:	038af263          	bgeu	s5,s8,80006b80 <_out_rev+0xf8>
    80006b60:	00048613          	mv	a2,s1
    80006b64:	001a8a93          	addi	s5,s5,1
    80006b68:	000a0693          	mv	a3,s4
    80006b6c:	00098593          	mv	a1,s3
    80006b70:	02000513          	li	a0,32
    80006b74:	00148493          	addi	s1,s1,1
    80006b78:	000900e7          	jalr	s2
    80006b7c:	ff8ae2e3          	bltu	s5,s8,80006b60 <_out_rev+0xd8>
    80006b80:	05813083          	ld	ra,88(sp)
    80006b84:	05013403          	ld	s0,80(sp)
    80006b88:	04013903          	ld	s2,64(sp)
    80006b8c:	03813983          	ld	s3,56(sp)
    80006b90:	03013a03          	ld	s4,48(sp)
    80006b94:	02813a83          	ld	s5,40(sp)
    80006b98:	02013b03          	ld	s6,32(sp)
    80006b9c:	01813b83          	ld	s7,24(sp)
    80006ba0:	01013c03          	ld	s8,16(sp)
    80006ba4:	00813c83          	ld	s9,8(sp)
    80006ba8:	00013d03          	ld	s10,0(sp)
    80006bac:	00048513          	mv	a0,s1
    80006bb0:	04813483          	ld	s1,72(sp)
    80006bb4:	06010113          	addi	sp,sp,96
    80006bb8:	00008067          	ret
    80006bbc:	000a8493          	mv	s1,s5
    80006bc0:	f5dff06f          	j	80006b1c <_out_rev+0x94>

Disassembly of section .text._ntoa_long:

0000000080006bc4 <_ntoa_long>:
    80006bc4:	fb010113          	addi	sp,sp,-80
    80006bc8:	04113423          	sd	ra,72(sp)
    80006bcc:	05812083          	lw	ra,88(sp)
    80006bd0:	02913c23          	sd	s1,56(sp)
    80006bd4:	03313423          	sd	s3,40(sp)
    80006bd8:	04813023          	sd	s0,64(sp)
    80006bdc:	03213823          	sd	s2,48(sp)
    80006be0:	00080e93          	mv	t4,a6
    80006be4:	05012983          	lw	s3,80(sp)
    80006be8:	00070e13          	mv	t3,a4
    80006bec:	00078493          	mv	s1,a5
    80006bf0:	4000f813          	andi	a6,ra,1024
    80006bf4:	0e071063          	bnez	a4,80006cd4 <_ntoa_long+0x110>
    80006bf8:	00008913          	mv	s2,ra
    80006bfc:	fef0f093          	andi	ra,ra,-17
    80006c00:	0e081663          	bnez	a6,80006cec <_ntoa_long+0x128>
    80006c04:	0200f793          	andi	a5,ra,32
    80006c08:	00000913          	li	s2,0
    80006c0c:	06100293          	li	t0,97
    80006c10:	0c079a63          	bnez	a5,80006ce4 <_ntoa_long+0x120>
    80006c14:	00000793          	li	a5,0
    80006c18:	00010713          	mv	a4,sp
    80006c1c:	00900393          	li	t2,9
    80006c20:	ff62829b          	addiw	t0,t0,-10
    80006c24:	02000413          	li	s0,32
    80006c28:	00c0006f          	j	80006c34 <_ntoa_long+0x70>
    80006c2c:	02878c63          	beq	a5,s0,80006c64 <_ntoa_long+0xa0>
    80006c30:	00030e13          	mv	t3,t1
    80006c34:	03de7f33          	remu	t5,t3,t4
    80006c38:	0fff7313          	zext.b	t1,t5
    80006c3c:	03030f9b          	addiw	t6,t1,48
    80006c40:	0062833b          	addw	t1,t0,t1
    80006c44:	0ff37313          	zext.b	t1,t1
    80006c48:	01e3e463          	bltu	t2,t5,80006c50 <_ntoa_long+0x8c>
    80006c4c:	0ffff313          	zext.b	t1,t6
    80006c50:	00178793          	addi	a5,a5,1
    80006c54:	00f70f33          	add	t5,a4,a5
    80006c58:	fe6f0fa3          	sb	t1,-1(t5)
    80006c5c:	03de5333          	divu	t1,t3,t4
    80006c60:	fdde76e3          	bgeu	t3,t4,80006c2c <_ntoa_long+0x68>
    80006c64:	0020f313          	andi	t1,ra,2
    80006c68:	08030a63          	beqz	t1,80006cfc <_ntoa_long+0x138>
    80006c6c:	14090a63          	beqz	s2,80006dc0 <_ntoa_long+0x1fc>
    80006c70:	12081063          	bnez	a6,80006d90 <_ntoa_long+0x1cc>
    80006c74:	10079263          	bnez	a5,80006d78 <_ntoa_long+0x1b4>
    80006c78:	01000793          	li	a5,16
    80006c7c:	24fe8463          	beq	t4,a5,80006ec4 <_ntoa_long+0x300>
    80006c80:	00200793          	li	a5,2
    80006c84:	28fe8263          	beq	t4,a5,80006f08 <_ntoa_long+0x344>
    80006c88:	03000793          	li	a5,48
    80006c8c:	00f10023          	sb	a5,0(sp)
    80006c90:	00100793          	li	a5,1
    80006c94:	16048663          	beqz	s1,80006e00 <_ntoa_long+0x23c>
    80006c98:	02010813          	addi	a6,sp,32
    80006c9c:	00f80833          	add	a6,a6,a5
    80006ca0:	02d00893          	li	a7,45
    80006ca4:	ff180023          	sb	a7,-32(a6)
    80006ca8:	00178793          	addi	a5,a5,1
    80006cac:	00008893          	mv	a7,ra
    80006cb0:	00098813          	mv	a6,s3
    80006cb4:	dd5ff0ef          	jal	ra,80006a88 <_out_rev>
    80006cb8:	04813083          	ld	ra,72(sp)
    80006cbc:	04013403          	ld	s0,64(sp)
    80006cc0:	03813483          	ld	s1,56(sp)
    80006cc4:	03013903          	ld	s2,48(sp)
    80006cc8:	02813983          	ld	s3,40(sp)
    80006ccc:	05010113          	addi	sp,sp,80
    80006cd0:	00008067          	ret
    80006cd4:	0200f793          	andi	a5,ra,32
    80006cd8:	0100f913          	andi	s2,ra,16
    80006cdc:	06100293          	li	t0,97
    80006ce0:	f2078ae3          	beqz	a5,80006c14 <_ntoa_long+0x50>
    80006ce4:	04100293          	li	t0,65
    80006ce8:	f2dff06f          	j	80006c14 <_ntoa_long+0x50>
    80006cec:	00297913          	andi	s2,s2,2
    80006cf0:	00000793          	li	a5,0
    80006cf4:	00010713          	mv	a4,sp
    80006cf8:	f8091ee3          	bnez	s2,80006c94 <_ntoa_long+0xd0>
    80006cfc:	02089e13          	slli	t3,a7,0x20
    80006d00:	00008313          	mv	t1,ra
    80006d04:	0010f293          	andi	t0,ra,1
    80006d08:	020e5e13          	srli	t3,t3,0x20
    80006d0c:	0c099263          	bnez	s3,80006dd0 <_ntoa_long+0x20c>
    80006d10:	03c7f663          	bgeu	a5,t3,80006d3c <_ntoa_long+0x178>
    80006d14:	02000313          	li	t1,32
    80006d18:	02678263          	beq	a5,t1,80006d3c <_ntoa_long+0x178>
    80006d1c:	03000f13          	li	t5,48
    80006d20:	02000f93          	li	t6,32
    80006d24:	0080006f          	j	80006d2c <_ntoa_long+0x168>
    80006d28:	01f78a63          	beq	a5,t6,80006d3c <_ntoa_long+0x178>
    80006d2c:	00178793          	addi	a5,a5,1
    80006d30:	00f70333          	add	t1,a4,a5
    80006d34:	ffe30fa3          	sb	t5,-1(t1)
    80006d38:	ffc7e8e3          	bltu	a5,t3,80006d28 <_ntoa_long+0x164>
    80006d3c:	f20288e3          	beqz	t0,80006c6c <_ntoa_long+0xa8>
    80006d40:	02099f13          	slli	t5,s3,0x20
    80006d44:	020f5f13          	srli	t5,t5,0x20
    80006d48:	f3e7f2e3          	bgeu	a5,t5,80006c6c <_ntoa_long+0xa8>
    80006d4c:	02000313          	li	t1,32
    80006d50:	0a678063          	beq	a5,t1,80006df0 <_ntoa_long+0x22c>
    80006d54:	03000f93          	li	t6,48
    80006d58:	02000293          	li	t0,32
    80006d5c:	0080006f          	j	80006d64 <_ntoa_long+0x1a0>
    80006d60:	08578863          	beq	a5,t0,80006df0 <_ntoa_long+0x22c>
    80006d64:	00178793          	addi	a5,a5,1
    80006d68:	00f70333          	add	t1,a4,a5
    80006d6c:	fff30fa3          	sb	t6,-1(t1)
    80006d70:	ffe798e3          	bne	a5,t5,80006d60 <_ntoa_long+0x19c>
    80006d74:	ef9ff06f          	j	80006c6c <_ntoa_long+0xa8>
    80006d78:	02089e13          	slli	t3,a7,0x20
    80006d7c:	020e5e13          	srli	t3,t3,0x20
    80006d80:	0efe0a63          	beq	t3,a5,80006e74 <_ntoa_long+0x2b0>
    80006d84:	02099813          	slli	a6,s3,0x20
    80006d88:	02085813          	srli	a6,a6,0x20
    80006d8c:	0ef80463          	beq	a6,a5,80006e74 <_ntoa_long+0x2b0>
    80006d90:	01000813          	li	a6,16
    80006d94:	110e8463          	beq	t4,a6,80006e9c <_ntoa_long+0x2d8>
    80006d98:	00200813          	li	a6,2
    80006d9c:	0b0e8e63          	beq	t4,a6,80006e58 <_ntoa_long+0x294>
    80006da0:	02000813          	li	a6,32
    80006da4:	f10784e3          	beq	a5,a6,80006cac <_ntoa_long+0xe8>
    80006da8:	00078813          	mv	a6,a5
    80006dac:	02010793          	addi	a5,sp,32
    80006db0:	010788b3          	add	a7,a5,a6
    80006db4:	00180793          	addi	a5,a6,1
    80006db8:	03000813          	li	a6,48
    80006dbc:	ff088023          	sb	a6,-32(a7)
    80006dc0:	02000813          	li	a6,32
    80006dc4:	ed0798e3          	bne	a5,a6,80006c94 <_ntoa_long+0xd0>
    80006dc8:	02000793          	li	a5,32
    80006dcc:	ee1ff06f          	j	80006cac <_ntoa_long+0xe8>
    80006dd0:	04028c63          	beqz	t0,80006e28 <_ntoa_long+0x264>
    80006dd4:	08049c63          	bnez	s1,80006e6c <_ntoa_long+0x2a8>
    80006dd8:	00c37313          	andi	t1,t1,12
    80006ddc:	08031863          	bnez	t1,80006e6c <_ntoa_long+0x2a8>
    80006de0:	f7c7f0e3          	bgeu	a5,t3,80006d40 <_ntoa_long+0x17c>
    80006de4:	02000313          	li	t1,32
    80006de8:	f2679ae3          	bne	a5,t1,80006d1c <_ntoa_long+0x158>
    80006dec:	e937f0e3          	bgeu	a5,s3,80006c6c <_ntoa_long+0xa8>
    80006df0:	fc090ce3          	beqz	s2,80006dc8 <_ntoa_long+0x204>
    80006df4:	02000793          	li	a5,32
    80006df8:	f80804e3          	beqz	a6,80006d80 <_ntoa_long+0x1bc>
    80006dfc:	f95ff06f          	j	80006d90 <_ntoa_long+0x1cc>
    80006e00:	0040f813          	andi	a6,ra,4
    80006e04:	02081e63          	bnez	a6,80006e40 <_ntoa_long+0x27c>
    80006e08:	0080f813          	andi	a6,ra,8
    80006e0c:	ea0800e3          	beqz	a6,80006cac <_ntoa_long+0xe8>
    80006e10:	02010813          	addi	a6,sp,32
    80006e14:	00f80833          	add	a6,a6,a5
    80006e18:	02000893          	li	a7,32
    80006e1c:	ff180023          	sb	a7,-32(a6)
    80006e20:	00178793          	addi	a5,a5,1
    80006e24:	e89ff06f          	j	80006cac <_ntoa_long+0xe8>
    80006e28:	e5c7f2e3          	bgeu	a5,t3,80006c6c <_ntoa_long+0xa8>
    80006e2c:	02000313          	li	t1,32
    80006e30:	ee6796e3          	bne	a5,t1,80006d1c <_ntoa_long+0x158>
    80006e34:	e2091ee3          	bnez	s2,80006c70 <_ntoa_long+0xac>
    80006e38:	02000793          	li	a5,32
    80006e3c:	e71ff06f          	j	80006cac <_ntoa_long+0xe8>
    80006e40:	02010813          	addi	a6,sp,32
    80006e44:	00f80833          	add	a6,a6,a5
    80006e48:	02b00893          	li	a7,43
    80006e4c:	ff180023          	sb	a7,-32(a6)
    80006e50:	00178793          	addi	a5,a5,1
    80006e54:	e59ff06f          	j	80006cac <_ntoa_long+0xe8>
    80006e58:	02000813          	li	a6,32
    80006e5c:	e50788e3          	beq	a5,a6,80006cac <_ntoa_long+0xe8>
    80006e60:	00f70833          	add	a6,a4,a5
    80006e64:	00178793          	addi	a5,a5,1
    80006e68:	0280006f          	j	80006e90 <_ntoa_long+0x2cc>
    80006e6c:	fff9899b          	addiw	s3,s3,-1
    80006e70:	f71ff06f          	j	80006de0 <_ntoa_long+0x21c>
    80006e74:	fff78813          	addi	a6,a5,-1
    80006e78:	e00800e3          	beqz	a6,80006c78 <_ntoa_long+0xb4>
    80006e7c:	01000893          	li	a7,16
    80006e80:	091e8c63          	beq	t4,a7,80006f18 <_ntoa_long+0x354>
    80006e84:	00200893          	li	a7,2
    80006e88:	f31e92e3          	bne	t4,a7,80006dac <_ntoa_long+0x1e8>
    80006e8c:	01070833          	add	a6,a4,a6
    80006e90:	06200893          	li	a7,98
    80006e94:	01180023          	sb	a7,0(a6)
    80006e98:	f09ff06f          	j	80006da0 <_ntoa_long+0x1dc>
    80006e9c:	0200f813          	andi	a6,ra,32
    80006ea0:	02080e63          	beqz	a6,80006edc <_ntoa_long+0x318>
    80006ea4:	02000813          	li	a6,32
    80006ea8:	e10782e3          	beq	a5,a6,80006cac <_ntoa_long+0xe8>
    80006eac:	02010813          	addi	a6,sp,32
    80006eb0:	00f80833          	add	a6,a6,a5
    80006eb4:	05800893          	li	a7,88
    80006eb8:	00178793          	addi	a5,a5,1
    80006ebc:	ff180023          	sb	a7,-32(a6)
    80006ec0:	ee1ff06f          	j	80006da0 <_ntoa_long+0x1dc>
    80006ec4:	0200f793          	andi	a5,ra,32
    80006ec8:	02079863          	bnez	a5,80006ef8 <_ntoa_long+0x334>
    80006ecc:	07800793          	li	a5,120
    80006ed0:	00f10023          	sb	a5,0(sp)
    80006ed4:	00100813          	li	a6,1
    80006ed8:	ed5ff06f          	j	80006dac <_ntoa_long+0x1e8>
    80006edc:	02000813          	li	a6,32
    80006ee0:	dd0786e3          	beq	a5,a6,80006cac <_ntoa_long+0xe8>
    80006ee4:	00f708b3          	add	a7,a4,a5
    80006ee8:	00178793          	addi	a5,a5,1
    80006eec:	07800813          	li	a6,120
    80006ef0:	01088023          	sb	a6,0(a7)
    80006ef4:	eadff06f          	j	80006da0 <_ntoa_long+0x1dc>
    80006ef8:	05800793          	li	a5,88
    80006efc:	00f10023          	sb	a5,0(sp)
    80006f00:	00100813          	li	a6,1
    80006f04:	ea9ff06f          	j	80006dac <_ntoa_long+0x1e8>
    80006f08:	06200793          	li	a5,98
    80006f0c:	00f10023          	sb	a5,0(sp)
    80006f10:	00100813          	li	a6,1
    80006f14:	e99ff06f          	j	80006dac <_ntoa_long+0x1e8>
    80006f18:	0200f893          	andi	a7,ra,32
    80006f1c:	ffe78793          	addi	a5,a5,-2
    80006f20:	f80896e3          	bnez	a7,80006eac <_ntoa_long+0x2e8>
    80006f24:	00f708b3          	add	a7,a4,a5
    80006f28:	00080793          	mv	a5,a6
    80006f2c:	fc1ff06f          	j	80006eec <_ntoa_long+0x328>

Disassembly of section .text._out_char:

0000000080006f30 <_out_char>:
    80006f30:	00051463          	bnez	a0,80006f38 <_out_char+0x8>
    80006f34:	00008067          	ret
    80006f38:	a6dff06f          	j	800069a4 <_putc>

Disassembly of section .text._ftoa:

0000000080006f3c <_ftoa>:
    80006f3c:	a2a52353          	feq.d	t1,fa0,fa0
    80006f40:	00080893          	mv	a7,a6
    80006f44:	1e030c63          	beqz	t1,8000713c <_ftoa+0x200>
    80006f48:	00002817          	auipc	a6,0x2
    80006f4c:	a3083787          	fld	fa5,-1488(a6) # 80008978 <pow10.0+0x50>
    80006f50:	a2f51853          	flt.d	a6,fa0,fa5
    80006f54:	2e081463          	bnez	a6,8000723c <_ftoa+0x300>
    80006f58:	fc010113          	addi	sp,sp,-64
    80006f5c:	02813823          	sd	s0,48(sp)
    80006f60:	00068413          	mv	s0,a3
    80006f64:	00002697          	auipc	a3,0x2
    80006f68:	a1c6b787          	fld	fa5,-1508(a3) # 80008980 <pow10.0+0x58>
    80006f6c:	a2a796d3          	flt.d	a3,fa5,fa0
    80006f70:	02113c23          	sd	ra,56(sp)
    80006f74:	02913423          	sd	s1,40(sp)
    80006f78:	00050f93          	mv	t6,a0
    80006f7c:	00058293          	mv	t0,a1
    80006f80:	00060393          	mv	t2,a2
    80006f84:	16069c63          	bnez	a3,800070fc <_ftoa+0x1c0>
    80006f88:	00002697          	auipc	a3,0x2
    80006f8c:	a006b787          	fld	fa5,-1536(a3) # 80008988 <pow10.0+0x60>
    80006f90:	a2a796d3          	flt.d	a3,fa5,fa0
    80006f94:	28069063          	bnez	a3,80007214 <_ftoa+0x2d8>
    80006f98:	00002697          	auipc	a3,0x2
    80006f9c:	9f86b787          	fld	fa5,-1544(a3) # 80008990 <pow10.0+0x68>
    80006fa0:	a2f516d3          	flt.d	a3,fa0,fa5
    80006fa4:	26069863          	bnez	a3,80007214 <_ftoa+0x2d8>
    80006fa8:	f20007d3          	fmv.d.x	fa5,zero
    80006fac:	00000513          	li	a0,0
    80006fb0:	a2f516d3          	flt.d	a3,fa0,fa5
    80006fb4:	24069a63          	bnez	a3,80007208 <_ftoa+0x2cc>
    80006fb8:	4008f693          	andi	a3,a7,1024
    80006fbc:	00069463          	bnez	a3,80006fc4 <_ftoa+0x88>
    80006fc0:	00600713          	li	a4,6
    80006fc4:	00000313          	li	t1,0
    80006fc8:	00900693          	li	a3,9
    80006fcc:	03000593          	li	a1,48
    80006fd0:	02000613          	li	a2,32
    80006fd4:	00e6fc63          	bgeu	a3,a4,80006fec <_ftoa+0xb0>
    80006fd8:	00130313          	addi	t1,t1,1
    80006fdc:	00610e33          	add	t3,sp,t1
    80006fe0:	febe0fa3          	sb	a1,-1(t3)
    80006fe4:	fff7071b          	addiw	a4,a4,-1
    80006fe8:	fec316e3          	bne	t1,a2,80006fd4 <_ftoa+0x98>
    80006fec:	c2051653          	fcvt.w.d	a2,fa0,rtz
    80006ff0:	02071693          	slli	a3,a4,0x20
    80006ff4:	01d6d593          	srli	a1,a3,0x1d
    80006ff8:	d20607d3          	fcvt.d.w	fa5,a2
    80006ffc:	00002697          	auipc	a3,0x2
    80007000:	92c68693          	addi	a3,a3,-1748 # 80008928 <pow10.0>
    80007004:	00b686b3          	add	a3,a3,a1
    80007008:	0af577d3          	fsub.d	fa5,fa0,fa5
    8000700c:	0006b687          	fld	fa3,0(a3)
    80007010:	00002697          	auipc	a3,0x2
    80007014:	9886b707          	fld	fa4,-1656(a3) # 80008998 <pow10.0+0x70>
    80007018:	00060e1b          	sext.w	t3,a2
    8000701c:	12d7f7d3          	fmul.d	fa5,fa5,fa3
    80007020:	c2379f53          	fcvt.lu.d	t5,fa5,rtz
    80007024:	d23f7653          	fcvt.d.lu	fa2,t5
    80007028:	0ac7f7d3          	fsub.d	fa5,fa5,fa2
    8000702c:	a2f716d3          	flt.d	a3,fa4,fa5
    80007030:	12068063          	beqz	a3,80007150 <_ftoa+0x214>
    80007034:	001f0f13          	addi	t5,t5,1
    80007038:	d23f77d3          	fcvt.d.lu	fa5,t5
    8000703c:	a2f686d3          	fle.d	a3,fa3,fa5
    80007040:	00068663          	beqz	a3,8000704c <_ftoa+0x110>
    80007044:	00160e1b          	addiw	t3,a2,1
    80007048:	00000f13          	li	t5,0
    8000704c:	10071c63          	bnez	a4,80007164 <_ftoa+0x228>
    80007050:	d20e07d3          	fcvt.d.w	fa5,t3
    80007054:	0af57553          	fsub.d	fa0,fa0,fa5
    80007058:	a2e51753          	flt.d	a4,fa0,fa4
    8000705c:	00070663          	beqz	a4,80007068 <_ftoa+0x12c>
    80007060:	a2a71753          	flt.d	a4,fa4,fa0
    80007064:	00070863          	beqz	a4,80007074 <_ftoa+0x138>
    80007068:	001e7713          	andi	a4,t3,1
    8000706c:	00070463          	beqz	a4,80007074 <_ftoa+0x138>
    80007070:	001e0e1b          	addiw	t3,t3,1
    80007074:	02000613          	li	a2,32
    80007078:	00a00813          	li	a6,10
    8000707c:	12c30663          	beq	t1,a2,800071a8 <_ftoa+0x26c>
    80007080:	030e673b          	remw	a4,t3,a6
    80007084:	00130313          	addi	t1,t1,1
    80007088:	006106b3          	add	a3,sp,t1
    8000708c:	030e4e3b          	divw	t3,t3,a6
    80007090:	0307071b          	addiw	a4,a4,48
    80007094:	fee68fa3          	sb	a4,-1(a3)
    80007098:	fe0e12e3          	bnez	t3,8000707c <_ftoa+0x140>
    8000709c:	0038f713          	andi	a4,a7,3
    800070a0:	00100693          	li	a3,1
    800070a4:	10d70863          	beq	a4,a3,800071b4 <_ftoa+0x278>
    800070a8:	01f00713          	li	a4,31
    800070ac:	00676e63          	bltu	a4,t1,800070c8 <_ftoa+0x18c>
    800070b0:	1a050063          	beqz	a0,80007250 <_ftoa+0x314>
    800070b4:	02010713          	addi	a4,sp,32
    800070b8:	00670733          	add	a4,a4,t1
    800070bc:	02d00693          	li	a3,45
    800070c0:	fed70023          	sb	a3,-32(a4)
    800070c4:	00130313          	addi	t1,t1,1
    800070c8:	00078813          	mv	a6,a5
    800070cc:	00010713          	mv	a4,sp
    800070d0:	00040693          	mv	a3,s0
    800070d4:	00030793          	mv	a5,t1
    800070d8:	00038613          	mv	a2,t2
    800070dc:	00028593          	mv	a1,t0
    800070e0:	000f8513          	mv	a0,t6
    800070e4:	9a5ff0ef          	jal	ra,80006a88 <_out_rev>
    800070e8:	03813083          	ld	ra,56(sp)
    800070ec:	03013403          	ld	s0,48(sp)
    800070f0:	02813483          	ld	s1,40(sp)
    800070f4:	04010113          	addi	sp,sp,64
    800070f8:	00008067          	ret
    800070fc:	0048f713          	andi	a4,a7,4
    80007100:	0e071c63          	bnez	a4,800071f8 <_ftoa+0x2bc>
    80007104:	00001717          	auipc	a4,0x1
    80007108:	62470713          	addi	a4,a4,1572 # 80008728 <__am_mainargs+0x3>
    8000710c:	00300693          	li	a3,3
    80007110:	00078813          	mv	a6,a5
    80007114:	00068793          	mv	a5,a3
    80007118:	00040693          	mv	a3,s0
    8000711c:	03013403          	ld	s0,48(sp)
    80007120:	03813083          	ld	ra,56(sp)
    80007124:	02813483          	ld	s1,40(sp)
    80007128:	00038613          	mv	a2,t2
    8000712c:	00028593          	mv	a1,t0
    80007130:	000f8513          	mv	a0,t6
    80007134:	04010113          	addi	sp,sp,64
    80007138:	951ff06f          	j	80006a88 <_out_rev>
    8000713c:	00078813          	mv	a6,a5
    80007140:	00001717          	auipc	a4,0x1
    80007144:	5f870713          	addi	a4,a4,1528 # 80008738 <__am_mainargs+0x13>
    80007148:	00300793          	li	a5,3
    8000714c:	93dff06f          	j	80006a88 <_out_rev>
    80007150:	a2e796d3          	flt.d	a3,fa5,fa4
    80007154:	ee069ce3          	bnez	a3,8000704c <_ftoa+0x110>
    80007158:	160f1a63          	bnez	t5,800072cc <_ftoa+0x390>
    8000715c:	001f0f13          	addi	t5,t5,1
    80007160:	ee0708e3          	beqz	a4,80007050 <_ftoa+0x114>
    80007164:	fe07009b          	addiw	ra,a4,-32
    80007168:	006080bb          	addw	ra,ra,t1
    8000716c:	00a00613          	li	a2,10
    80007170:	00900493          	li	s1,9
    80007174:	0280006f          	j	8000719c <_ftoa+0x260>
    80007178:	02cf76b3          	remu	a3,t5,a2
    8000717c:	fff7081b          	addiw	a6,a4,-1
    80007180:	0306869b          	addiw	a3,a3,48
    80007184:	fed58fa3          	sb	a3,-1(a1)
    80007188:	02cf56b3          	divu	a3,t5,a2
    8000718c:	0fe4f663          	bgeu	s1,t5,80007278 <_ftoa+0x33c>
    80007190:	00080713          	mv	a4,a6
    80007194:	000e8313          	mv	t1,t4
    80007198:	00068f13          	mv	t5,a3
    8000719c:	00130e93          	addi	t4,t1,1
    800071a0:	01d105b3          	add	a1,sp,t4
    800071a4:	fc171ae3          	bne	a4,ra,80007178 <_ftoa+0x23c>
    800071a8:	0038f713          	andi	a4,a7,3
    800071ac:	00100693          	li	a3,1
    800071b0:	f0d71ce3          	bne	a4,a3,800070c8 <_ftoa+0x18c>
    800071b4:	ee078ae3          	beqz	a5,800070a8 <_ftoa+0x16c>
    800071b8:	12051e63          	bnez	a0,800072f4 <_ftoa+0x3b8>
    800071bc:	00c8f713          	andi	a4,a7,12
    800071c0:	12071a63          	bnez	a4,800072f4 <_ftoa+0x3b8>
    800071c4:	02079693          	slli	a3,a5,0x20
    800071c8:	0206d693          	srli	a3,a3,0x20
    800071cc:	ecd37ee3          	bgeu	t1,a3,800070a8 <_ftoa+0x16c>
    800071d0:	01f00713          	li	a4,31
    800071d4:	03000593          	li	a1,48
    800071d8:	02000613          	li	a2,32
    800071dc:	ee6766e3          	bltu	a4,t1,800070c8 <_ftoa+0x18c>
    800071e0:	00130313          	addi	t1,t1,1
    800071e4:	00610733          	add	a4,sp,t1
    800071e8:	feb70fa3          	sb	a1,-1(a4)
    800071ec:	ead30ee3          	beq	t1,a3,800070a8 <_ftoa+0x16c>
    800071f0:	fec318e3          	bne	t1,a2,800071e0 <_ftoa+0x2a4>
    800071f4:	ed5ff06f          	j	800070c8 <_ftoa+0x18c>
    800071f8:	00001717          	auipc	a4,0x1
    800071fc:	53870713          	addi	a4,a4,1336 # 80008730 <__am_mainargs+0xb>
    80007200:	00400693          	li	a3,4
    80007204:	f0dff06f          	j	80007110 <_ftoa+0x1d4>
    80007208:	0aa7f553          	fsub.d	fa0,fa5,fa0
    8000720c:	00100513          	li	a0,1
    80007210:	da9ff06f          	j	80006fb8 <_ftoa+0x7c>
    80007214:	00040693          	mv	a3,s0
    80007218:	03013403          	ld	s0,48(sp)
    8000721c:	03813083          	ld	ra,56(sp)
    80007220:	02813483          	ld	s1,40(sp)
    80007224:	00088813          	mv	a6,a7
    80007228:	00038613          	mv	a2,t2
    8000722c:	00028593          	mv	a1,t0
    80007230:	000f8513          	mv	a0,t6
    80007234:	04010113          	addi	sp,sp,64
    80007238:	0d40006f          	j	8000730c <_etoa>
    8000723c:	00078813          	mv	a6,a5
    80007240:	00001717          	auipc	a4,0x1
    80007244:	50070713          	addi	a4,a4,1280 # 80008740 <__am_mainargs+0x1b>
    80007248:	00400793          	li	a5,4
    8000724c:	83dff06f          	j	80006a88 <_out_rev>
    80007250:	0048f713          	andi	a4,a7,4
    80007254:	08071463          	bnez	a4,800072dc <_ftoa+0x3a0>
    80007258:	0088f713          	andi	a4,a7,8
    8000725c:	e60706e3          	beqz	a4,800070c8 <_ftoa+0x18c>
    80007260:	02010713          	addi	a4,sp,32
    80007264:	00670733          	add	a4,a4,t1
    80007268:	02000693          	li	a3,32
    8000726c:	fed70023          	sb	a3,-32(a4)
    80007270:	00130313          	addi	t1,t1,1
    80007274:	e55ff06f          	j	800070c8 <_ftoa+0x18c>
    80007278:	02000693          	li	a3,32
    8000727c:	08de8463          	beq	t4,a3,80007304 <_ftoa+0x3c8>
    80007280:	ffe7071b          	addiw	a4,a4,-2
    80007284:	06080c63          	beqz	a6,800072fc <_ftoa+0x3c0>
    80007288:	02071713          	slli	a4,a4,0x20
    8000728c:	00230313          	addi	t1,t1,2
    80007290:	02075713          	srli	a4,a4,0x20
    80007294:	00e30733          	add	a4,t1,a4
    80007298:	03000593          	li	a1,48
    8000729c:	02000613          	li	a2,32
    800072a0:	001e8e93          	addi	t4,t4,1
    800072a4:	01d106b3          	add	a3,sp,t4
    800072a8:	feb68fa3          	sb	a1,-1(a3)
    800072ac:	04ce8c63          	beq	t4,a2,80007304 <_ftoa+0x3c8>
    800072b0:	feee98e3          	bne	t4,a4,800072a0 <_ftoa+0x364>
    800072b4:	02010693          	addi	a3,sp,32
    800072b8:	00e686b3          	add	a3,a3,a4
    800072bc:	00170313          	addi	t1,a4,1
    800072c0:	02e00713          	li	a4,46
    800072c4:	fee68023          	sb	a4,-32(a3)
    800072c8:	dadff06f          	j	80007074 <_ftoa+0x138>
    800072cc:	001f7693          	andi	a3,t5,1
    800072d0:	d6068ee3          	beqz	a3,8000704c <_ftoa+0x110>
    800072d4:	001f0f13          	addi	t5,t5,1
    800072d8:	e89ff06f          	j	80007160 <_ftoa+0x224>
    800072dc:	02010713          	addi	a4,sp,32
    800072e0:	00670733          	add	a4,a4,t1
    800072e4:	02b00693          	li	a3,43
    800072e8:	fed70023          	sb	a3,-32(a4)
    800072ec:	00130313          	addi	t1,t1,1
    800072f0:	dd9ff06f          	j	800070c8 <_ftoa+0x18c>
    800072f4:	fff7879b          	addiw	a5,a5,-1
    800072f8:	ecdff06f          	j	800071c4 <_ftoa+0x288>
    800072fc:	000e8713          	mv	a4,t4
    80007300:	fb5ff06f          	j	800072b4 <_ftoa+0x378>
    80007304:	02000313          	li	t1,32
    80007308:	ea1ff06f          	j	800071a8 <_ftoa+0x26c>

Disassembly of section .text._etoa:

000000008000730c <_etoa>:
    8000730c:	a2a528d3          	feq.d	a7,fa0,fa0
    80007310:	f9010113          	addi	sp,sp,-112
    80007314:	06813023          	sd	s0,96(sp)
    80007318:	04913c23          	sd	s1,88(sp)
    8000731c:	05213823          	sd	s2,80(sp)
    80007320:	05413023          	sd	s4,64(sp)
    80007324:	03613823          	sd	s6,48(sp)
    80007328:	03713423          	sd	s7,40(sp)
    8000732c:	06113423          	sd	ra,104(sp)
    80007330:	05313423          	sd	s3,72(sp)
    80007334:	03513c23          	sd	s5,56(sp)
    80007338:	03813023          	sd	s8,32(sp)
    8000733c:	01913c23          	sd	s9,24(sp)
    80007340:	00050b13          	mv	s6,a0
    80007344:	00058493          	mv	s1,a1
    80007348:	00060b93          	mv	s7,a2
    8000734c:	00068913          	mv	s2,a3
    80007350:	00078a13          	mv	s4,a5
    80007354:	00080413          	mv	s0,a6
    80007358:	2e088463          	beqz	a7,80007640 <_etoa+0x334>
    8000735c:	00001797          	auipc	a5,0x1
    80007360:	6247b787          	fld	fa5,1572(a5) # 80008980 <pow10.0+0x58>
    80007364:	a2a797d3          	flt.d	a5,fa5,fa0
    80007368:	2c079c63          	bnez	a5,80007640 <_etoa+0x334>
    8000736c:	00001797          	auipc	a5,0x1
    80007370:	60c7b787          	fld	fa5,1548(a5) # 80008978 <pow10.0+0x50>
    80007374:	a2f517d3          	flt.d	a5,fa0,fa5
    80007378:	2c079463          	bnez	a5,80007640 <_etoa+0x334>
    8000737c:	f20007d3          	fmv.d.x	fa5,zero
    80007380:	e20506d3          	fmv.x.d	a3,fa0
    80007384:	a2f517d3          	flt.d	a5,fa0,fa5
    80007388:	00078663          	beqz	a5,80007394 <_etoa+0x88>
    8000738c:	22a517d3          	fneg.d	fa5,fa0
    80007390:	e20786d3          	fmv.x.d	a3,fa5
    80007394:	40047613          	andi	a2,s0,1024
    80007398:	00061463          	bnez	a2,800073a0 <_etoa+0x94>
    8000739c:	00600713          	li	a4,6
    800073a0:	0346d793          	srli	a5,a3,0x34
    800073a4:	7ff7f793          	andi	a5,a5,2047
    800073a8:	00001597          	auipc	a1,0x1
    800073ac:	5f85b707          	fld	fa4,1528(a1) # 800089a0 <pow10.0+0x78>
    800073b0:	00001597          	auipc	a1,0x1
    800073b4:	5f85b787          	fld	fa5,1528(a1) # 800089a8 <pow10.0+0x80>
    800073b8:	c017879b          	addiw	a5,a5,-1023
    800073bc:	d2078653          	fcvt.d.w	fa2,a5
    800073c0:	3ff00593          	li	a1,1023
    800073c4:	00c69793          	slli	a5,a3,0xc
    800073c8:	03459593          	slli	a1,a1,0x34
    800073cc:	00c7d793          	srli	a5,a5,0xc
    800073d0:	00b7e7b3          	or	a5,a5,a1
    800073d4:	7ae67643          	fmadd.d	fa2,fa2,fa4,fa5
    800073d8:	f20787d3          	fmv.d.x	fa5,a5
    800073dc:	00001597          	auipc	a1,0x1
    800073e0:	5d45b687          	fld	fa3,1492(a1) # 800089b0 <pow10.0+0x88>
    800073e4:	00001797          	auipc	a5,0x1
    800073e8:	5dc7b587          	fld	fa1,1500(a5) # 800089c0 <pow10.0+0x98>
    800073ec:	0ad7f6d3          	fsub.d	fa3,fa5,fa3
    800073f0:	00001797          	auipc	a5,0x1
    800073f4:	5c87b787          	fld	fa5,1480(a5) # 800089b8 <pow10.0+0x90>
    800073f8:	00001797          	auipc	a5,0x1
    800073fc:	5a07b287          	fld	ft5,1440(a5) # 80008998 <pow10.0+0x70>
    80007400:	00001797          	auipc	a5,0x1
    80007404:	5c87b207          	fld	ft4,1480(a5) # 800089c8 <pow10.0+0xa0>
    80007408:	00001797          	auipc	a5,0x1
    8000740c:	5c87b187          	fld	ft3,1480(a5) # 800089d0 <pow10.0+0xa8>
    80007410:	00001797          	auipc	a5,0x1
    80007414:	5c87b707          	fld	fa4,1480(a5) # 800089d8 <pow10.0+0xb0>
    80007418:	00001797          	auipc	a5,0x1
    8000741c:	5c87b007          	fld	ft0,1480(a5) # 800089e0 <pow10.0+0xb8>
    80007420:	62f6f6c3          	fmadd.d	fa3,fa3,fa5,fa2
    80007424:	00001797          	auipc	a5,0x1
    80007428:	5c47b107          	fld	ft2,1476(a5) # 800089e8 <pow10.0+0xc0>
    8000742c:	00001797          	auipc	a5,0x1
    80007430:	5c47b607          	fld	fa2,1476(a5) # 800089f0 <pow10.0+0xc8>
    80007434:	00001797          	auipc	a5,0x1
    80007438:	5c47b087          	fld	ft1,1476(a5) # 800089f8 <pow10.0+0xd0>
    8000743c:	c20695d3          	fcvt.w.d	a1,fa3,rtz
    80007440:	d20587d3          	fcvt.d.w	fa5,a1
    80007444:	00058c1b          	sext.w	s8,a1
    80007448:	2ab7f5c3          	fmadd.d	fa1,fa5,fa1,ft5
    8000744c:	c20597d3          	fcvt.w.d	a5,fa1,rtz
    80007450:	d20786d3          	fcvt.d.w	fa3,a5
    80007454:	3ff7879b          	addiw	a5,a5,1023
    80007458:	03479793          	slli	a5,a5,0x34
    8000745c:	1246f6d3          	fmul.d	fa3,fa3,ft4
    80007460:	6a37f7c7          	fmsub.d	fa5,fa5,ft3,fa3
    80007464:	12f7f6d3          	fmul.d	fa3,fa5,fa5
    80007468:	0af67653          	fsub.d	fa2,fa2,fa5
    8000746c:	02f7f7d3          	fadd.d	fa5,fa5,fa5
    80007470:	1ae6f753          	fdiv.d	fa4,fa3,fa4
    80007474:	02077753          	fadd.d	fa4,fa4,ft0
    80007478:	1ae6f753          	fdiv.d	fa4,fa3,fa4
    8000747c:	02277753          	fadd.d	fa4,fa4,ft2
    80007480:	1ae6f6d3          	fdiv.d	fa3,fa3,fa4
    80007484:	f2078753          	fmv.d.x	fa4,a5
    80007488:	02c6f6d3          	fadd.d	fa3,fa3,fa2
    8000748c:	1ad7f7d3          	fdiv.d	fa5,fa5,fa3
    80007490:	0217f7d3          	fadd.d	fa5,fa5,ft1
    80007494:	12e7f7d3          	fmul.d	fa5,fa5,fa4
    80007498:	f2068753          	fmv.d.x	fa4,a3
    8000749c:	a2f717d3          	flt.d	a5,fa4,fa5
    800074a0:	00078663          	beqz	a5,800074ac <_etoa+0x1a0>
    800074a4:	1a07f7d3          	fdiv.d	fa5,fa5,ft0
    800074a8:	fff58c1b          	addiw	s8,a1,-1
    800074ac:	063c0c9b          	addiw	s9,s8,99
    800074b0:	00b45793          	srli	a5,s0,0xb
    800074b4:	0c600593          	li	a1,198
    800074b8:	0195bcb3          	sltu	s9,a1,s9
    800074bc:	0017f793          	andi	a5,a5,1
    800074c0:	004c8c93          	addi	s9,s9,4
    800074c4:	04078463          	beqz	a5,8000750c <_etoa+0x200>
    800074c8:	f20686d3          	fmv.d.x	fa3,a3
    800074cc:	00001797          	auipc	a5,0x1
    800074d0:	5347b707          	fld	fa4,1332(a5) # 80008a00 <pow10.0+0xd8>
    800074d4:	a2d707d3          	fle.d	a5,fa4,fa3
    800074d8:	1c078263          	beqz	a5,8000769c <_etoa+0x390>
    800074dc:	00001797          	auipc	a5,0x1
    800074e0:	52c7b707          	fld	fa4,1324(a5) # 80008a08 <pow10.0+0xe0>
    800074e4:	a2e697d3          	flt.d	a5,fa3,fa4
    800074e8:	1a078a63          	beqz	a5,8000769c <_etoa+0x390>
    800074ec:	0007079b          	sext.w	a5,a4
    800074f0:	00000713          	li	a4,0
    800074f4:	00fc5663          	bge	s8,a5,80007500 <_etoa+0x1f4>
    800074f8:	4187873b          	subw	a4,a5,s8
    800074fc:	fff7071b          	addiw	a4,a4,-1
    80007500:	40046413          	ori	s0,s0,1024
    80007504:	00000c93          	li	s9,0
    80007508:	00000c13          	li	s8,0
    8000750c:	00000793          	li	a5,0
    80007510:	014cf463          	bgeu	s9,s4,80007518 <_etoa+0x20c>
    80007514:	419a07bb          	subw	a5,s4,s9
    80007518:	00247a93          	andi	s5,s0,2
    8000751c:	000a8863          	beqz	s5,8000752c <_etoa+0x220>
    80007520:	001cb613          	seqz	a2,s9
    80007524:	40c00633          	neg	a2,a2
    80007528:	00c7f7b3          	and	a5,a5,a2
    8000752c:	160c1063          	bnez	s8,8000768c <_etoa+0x380>
    80007530:	f20007d3          	fmv.d.x	fa5,zero
    80007534:	a2f51653          	flt.d	a2,fa0,fa5
    80007538:	00060863          	beqz	a2,80007548 <_etoa+0x23c>
    8000753c:	f20687d3          	fmv.d.x	fa5,a3
    80007540:	22f797d3          	fneg.d	fa5,fa5
    80007544:	e20786d3          	fmv.x.d	a3,fa5
    80007548:	f2068553          	fmv.d.x	fa0,a3
    8000754c:	fffff837          	lui	a6,0xfffff
    80007550:	7ff80813          	addi	a6,a6,2047 # fffffffffffff7ff <_pmem_end+0xffffffff77fff7ff>
    80007554:	01047833          	and	a6,s0,a6
    80007558:	00090693          	mv	a3,s2
    8000755c:	000b8613          	mv	a2,s7
    80007560:	00048593          	mv	a1,s1
    80007564:	000b0513          	mv	a0,s6
    80007568:	9d5ff0ef          	jal	ra,80006f3c <_ftoa>
    8000756c:	00050993          	mv	s3,a0
    80007570:	080c8c63          	beqz	s9,80007608 <_etoa+0x2fc>
    80007574:	02047413          	andi	s0,s0,32
    80007578:	04500513          	li	a0,69
    8000757c:	00041463          	bnez	s0,80007584 <_etoa+0x278>
    80007580:	06500513          	li	a0,101
    80007584:	00098613          	mv	a2,s3
    80007588:	00090693          	mv	a3,s2
    8000758c:	00048593          	mv	a1,s1
    80007590:	000b00e7          	jalr	s6
    80007594:	41fc571b          	sraiw	a4,s8,0x1f
    80007598:	00ec46b3          	xor	a3,s8,a4
    8000759c:	00500793          	li	a5,5
    800075a0:	fffc8c9b          	addiw	s9,s9,-1
    800075a4:	00198613          	addi	a2,s3,1
    800075a8:	00f13423          	sd	a5,8(sp)
    800075ac:	40e6873b          	subw	a4,a3,a4
    800075b0:	01913023          	sd	s9,0(sp)
    800075b4:	00000893          	li	a7,0
    800075b8:	00a00813          	li	a6,10
    800075bc:	01fc579b          	srliw	a5,s8,0x1f
    800075c0:	00090693          	mv	a3,s2
    800075c4:	00048593          	mv	a1,s1
    800075c8:	000b0513          	mv	a0,s6
    800075cc:	df8ff0ef          	jal	ra,80006bc4 <_ntoa_long>
    800075d0:	00050993          	mv	s3,a0
    800075d4:	020a8a63          	beqz	s5,80007608 <_etoa+0x2fc>
    800075d8:	020a1a13          	slli	s4,s4,0x20
    800075dc:	41750bb3          	sub	s7,a0,s7
    800075e0:	020a5a13          	srli	s4,s4,0x20
    800075e4:	034bf263          	bgeu	s7,s4,80007608 <_etoa+0x2fc>
    800075e8:	00098613          	mv	a2,s3
    800075ec:	001b8b93          	addi	s7,s7,1
    800075f0:	00090693          	mv	a3,s2
    800075f4:	00048593          	mv	a1,s1
    800075f8:	02000513          	li	a0,32
    800075fc:	00198993          	addi	s3,s3,1
    80007600:	000b00e7          	jalr	s6
    80007604:	ff4be2e3          	bltu	s7,s4,800075e8 <_etoa+0x2dc>
    80007608:	06813083          	ld	ra,104(sp)
    8000760c:	06013403          	ld	s0,96(sp)
    80007610:	05813483          	ld	s1,88(sp)
    80007614:	05013903          	ld	s2,80(sp)
    80007618:	04013a03          	ld	s4,64(sp)
    8000761c:	03813a83          	ld	s5,56(sp)
    80007620:	03013b03          	ld	s6,48(sp)
    80007624:	02813b83          	ld	s7,40(sp)
    80007628:	02013c03          	ld	s8,32(sp)
    8000762c:	01813c83          	ld	s9,24(sp)
    80007630:	00098513          	mv	a0,s3
    80007634:	04813983          	ld	s3,72(sp)
    80007638:	07010113          	addi	sp,sp,112
    8000763c:	00008067          	ret
    80007640:	00040813          	mv	a6,s0
    80007644:	06013403          	ld	s0,96(sp)
    80007648:	06813083          	ld	ra,104(sp)
    8000764c:	04813983          	ld	s3,72(sp)
    80007650:	03813a83          	ld	s5,56(sp)
    80007654:	02013c03          	ld	s8,32(sp)
    80007658:	01813c83          	ld	s9,24(sp)
    8000765c:	000a0793          	mv	a5,s4
    80007660:	00090693          	mv	a3,s2
    80007664:	04013a03          	ld	s4,64(sp)
    80007668:	05013903          	ld	s2,80(sp)
    8000766c:	000b8613          	mv	a2,s7
    80007670:	00048593          	mv	a1,s1
    80007674:	02813b83          	ld	s7,40(sp)
    80007678:	05813483          	ld	s1,88(sp)
    8000767c:	000b0513          	mv	a0,s6
    80007680:	03013b03          	ld	s6,48(sp)
    80007684:	07010113          	addi	sp,sp,112
    80007688:	8b5ff06f          	j	80006f3c <_ftoa>
    8000768c:	f2068753          	fmv.d.x	fa4,a3
    80007690:	1af777d3          	fdiv.d	fa5,fa4,fa5
    80007694:	e20786d3          	fmv.x.d	a3,fa5
    80007698:	e99ff06f          	j	80007530 <_etoa+0x224>
    8000769c:	e60708e3          	beqz	a4,8000750c <_etoa+0x200>
    800076a0:	e60606e3          	beqz	a2,8000750c <_etoa+0x200>
    800076a4:	fff7071b          	addiw	a4,a4,-1
    800076a8:	e65ff06f          	j	8000750c <_etoa+0x200>

Disassembly of section .text._vsnprintf:

00000000800076ac <_vsnprintf>:
    800076ac:	f6010113          	addi	sp,sp,-160
    800076b0:	08913423          	sd	s1,136(sp)
    800076b4:	09213023          	sd	s2,128(sp)
    800076b8:	07313c23          	sd	s3,120(sp)
    800076bc:	07413823          	sd	s4,112(sp)
    800076c0:	07613023          	sd	s6,96(sp)
    800076c4:	08113c23          	sd	ra,152(sp)
    800076c8:	08813823          	sd	s0,144(sp)
    800076cc:	07513423          	sd	s5,104(sp)
    800076d0:	05713c23          	sd	s7,88(sp)
    800076d4:	05813823          	sd	s8,80(sp)
    800076d8:	05913423          	sd	s9,72(sp)
    800076dc:	05a13023          	sd	s10,64(sp)
    800076e0:	03b13c23          	sd	s11,56(sp)
    800076e4:	00058913          	mv	s2,a1
    800076e8:	00060493          	mv	s1,a2
    800076ec:	00068b13          	mv	s6,a3
    800076f0:	00070a13          	mv	s4,a4
    800076f4:	fffff997          	auipc	s3,0xfffff
    800076f8:	39098993          	addi	s3,s3,912 # 80006a84 <_out_null>
    800076fc:	00058463          	beqz	a1,80007704 <_vsnprintf+0x58>
    80007700:	00050993          	mv	s3,a0
    80007704:	000b4503          	lbu	a0,0(s6)
    80007708:	00000c13          	li	s8,0
    8000770c:	68050063          	beqz	a0,80007d8c <_vsnprintf+0x6e0>
    80007710:	000017b7          	lui	a5,0x1
    80007714:	80078793          	addi	a5,a5,-2048 # 800 <_start-0x7ffff800>
    80007718:	00f13c23          	sd	a5,24(sp)
    8000771c:	000107b7          	lui	a5,0x10
    80007720:	fff78793          	addi	a5,a5,-1 # ffff <_start-0x7fff0001>
    80007724:	00001b97          	auipc	s7,0x1
    80007728:	024b8b93          	addi	s7,s7,36 # 80008748 <__am_mainargs+0x23>
    8000772c:	02f13023          	sd	a5,32(sp)
    80007730:	0200006f          	j	80007750 <_vsnprintf+0xa4>
    80007734:	000c0613          	mv	a2,s8
    80007738:	00048693          	mv	a3,s1
    8000773c:	00090593          	mv	a1,s2
    80007740:	001c0c13          	addi	s8,s8,1
    80007744:	000980e7          	jalr	s3
    80007748:	000b4503          	lbu	a0,0(s6)
    8000774c:	1a050663          	beqz	a0,800078f8 <_vsnprintf+0x24c>
    80007750:	02500793          	li	a5,37
    80007754:	001b0b13          	addi	s6,s6,1
    80007758:	fcf51ee3          	bne	a0,a5,80007734 <_vsnprintf+0x88>
    8000775c:	00000813          	li	a6,0
    80007760:	01000613          	li	a2,16
    80007764:	000b4503          	lbu	a0,0(s6)
    80007768:	001b0713          	addi	a4,s6,1
    8000776c:	00070693          	mv	a3,a4
    80007770:	fe05079b          	addiw	a5,a0,-32
    80007774:	0ff7f793          	zext.b	a5,a5
    80007778:	00f66c63          	bltu	a2,a5,80007790 <_vsnprintf+0xe4>
    8000777c:	00279793          	slli	a5,a5,0x2
    80007780:	017787b3          	add	a5,a5,s7
    80007784:	0007a783          	lw	a5,0(a5)
    80007788:	017787b3          	add	a5,a5,s7
    8000778c:	00078067          	jr	a5
    80007790:	fd05079b          	addiw	a5,a0,-48
    80007794:	0ff7f793          	zext.b	a5,a5
    80007798:	00900613          	li	a2,9
    8000779c:	0cf67e63          	bgeu	a2,a5,80007878 <_vsnprintf+0x1cc>
    800077a0:	02a00793          	li	a5,42
    800077a4:	1af50a63          	beq	a0,a5,80007958 <_vsnprintf+0x2ac>
    800077a8:	000b0693          	mv	a3,s6
    800077ac:	00000a93          	li	s5,0
    800077b0:	00070b13          	mv	s6,a4
    800077b4:	02e00713          	li	a4,46
    800077b8:	00000893          	li	a7,0
    800077bc:	10e50663          	beq	a0,a4,800078c8 <_vsnprintf+0x21c>
    800077c0:	f985071b          	addiw	a4,a0,-104
    800077c4:	0ff77713          	zext.b	a4,a4
    800077c8:	01200613          	li	a2,18
    800077cc:	08e66063          	bltu	a2,a4,8000784c <_vsnprintf+0x1a0>
    800077d0:	00001797          	auipc	a5,0x1
    800077d4:	fbc78793          	addi	a5,a5,-68 # 8000878c <__am_mainargs+0x67>
    800077d8:	00271713          	slli	a4,a4,0x2
    800077dc:	00f70733          	add	a4,a4,a5
    800077e0:	00072703          	lw	a4,0(a4)
    800077e4:	00f70733          	add	a4,a4,a5
    800077e8:	00070067          	jr	a4
    800077ec:	00186813          	ori	a6,a6,1
    800077f0:	0008081b          	sext.w	a6,a6
    800077f4:	00070b13          	mv	s6,a4
    800077f8:	f6dff06f          	j	80007764 <_vsnprintf+0xb8>
    800077fc:	00286813          	ori	a6,a6,2
    80007800:	0008081b          	sext.w	a6,a6
    80007804:	00070b13          	mv	s6,a4
    80007808:	f5dff06f          	j	80007764 <_vsnprintf+0xb8>
    8000780c:	00486813          	ori	a6,a6,4
    80007810:	0008081b          	sext.w	a6,a6
    80007814:	00070b13          	mv	s6,a4
    80007818:	f4dff06f          	j	80007764 <_vsnprintf+0xb8>
    8000781c:	01086813          	ori	a6,a6,16
    80007820:	0008081b          	sext.w	a6,a6
    80007824:	00070b13          	mv	s6,a4
    80007828:	f3dff06f          	j	80007764 <_vsnprintf+0xb8>
    8000782c:	00886813          	ori	a6,a6,8
    80007830:	0008081b          	sext.w	a6,a6
    80007834:	00070b13          	mv	s6,a4
    80007838:	f2dff06f          	j	80007764 <_vsnprintf+0xb8>
    8000783c:	0016c503          	lbu	a0,1(a3)
    80007840:	10086813          	ori	a6,a6,256
    80007844:	0008081b          	sext.w	a6,a6
    80007848:	001b0b13          	addi	s6,s6,1
    8000784c:	fdb5071b          	addiw	a4,a0,-37
    80007850:	0ff77713          	zext.b	a4,a4
    80007854:	05300693          	li	a3,83
    80007858:	ece6eee3          	bltu	a3,a4,80007734 <_vsnprintf+0x88>
    8000785c:	00001797          	auipc	a5,0x1
    80007860:	f7c78793          	addi	a5,a5,-132 # 800087d8 <__am_mainargs+0xb3>
    80007864:	00271713          	slli	a4,a4,0x2
    80007868:	00f70733          	add	a4,a4,a5
    8000786c:	00072703          	lw	a4,0(a4)
    80007870:	00f70733          	add	a4,a4,a5
    80007874:	00070067          	jr	a4
    80007878:	00000a93          	li	s5,0
    8000787c:	00900613          	li	a2,9
    80007880:	0080006f          	j	80007888 <_vsnprintf+0x1dc>
    80007884:	00170713          	addi	a4,a4,1
    80007888:	002a969b          	slliw	a3,s5,0x2
    8000788c:	015687bb          	addw	a5,a3,s5
    80007890:	0017979b          	slliw	a5,a5,0x1
    80007894:	00a787bb          	addw	a5,a5,a0
    80007898:	00074503          	lbu	a0,0(a4)
    8000789c:	000b0593          	mv	a1,s6
    800078a0:	fd078a9b          	addiw	s5,a5,-48
    800078a4:	fd05069b          	addiw	a3,a0,-48
    800078a8:	0ff6f693          	zext.b	a3,a3
    800078ac:	00070b13          	mv	s6,a4
    800078b0:	fcd67ae3          	bgeu	a2,a3,80007884 <_vsnprintf+0x1d8>
    800078b4:	00070693          	mv	a3,a4
    800078b8:	02e00713          	li	a4,46
    800078bc:	00258b13          	addi	s6,a1,2
    800078c0:	00000893          	li	a7,0
    800078c4:	eee51ee3          	bne	a0,a4,800077c0 <_vsnprintf+0x114>
    800078c8:	0016c503          	lbu	a0,1(a3)
    800078cc:	40086813          	ori	a6,a6,1024
    800078d0:	00900613          	li	a2,9
    800078d4:	fd05071b          	addiw	a4,a0,-48
    800078d8:	0ff77713          	zext.b	a4,a4
    800078dc:	0008081b          	sext.w	a6,a6
    800078e0:	34e67263          	bgeu	a2,a4,80007c24 <_vsnprintf+0x578>
    800078e4:	02a00713          	li	a4,42
    800078e8:	36e50c63          	beq	a0,a4,80007c60 <_vsnprintf+0x5b4>
    800078ec:	000b0693          	mv	a3,s6
    800078f0:	001b0b13          	addi	s6,s6,1
    800078f4:	ecdff06f          	j	800077c0 <_vsnprintf+0x114>
    800078f8:	000c041b          	sext.w	s0,s8
    800078fc:	009c6463          	bltu	s8,s1,80007904 <_vsnprintf+0x258>
    80007900:	fff48c13          	addi	s8,s1,-1
    80007904:	00048693          	mv	a3,s1
    80007908:	000c0613          	mv	a2,s8
    8000790c:	00090593          	mv	a1,s2
    80007910:	00000513          	li	a0,0
    80007914:	000980e7          	jalr	s3
    80007918:	09813083          	ld	ra,152(sp)
    8000791c:	00040513          	mv	a0,s0
    80007920:	09013403          	ld	s0,144(sp)
    80007924:	08813483          	ld	s1,136(sp)
    80007928:	08013903          	ld	s2,128(sp)
    8000792c:	07813983          	ld	s3,120(sp)
    80007930:	07013a03          	ld	s4,112(sp)
    80007934:	06813a83          	ld	s5,104(sp)
    80007938:	06013b03          	ld	s6,96(sp)
    8000793c:	05813b83          	ld	s7,88(sp)
    80007940:	05013c03          	ld	s8,80(sp)
    80007944:	04813c83          	ld	s9,72(sp)
    80007948:	04013d03          	ld	s10,64(sp)
    8000794c:	03813d83          	ld	s11,56(sp)
    80007950:	0a010113          	addi	sp,sp,160
    80007954:	00008067          	ret
    80007958:	000a2603          	lw	a2,0(s4)
    8000795c:	008a0a13          	addi	s4,s4,8
    80007960:	00060a9b          	sext.w	s5,a2
    80007964:	00064863          	bltz	a2,80007974 <_vsnprintf+0x2c8>
    80007968:	001b4503          	lbu	a0,1(s6)
    8000796c:	002b0b13          	addi	s6,s6,2
    80007970:	e45ff06f          	j	800077b4 <_vsnprintf+0x108>
    80007974:	00286813          	ori	a6,a6,2
    80007978:	001b4503          	lbu	a0,1(s6)
    8000797c:	0008081b          	sext.w	a6,a6
    80007980:	40c00abb          	negw	s5,a2
    80007984:	002b0b13          	addi	s6,s6,2
    80007988:	e2dff06f          	j	800077b4 <_vsnprintf+0x108>
    8000798c:	07800713          	li	a4,120
    80007990:	008a0c93          	addi	s9,s4,8
    80007994:	58e50663          	beq	a0,a4,80007f20 <_vsnprintf+0x874>
    80007998:	05800713          	li	a4,88
    8000799c:	3ee50e63          	beq	a0,a4,80007d98 <_vsnprintf+0x6ec>
    800079a0:	06f00713          	li	a4,111
    800079a4:	5ee50063          	beq	a0,a4,80007f84 <_vsnprintf+0x8d8>
    800079a8:	06200713          	li	a4,98
    800079ac:	62e50263          	beq	a0,a4,80007fd0 <_vsnprintf+0x924>
    800079b0:	fef87693          	andi	a3,a6,-17
    800079b4:	06900613          	li	a2,105
    800079b8:	00080713          	mv	a4,a6
    800079bc:	0006869b          	sext.w	a3,a3
    800079c0:	40087813          	andi	a6,a6,1024
    800079c4:	66c51063          	bne	a0,a2,80008024 <_vsnprintf+0x978>
    800079c8:	56081863          	bnez	a6,80007f38 <_vsnprintf+0x88c>
    800079cc:	20077413          	andi	s0,a4,512
    800079d0:	00a00593          	li	a1,10
    800079d4:	50041663          	bnez	s0,80007ee0 <_vsnprintf+0x834>
    800079d8:	1006f713          	andi	a4,a3,256
    800079dc:	00068613          	mv	a2,a3
    800079e0:	5c071463          	bnez	a4,80007fa8 <_vsnprintf+0x8fc>
    800079e4:	0406f713          	andi	a4,a3,64
    800079e8:	000a2503          	lw	a0,0(s4)
    800079ec:	54071e63          	bnez	a4,80007f48 <_vsnprintf+0x89c>
    800079f0:	08067613          	andi	a2,a2,128
    800079f4:	60060063          	beqz	a2,80007ff4 <_vsnprintf+0x948>
    800079f8:	0105151b          	slliw	a0,a0,0x10
    800079fc:	4105551b          	sraiw	a0,a0,0x10
    80007a00:	40f5561b          	sraiw	a2,a0,0xf
    80007a04:	00c54733          	xor	a4,a0,a2
    80007a08:	40c7073b          	subw	a4,a4,a2
    80007a0c:	03071713          	slli	a4,a4,0x30
    80007a10:	03075713          	srli	a4,a4,0x30
    80007a14:	000c0613          	mv	a2,s8
    80007a18:	00d13423          	sd	a3,8(sp)
    80007a1c:	01513023          	sd	s5,0(sp)
    80007a20:	00058813          	mv	a6,a1
    80007a24:	01f5579b          	srliw	a5,a0,0x1f
    80007a28:	00048693          	mv	a3,s1
    80007a2c:	00090593          	mv	a1,s2
    80007a30:	00098513          	mv	a0,s3
    80007a34:	990ff0ef          	jal	ra,80006bc4 <_ntoa_long>
    80007a38:	00050c13          	mv	s8,a0
    80007a3c:	000c8a13          	mv	s4,s9
    80007a40:	d09ff06f          	j	80007748 <_vsnprintf+0x9c>
    80007a44:	0016c503          	lbu	a0,1(a3)
    80007a48:	06c00713          	li	a4,108
    80007a4c:	dee51ae3          	bne	a0,a4,80007840 <_vsnprintf+0x194>
    80007a50:	30086813          	ori	a6,a6,768
    80007a54:	0026c503          	lbu	a0,2(a3)
    80007a58:	0008081b          	sext.w	a6,a6
    80007a5c:	00368b13          	addi	s6,a3,3
    80007a60:	dedff06f          	j	8000784c <_vsnprintf+0x1a0>
    80007a64:	0016c503          	lbu	a0,1(a3)
    80007a68:	06800713          	li	a4,104
    80007a6c:	30e50663          	beq	a0,a4,80007d78 <_vsnprintf+0x6cc>
    80007a70:	08086813          	ori	a6,a6,128
    80007a74:	0008081b          	sext.w	a6,a6
    80007a78:	001b0b13          	addi	s6,s6,1
    80007a7c:	dd1ff06f          	j	8000784c <_vsnprintf+0x1a0>
    80007a80:	04600713          	li	a4,70
    80007a84:	24e50863          	beq	a0,a4,80007cd4 <_vsnprintf+0x628>
    80007a88:	000a3507          	fld	fa0,0(s4)
    80007a8c:	000c0613          	mv	a2,s8
    80007a90:	000a8793          	mv	a5,s5
    80007a94:	00088713          	mv	a4,a7
    80007a98:	00048693          	mv	a3,s1
    80007a9c:	00090593          	mv	a1,s2
    80007aa0:	00098513          	mv	a0,s3
    80007aa4:	c98ff0ef          	jal	ra,80006f3c <_ftoa>
    80007aa8:	008a0a13          	addi	s4,s4,8
    80007aac:	00050c13          	mv	s8,a0
    80007ab0:	c99ff06f          	j	80007748 <_vsnprintf+0x9c>
    80007ab4:	001c0d93          	addi	s11,s8,1
    80007ab8:	00287813          	andi	a6,a6,2
    80007abc:	008a0c93          	addi	s9,s4,8
    80007ac0:	000d8d13          	mv	s10,s11
    80007ac4:	3c080063          	beqz	a6,80007e84 <_vsnprintf+0x7d8>
    80007ac8:	000a4503          	lbu	a0,0(s4)
    80007acc:	00048693          	mv	a3,s1
    80007ad0:	000c0613          	mv	a2,s8
    80007ad4:	00090593          	mv	a1,s2
    80007ad8:	000980e7          	jalr	s3
    80007adc:	00100713          	li	a4,1
    80007ae0:	47577e63          	bgeu	a4,s5,80007f5c <_vsnprintf+0x8b0>
    80007ae4:	ffea879b          	addiw	a5,s5,-2
    80007ae8:	02079793          	slli	a5,a5,0x20
    80007aec:	002c0513          	addi	a0,s8,2
    80007af0:	0207d793          	srli	a5,a5,0x20
    80007af4:	00f50c33          	add	s8,a0,a5
    80007af8:	000d0613          	mv	a2,s10
    80007afc:	00048693          	mv	a3,s1
    80007b00:	001d0d13          	addi	s10,s10,1
    80007b04:	00090593          	mv	a1,s2
    80007b08:	02000513          	li	a0,32
    80007b0c:	000980e7          	jalr	s3
    80007b10:	ff8d14e3          	bne	s10,s8,80007af8 <_vsnprintf+0x44c>
    80007b14:	000c8a13          	mv	s4,s9
    80007b18:	c31ff06f          	j	80007748 <_vsnprintf+0x9c>
    80007b1c:	000c0613          	mv	a2,s8
    80007b20:	00048693          	mv	a3,s1
    80007b24:	00090593          	mv	a1,s2
    80007b28:	02500513          	li	a0,37
    80007b2c:	001c0c13          	addi	s8,s8,1
    80007b30:	000980e7          	jalr	s3
    80007b34:	c15ff06f          	j	80007748 <_vsnprintf+0x9c>
    80007b38:	000a3d03          	ld	s10,0(s4)
    80007b3c:	008a0793          	addi	a5,s4,8
    80007b40:	02f13423          	sd	a5,40(sp)
    80007b44:	000d4503          	lbu	a0,0(s10)
    80007b48:	12088e63          	beqz	a7,80007c84 <_vsnprintf+0x5d8>
    80007b4c:	02089693          	slli	a3,a7,0x20
    80007b50:	0206d693          	srli	a3,a3,0x20
    80007b54:	12050c63          	beqz	a0,80007c8c <_vsnprintf+0x5e0>
    80007b58:	fff68693          	addi	a3,a3,-1
    80007b5c:	00168693          	addi	a3,a3,1
    80007b60:	00dd06b3          	add	a3,s10,a3
    80007b64:	000d0d93          	mv	s11,s10
    80007b68:	0080006f          	j	80007b70 <_vsnprintf+0x4c4>
    80007b6c:	00dd8863          	beq	s11,a3,80007b7c <_vsnprintf+0x4d0>
    80007b70:	001dc703          	lbu	a4,1(s11)
    80007b74:	001d8d93          	addi	s11,s11,1
    80007b78:	fe071ae3          	bnez	a4,80007b6c <_vsnprintf+0x4c0>
    80007b7c:	41ad8dbb          	subw	s11,s11,s10
    80007b80:	40087c93          	andi	s9,a6,1024
    80007b84:	000c8a63          	beqz	s9,80007b98 <_vsnprintf+0x4ec>
    80007b88:	00088713          	mv	a4,a7
    80007b8c:	011df463          	bgeu	s11,a7,80007b94 <_vsnprintf+0x4e8>
    80007b90:	000d8713          	mv	a4,s11
    80007b94:	00070d9b          	sext.w	s11,a4
    80007b98:	00287413          	andi	s0,a6,2
    80007b9c:	28040463          	beqz	s0,80007e24 <_vsnprintf+0x778>
    80007ba0:	16050863          	beqz	a0,80007d10 <_vsnprintf+0x664>
    80007ba4:	120c8e63          	beqz	s9,80007ce0 <_vsnprintf+0x634>
    80007ba8:	02089893          	slli	a7,a7,0x20
    80007bac:	0208d893          	srli	a7,a7,0x20
    80007bb0:	01888cb3          	add	s9,a7,s8
    80007bb4:	000c0613          	mv	a2,s8
    80007bb8:	14cc8863          	beq	s9,a2,80007d08 <_vsnprintf+0x65c>
    80007bbc:	00048693          	mv	a3,s1
    80007bc0:	00090593          	mv	a1,s2
    80007bc4:	00160a13          	addi	s4,a2,1
    80007bc8:	000980e7          	jalr	s3
    80007bcc:	418a0733          	sub	a4,s4,s8
    80007bd0:	00ed0733          	add	a4,s10,a4
    80007bd4:	00074503          	lbu	a0,0(a4)
    80007bd8:	24050063          	beqz	a0,80007e18 <_vsnprintf+0x76c>
    80007bdc:	000a0613          	mv	a2,s4
    80007be0:	fd9ff06f          	j	80007bb8 <_vsnprintf+0x50c>
    80007be4:	02186793          	ori	a5,a6,33
    80007be8:	000a3703          	ld	a4,0(s4)
    80007bec:	0007879b          	sext.w	a5,a5
    80007bf0:	00f13423          	sd	a5,8(sp)
    80007bf4:	01000793          	li	a5,16
    80007bf8:	000c0613          	mv	a2,s8
    80007bfc:	00f13023          	sd	a5,0(sp)
    80007c00:	01000813          	li	a6,16
    80007c04:	00000793          	li	a5,0
    80007c08:	00048693          	mv	a3,s1
    80007c0c:	00090593          	mv	a1,s2
    80007c10:	00098513          	mv	a0,s3
    80007c14:	fb1fe0ef          	jal	ra,80006bc4 <_ntoa_long>
    80007c18:	008a0a13          	addi	s4,s4,8
    80007c1c:	00050c13          	mv	s8,a0
    80007c20:	b29ff06f          	j	80007748 <_vsnprintf+0x9c>
    80007c24:	00900693          	li	a3,9
    80007c28:	0028971b          	slliw	a4,a7,0x2
    80007c2c:	011708bb          	addw	a7,a4,a7
    80007c30:	000b0613          	mv	a2,s6
    80007c34:	0018989b          	slliw	a7,a7,0x1
    80007c38:	001b0b13          	addi	s6,s6,1
    80007c3c:	00a888bb          	addw	a7,a7,a0
    80007c40:	000b4503          	lbu	a0,0(s6)
    80007c44:	fd08889b          	addiw	a7,a7,-48
    80007c48:	fd05071b          	addiw	a4,a0,-48
    80007c4c:	0ff77713          	zext.b	a4,a4
    80007c50:	fce6fce3          	bgeu	a3,a4,80007c28 <_vsnprintf+0x57c>
    80007c54:	000b0693          	mv	a3,s6
    80007c58:	00260b13          	addi	s6,a2,2
    80007c5c:	b65ff06f          	j	800077c0 <_vsnprintf+0x114>
    80007c60:	000a2883          	lw	a7,0(s4)
    80007c64:	0026c503          	lbu	a0,2(a3)
    80007c68:	00368b13          	addi	s6,a3,3
    80007c6c:	fff8c713          	not	a4,a7
    80007c70:	43f75713          	srai	a4,a4,0x3f
    80007c74:	00e8f8b3          	and	a7,a7,a4
    80007c78:	008a0a13          	addi	s4,s4,8
    80007c7c:	00268693          	addi	a3,a3,2
    80007c80:	b41ff06f          	j	800077c0 <_vsnprintf+0x114>
    80007c84:	ffe00693          	li	a3,-2
    80007c88:	ec051ae3          	bnez	a0,80007b5c <_vsnprintf+0x4b0>
    80007c8c:	00000d93          	li	s11,0
    80007c90:	ef1ff06f          	j	80007b80 <_vsnprintf+0x4d4>
    80007c94:	0df57713          	andi	a4,a0,223
    80007c98:	04700693          	li	a3,71
    80007c9c:	0ad70c63          	beq	a4,a3,80007d54 <_vsnprintf+0x6a8>
    80007ca0:	04500713          	li	a4,69
    80007ca4:	0ce50463          	beq	a0,a4,80007d6c <_vsnprintf+0x6c0>
    80007ca8:	000a3507          	fld	fa0,0(s4)
    80007cac:	000c0613          	mv	a2,s8
    80007cb0:	000a8793          	mv	a5,s5
    80007cb4:	00088713          	mv	a4,a7
    80007cb8:	00048693          	mv	a3,s1
    80007cbc:	00090593          	mv	a1,s2
    80007cc0:	00098513          	mv	a0,s3
    80007cc4:	e48ff0ef          	jal	ra,8000730c <_etoa>
    80007cc8:	008a0a13          	addi	s4,s4,8
    80007ccc:	00050c13          	mv	s8,a0
    80007cd0:	a79ff06f          	j	80007748 <_vsnprintf+0x9c>
    80007cd4:	02086813          	ori	a6,a6,32
    80007cd8:	0008081b          	sext.w	a6,a6
    80007cdc:	dadff06f          	j	80007a88 <_vsnprintf+0x3dc>
    80007ce0:	000c0c93          	mv	s9,s8
    80007ce4:	000c8613          	mv	a2,s9
    80007ce8:	00048693          	mv	a3,s1
    80007cec:	00090593          	mv	a1,s2
    80007cf0:	000980e7          	jalr	s3
    80007cf4:	001c8c93          	addi	s9,s9,1
    80007cf8:	418c8733          	sub	a4,s9,s8
    80007cfc:	00ed0733          	add	a4,s10,a4
    80007d00:	00074503          	lbu	a0,0(a4)
    80007d04:	fe0510e3          	bnez	a0,80007ce4 <_vsnprintf+0x638>
    80007d08:	000c8c13          	mv	s8,s9
    80007d0c:	04040063          	beqz	s0,80007d4c <_vsnprintf+0x6a0>
    80007d10:	000c0413          	mv	s0,s8
    80007d14:	035dfc63          	bgeu	s11,s5,80007d4c <_vsnprintf+0x6a0>
    80007d18:	fffa879b          	addiw	a5,s5,-1
    80007d1c:	41b787bb          	subw	a5,a5,s11
    80007d20:	02079793          	slli	a5,a5,0x20
    80007d24:	0207d793          	srli	a5,a5,0x20
    80007d28:	001c0513          	addi	a0,s8,1
    80007d2c:	00a78c33          	add	s8,a5,a0
    80007d30:	00040613          	mv	a2,s0
    80007d34:	00048693          	mv	a3,s1
    80007d38:	00140413          	addi	s0,s0,1
    80007d3c:	00090593          	mv	a1,s2
    80007d40:	02000513          	li	a0,32
    80007d44:	000980e7          	jalr	s3
    80007d48:	ff8414e3          	bne	s0,s8,80007d30 <_vsnprintf+0x684>
    80007d4c:	02813a03          	ld	s4,40(sp)
    80007d50:	9f9ff06f          	j	80007748 <_vsnprintf+0x9c>
    80007d54:	01813783          	ld	a5,24(sp)
    80007d58:	0fd57513          	andi	a0,a0,253
    80007d5c:	04500713          	li	a4,69
    80007d60:	00f86833          	or	a6,a6,a5
    80007d64:	0008081b          	sext.w	a6,a6
    80007d68:	f4e510e3          	bne	a0,a4,80007ca8 <_vsnprintf+0x5fc>
    80007d6c:	02086813          	ori	a6,a6,32
    80007d70:	0008081b          	sext.w	a6,a6
    80007d74:	f35ff06f          	j	80007ca8 <_vsnprintf+0x5fc>
    80007d78:	0c086813          	ori	a6,a6,192
    80007d7c:	0026c503          	lbu	a0,2(a3)
    80007d80:	0008081b          	sext.w	a6,a6
    80007d84:	00368b13          	addi	s6,a3,3
    80007d88:	ac5ff06f          	j	8000784c <_vsnprintf+0x1a0>
    80007d8c:	00000413          	li	s0,0
    80007d90:	b69c6ae3          	bltu	s8,s1,80007904 <_vsnprintf+0x258>
    80007d94:	b6dff06f          	j	80007900 <_vsnprintf+0x254>
    80007d98:	ff387693          	andi	a3,a6,-13
    80007d9c:	0006869b          	sext.w	a3,a3
    80007da0:	40087713          	andi	a4,a6,1024
    80007da4:	0206e693          	ori	a3,a3,32
    80007da8:	01000593          	li	a1,16
    80007dac:	18070a63          	beqz	a4,80007f40 <_vsnprintf+0x894>
    80007db0:	ffe6f693          	andi	a3,a3,-2
    80007db4:	0006869b          	sext.w	a3,a3
    80007db8:	06900713          	li	a4,105
    80007dbc:	2006f413          	andi	s0,a3,512
    80007dc0:	c0e50ae3          	beq	a0,a4,800079d4 <_vsnprintf+0x328>
    80007dc4:	06400713          	li	a4,100
    80007dc8:	c0e506e3          	beq	a0,a4,800079d4 <_vsnprintf+0x328>
    80007dcc:	18041e63          	bnez	s0,80007f68 <_vsnprintf+0x8bc>
    80007dd0:	1006f713          	andi	a4,a3,256
    80007dd4:	00068613          	mv	a2,a3
    80007dd8:	20071063          	bnez	a4,80007fd8 <_vsnprintf+0x92c>
    80007ddc:	0406f713          	andi	a4,a3,64
    80007de0:	16071a63          	bnez	a4,80007f54 <_vsnprintf+0x8a8>
    80007de4:	08067613          	andi	a2,a2,128
    80007de8:	000a2703          	lw	a4,0(s4)
    80007dec:	00060663          	beqz	a2,80007df8 <_vsnprintf+0x74c>
    80007df0:	02013783          	ld	a5,32(sp)
    80007df4:	00e7f733          	and	a4,a5,a4
    80007df8:	02071713          	slli	a4,a4,0x20
    80007dfc:	000c0613          	mv	a2,s8
    80007e00:	00d13423          	sd	a3,8(sp)
    80007e04:	01513023          	sd	s5,0(sp)
    80007e08:	00058813          	mv	a6,a1
    80007e0c:	00000793          	li	a5,0
    80007e10:	02075713          	srli	a4,a4,0x20
    80007e14:	c15ff06f          	j	80007a28 <_vsnprintf+0x37c>
    80007e18:	000a0c13          	mv	s8,s4
    80007e1c:	f20408e3          	beqz	s0,80007d4c <_vsnprintf+0x6a0>
    80007e20:	ef1ff06f          	j	80007d10 <_vsnprintf+0x664>
    80007e24:	001d871b          	addiw	a4,s11,1
    80007e28:	1d5dfe63          	bgeu	s11,s5,80008004 <_vsnprintf+0x958>
    80007e2c:	fffa871b          	addiw	a4,s5,-1
    80007e30:	41b70dbb          	subw	s11,a4,s11
    80007e34:	020d9793          	slli	a5,s11,0x20
    80007e38:	0207d793          	srli	a5,a5,0x20
    80007e3c:	001c0d93          	addi	s11,s8,1
    80007e40:	01b78a33          	add	s4,a5,s11
    80007e44:	0080006f          	j	80007e4c <_vsnprintf+0x7a0>
    80007e48:	001d8d93          	addi	s11,s11,1
    80007e4c:	01113823          	sd	a7,16(sp)
    80007e50:	000c0613          	mv	a2,s8
    80007e54:	00048693          	mv	a3,s1
    80007e58:	00090593          	mv	a1,s2
    80007e5c:	02000513          	li	a0,32
    80007e60:	000980e7          	jalr	s3
    80007e64:	01013883          	ld	a7,16(sp)
    80007e68:	000d8c13          	mv	s8,s11
    80007e6c:	fd4d9ee3          	bne	s11,s4,80007e48 <_vsnprintf+0x79c>
    80007e70:	000d4503          	lbu	a0,0(s10)
    80007e74:	001a8d9b          	addiw	s11,s5,1
    80007e78:	d20516e3          	bnez	a0,80007ba4 <_vsnprintf+0x4f8>
    80007e7c:	02813a03          	ld	s4,40(sp)
    80007e80:	8c9ff06f          	j	80007748 <_vsnprintf+0x9c>
    80007e84:	00100693          	li	a3,1
    80007e88:	1956f463          	bgeu	a3,s5,80008010 <_vsnprintf+0x964>
    80007e8c:	ffea879b          	addiw	a5,s5,-2
    80007e90:	02079413          	slli	s0,a5,0x20
    80007e94:	02045413          	srli	s0,s0,0x20
    80007e98:	01b40433          	add	s0,s0,s11
    80007e9c:	0080006f          	j	80007ea4 <_vsnprintf+0x7f8>
    80007ea0:	001d8d93          	addi	s11,s11,1
    80007ea4:	000c0613          	mv	a2,s8
    80007ea8:	00048693          	mv	a3,s1
    80007eac:	00090593          	mv	a1,s2
    80007eb0:	02000513          	li	a0,32
    80007eb4:	000d8c13          	mv	s8,s11
    80007eb8:	000980e7          	jalr	s3
    80007ebc:	fe8d92e3          	bne	s11,s0,80007ea0 <_vsnprintf+0x7f4>
    80007ec0:	001d8c13          	addi	s8,s11,1
    80007ec4:	000a4503          	lbu	a0,0(s4)
    80007ec8:	00048693          	mv	a3,s1
    80007ecc:	00040613          	mv	a2,s0
    80007ed0:	00090593          	mv	a1,s2
    80007ed4:	000980e7          	jalr	s3
    80007ed8:	000c8a13          	mv	s4,s9
    80007edc:	86dff06f          	j	80007748 <_vsnprintf+0x9c>
    80007ee0:	000a3783          	ld	a5,0(s4)
    80007ee4:	00d13423          	sd	a3,8(sp)
    80007ee8:	000c0613          	mv	a2,s8
    80007eec:	43f7d713          	srai	a4,a5,0x3f
    80007ef0:	00f746b3          	xor	a3,a4,a5
    80007ef4:	01513023          	sd	s5,0(sp)
    80007ef8:	00058813          	mv	a6,a1
    80007efc:	03f7d793          	srli	a5,a5,0x3f
    80007f00:	40e68733          	sub	a4,a3,a4
    80007f04:	00048693          	mv	a3,s1
    80007f08:	00090593          	mv	a1,s2
    80007f0c:	00098513          	mv	a0,s3
    80007f10:	cb5fe0ef          	jal	ra,80006bc4 <_ntoa_long>
    80007f14:	00050c13          	mv	s8,a0
    80007f18:	000c8a13          	mv	s4,s9
    80007f1c:	82dff06f          	j	80007748 <_vsnprintf+0x9c>
    80007f20:	40087713          	andi	a4,a6,1024
    80007f24:	01000593          	li	a1,16
    80007f28:	ff387693          	andi	a3,a6,-13
    80007f2c:	0006869b          	sext.w	a3,a3
    80007f30:	e80704e3          	beqz	a4,80007db8 <_vsnprintf+0x70c>
    80007f34:	e7dff06f          	j	80007db0 <_vsnprintf+0x704>
    80007f38:	00a00593          	li	a1,10
    80007f3c:	e75ff06f          	j	80007db0 <_vsnprintf+0x704>
    80007f40:	20087413          	andi	s0,a6,512
    80007f44:	e89ff06f          	j	80007dcc <_vsnprintf+0x720>
    80007f48:	0ff57513          	zext.b	a0,a0
    80007f4c:	00050713          	mv	a4,a0
    80007f50:	ac5ff06f          	j	80007a14 <_vsnprintf+0x368>
    80007f54:	000a4703          	lbu	a4,0(s4)
    80007f58:	ea1ff06f          	j	80007df8 <_vsnprintf+0x74c>
    80007f5c:	000d8c13          	mv	s8,s11
    80007f60:	000c8a13          	mv	s4,s9
    80007f64:	fe4ff06f          	j	80007748 <_vsnprintf+0x9c>
    80007f68:	000a3703          	ld	a4,0(s4)
    80007f6c:	000c0613          	mv	a2,s8
    80007f70:	00d13423          	sd	a3,8(sp)
    80007f74:	01513023          	sd	s5,0(sp)
    80007f78:	00058813          	mv	a6,a1
    80007f7c:	00000793          	li	a5,0
    80007f80:	f85ff06f          	j	80007f04 <_vsnprintf+0x858>
    80007f84:	00800593          	li	a1,8
    80007f88:	00080693          	mv	a3,a6
    80007f8c:	06400613          	li	a2,100
    80007f90:	00068413          	mv	s0,a3
    80007f94:	4006f713          	andi	a4,a3,1024
    80007f98:	08c51263          	bne	a0,a2,8000801c <_vsnprintf+0x970>
    80007f9c:	20047413          	andi	s0,s0,512
    80007fa0:	a2070ae3          	beqz	a4,800079d4 <_vsnprintf+0x328>
    80007fa4:	e0dff06f          	j	80007db0 <_vsnprintf+0x704>
    80007fa8:	000a3783          	ld	a5,0(s4)
    80007fac:	00d13423          	sd	a3,8(sp)
    80007fb0:	000c0613          	mv	a2,s8
    80007fb4:	43f7d713          	srai	a4,a5,0x3f
    80007fb8:	00f746b3          	xor	a3,a4,a5
    80007fbc:	01513023          	sd	s5,0(sp)
    80007fc0:	00058813          	mv	a6,a1
    80007fc4:	03f7d793          	srli	a5,a5,0x3f
    80007fc8:	40e68733          	sub	a4,a3,a4
    80007fcc:	a5dff06f          	j	80007a28 <_vsnprintf+0x37c>
    80007fd0:	00200593          	li	a1,2
    80007fd4:	fb5ff06f          	j	80007f88 <_vsnprintf+0x8dc>
    80007fd8:	000a3703          	ld	a4,0(s4)
    80007fdc:	000c0613          	mv	a2,s8
    80007fe0:	00d13423          	sd	a3,8(sp)
    80007fe4:	01513023          	sd	s5,0(sp)
    80007fe8:	00058813          	mv	a6,a1
    80007fec:	00000793          	li	a5,0
    80007ff0:	a39ff06f          	j	80007a28 <_vsnprintf+0x37c>
    80007ff4:	41f5561b          	sraiw	a2,a0,0x1f
    80007ff8:	00c54733          	xor	a4,a0,a2
    80007ffc:	40c7073b          	subw	a4,a4,a2
    80008000:	a15ff06f          	j	80007a14 <_vsnprintf+0x368>
    80008004:	00070d93          	mv	s11,a4
    80008008:	b8051ee3          	bnez	a0,80007ba4 <_vsnprintf+0x4f8>
    8000800c:	e71ff06f          	j	80007e7c <_vsnprintf+0x7d0>
    80008010:	000c0413          	mv	s0,s8
    80008014:	000d8c13          	mv	s8,s11
    80008018:	eadff06f          	j	80007ec4 <_vsnprintf+0x818>
    8000801c:	00068813          	mv	a6,a3
    80008020:	f09ff06f          	j	80007f28 <_vsnprintf+0x87c>
    80008024:	00a00593          	li	a1,10
    80008028:	f65ff06f          	j	80007f8c <_vsnprintf+0x8e0>

Disassembly of section .text.printf_:

000000008000802c <printf_>:
    8000802c:	fa010113          	addi	sp,sp,-96
    80008030:	02810313          	addi	t1,sp,40
    80008034:	02b13423          	sd	a1,40(sp)
    80008038:	02c13823          	sd	a2,48(sp)
    8000803c:	02d13c23          	sd	a3,56(sp)
    80008040:	04e13023          	sd	a4,64(sp)
    80008044:	00050693          	mv	a3,a0
    80008048:	00010593          	mv	a1,sp
    8000804c:	00030713          	mv	a4,t1
    80008050:	fff00613          	li	a2,-1
    80008054:	fffff517          	auipc	a0,0xfffff
    80008058:	edc50513          	addi	a0,a0,-292 # 80006f30 <_out_char>
    8000805c:	00113c23          	sd	ra,24(sp)
    80008060:	04f13423          	sd	a5,72(sp)
    80008064:	05013823          	sd	a6,80(sp)
    80008068:	05113c23          	sd	a7,88(sp)
    8000806c:	00613423          	sd	t1,8(sp)
    80008070:	e3cff0ef          	jal	ra,800076ac <_vsnprintf>
    80008074:	01813083          	ld	ra,24(sp)
    80008078:	06010113          	addi	sp,sp,96
    8000807c:	00008067          	ret
