
/home/oslab/work/chisel/xs-env/wukong_am/tests/cputest/build/goldbach-riscv64-nutshell.elf:     file format elf64-littleriscv


Disassembly of section .text:

0000000080000000 <_start>:
    80000000:	00000413          	li	s0,0
    80000004:	0000a117          	auipc	sp,0xa
    80000008:	ffc10113          	addi	sp,sp,-4 # 8000a000 <_end>
    8000000c:	1f4000ef          	jal	ra,80000200 <_trm_init>

0000000080000010 <to_main>:
    80000010:	1f0000ef          	jal	ra,80000200 <_trm_init>

0000000080000014 <setup_stack1>:
    80000014:	0000a117          	auipc	sp,0xa
    80000018:	fec10113          	addi	sp,sp,-20 # 8000a000 <_end>
    8000001c:	ff5ff06f          	j	80000010 <to_main>

0000000080000020 <nemu_assert>:
    80000020:	00050463          	beqz	a0,80000028 <nemu_assert+0x8>
    80000024:	00008067          	ret
    80000028:	ff010113          	addi	sp,sp,-16
    8000002c:	00100513          	li	a0,1
    80000030:	00113423          	sd	ra,8(sp)
    80000034:	1a8000ef          	jal	ra,800001dc <_halt>

0000000080000038 <is_prime>:
    80000038:	00100793          	li	a5,1
    8000003c:	00050693          	mv	a3,a0
    80000040:	02a7dc63          	bge	a5,a0,80000078 <is_prime+0x40>
    80000044:	00200793          	li	a5,2
    80000048:	02f50463          	beq	a0,a5,80000070 <is_prime+0x38>
    8000004c:	00157793          	andi	a5,a0,1
    80000050:	02078463          	beqz	a5,80000078 <is_prime+0x40>
    80000054:	00200713          	li	a4,2
    80000058:	00c0006f          	j	80000064 <is_prime+0x2c>
    8000005c:	02f6e53b          	remw	a0,a3,a5
    80000060:	00050e63          	beqz	a0,8000007c <is_prime+0x44>
    80000064:	0017071b          	addiw	a4,a4,1
    80000068:	00070793          	mv	a5,a4
    8000006c:	fee698e3          	bne	a3,a4,8000005c <is_prime+0x24>
    80000070:	00100513          	li	a0,1
    80000074:	00008067          	ret
    80000078:	00000513          	li	a0,0
    8000007c:	00008067          	ret

0000000080000080 <goldbach>:
    80000080:	00200793          	li	a5,2
    80000084:	08a7d063          	bge	a5,a0,80000104 <goldbach+0x84>
    80000088:	ffe5059b          	addiw	a1,a0,-2
    8000008c:	00200693          	li	a3,2
    80000090:	00200813          	li	a6,2
    80000094:	00100893          	li	a7,1
    80000098:	03068463          	beq	a3,a6,800000c0 <goldbach+0x40>
    8000009c:	0016f793          	andi	a5,a3,1
    800000a0:	04078c63          	beqz	a5,800000f8 <goldbach+0x78>
    800000a4:	00200713          	li	a4,2
    800000a8:	00c0006f          	j	800000b4 <goldbach+0x34>
    800000ac:	02f6e7bb          	remw	a5,a3,a5
    800000b0:	04078463          	beqz	a5,800000f8 <goldbach+0x78>
    800000b4:	0017071b          	addiw	a4,a4,1
    800000b8:	00070793          	mv	a5,a4
    800000bc:	fed718e3          	bne	a4,a3,800000ac <goldbach+0x2c>
    800000c0:	0005861b          	sext.w	a2,a1
    800000c4:	03158a63          	beq	a1,a7,800000f8 <goldbach+0x78>
    800000c8:	03060463          	beq	a2,a6,800000f0 <goldbach+0x70>
    800000cc:	0015f793          	andi	a5,a1,1
    800000d0:	02078463          	beqz	a5,800000f8 <goldbach+0x78>
    800000d4:	00200713          	li	a4,2
    800000d8:	00c0006f          	j	800000e4 <goldbach+0x64>
    800000dc:	02f667bb          	remw	a5,a2,a5
    800000e0:	00078c63          	beqz	a5,800000f8 <goldbach+0x78>
    800000e4:	0017071b          	addiw	a4,a4,1
    800000e8:	00070793          	mv	a5,a4
    800000ec:	fee618e3          	bne	a2,a4,800000dc <goldbach+0x5c>
    800000f0:	00100513          	li	a0,1
    800000f4:	00008067          	ret
    800000f8:	0016869b          	addiw	a3,a3,1
    800000fc:	fff5859b          	addiw	a1,a1,-1
    80000100:	f8d51ce3          	bne	a0,a3,80000098 <goldbach+0x18>
    80000104:	00000513          	li	a0,0
    80000108:	00008067          	ret

Disassembly of section .text.startup:

000000008000010c <main>:
    8000010c:	fd010113          	addi	sp,sp,-48
    80000110:	02813023          	sd	s0,32(sp)
    80000114:	00913c23          	sd	s1,24(sp)
    80000118:	01213823          	sd	s2,16(sp)
    8000011c:	01313423          	sd	s3,8(sp)
    80000120:	02113423          	sd	ra,40(sp)
    80000124:	00400913          	li	s2,4
    80000128:	00200413          	li	s0,2
    8000012c:	00100993          	li	s3,1
    80000130:	02000493          	li	s1,32
    80000134:	ffe9059b          	addiw	a1,s2,-2
    80000138:	00200693          	li	a3,2
    8000013c:	02868463          	beq	a3,s0,80000164 <main+0x58>
    80000140:	0016f793          	andi	a5,a3,1
    80000144:	08078063          	beqz	a5,800001c4 <main+0xb8>
    80000148:	00200713          	li	a4,2
    8000014c:	00c0006f          	j	80000158 <main+0x4c>
    80000150:	02f6e7bb          	remw	a5,a3,a5
    80000154:	06078863          	beqz	a5,800001c4 <main+0xb8>
    80000158:	0017071b          	addiw	a4,a4,1
    8000015c:	00070793          	mv	a5,a4
    80000160:	fed718e3          	bne	a4,a3,80000150 <main+0x44>
    80000164:	0005861b          	sext.w	a2,a1
    80000168:	04b9de63          	bge	s3,a1,800001c4 <main+0xb8>
    8000016c:	02860463          	beq	a2,s0,80000194 <main+0x88>
    80000170:	0015f793          	andi	a5,a1,1
    80000174:	04078863          	beqz	a5,800001c4 <main+0xb8>
    80000178:	00200713          	li	a4,2
    8000017c:	00c0006f          	j	80000188 <main+0x7c>
    80000180:	02f667bb          	remw	a5,a2,a5
    80000184:	04078063          	beqz	a5,800001c4 <main+0xb8>
    80000188:	0017071b          	addiw	a4,a4,1
    8000018c:	00070793          	mv	a5,a4
    80000190:	fee618e3          	bne	a2,a4,80000180 <main+0x74>
    80000194:	00100513          	li	a0,1
    80000198:	0029091b          	addiw	s2,s2,2
    8000019c:	e85ff0ef          	jal	ra,80000020 <nemu_assert>
    800001a0:	f8991ae3          	bne	s2,s1,80000134 <main+0x28>
    800001a4:	02813083          	ld	ra,40(sp)
    800001a8:	02013403          	ld	s0,32(sp)
    800001ac:	01813483          	ld	s1,24(sp)
    800001b0:	01013903          	ld	s2,16(sp)
    800001b4:	00813983          	ld	s3,8(sp)
    800001b8:	00000513          	li	a0,0
    800001bc:	03010113          	addi	sp,sp,48
    800001c0:	00008067          	ret
    800001c4:	0016869b          	addiw	a3,a3,1
    800001c8:	fff5859b          	addiw	a1,a1,-1
    800001cc:	f72698e3          	bne	a3,s2,8000013c <main+0x30>
    800001d0:	00000513          	li	a0,0
    800001d4:	fc5ff06f          	j	80000198 <main+0x8c>

Disassembly of section .text._putc:

00000000800001d8 <_putc>:
    800001d8:	0540006f          	j	8000022c <__am_uartlite_putchar>

Disassembly of section .text._halt:

00000000800001dc <_halt>:
    800001dc:	ff010113          	addi	sp,sp,-16
    800001e0:	00113423          	sd	ra,8(sp)
    800001e4:	00050593          	mv	a1,a0
    800001e8:	00050513          	mv	a0,a0
    800001ec:	0005006b          	0x5006b
    800001f0:	00001517          	auipc	a0,0x1
    800001f4:	66850513          	addi	a0,a0,1640 # 80001858 <printf_+0x58>
    800001f8:	608010ef          	jal	ra,80001800 <printf_>
    800001fc:	0000006f          	j	800001fc <_halt+0x20>

Disassembly of section .text._trm_init:

0000000080000200 <_trm_init>:
    80000200:	ff010113          	addi	sp,sp,-16
    80000204:	00113423          	sd	ra,8(sp)
    80000208:	014000ef          	jal	ra,8000021c <__am_init_uartlite>
    8000020c:	00001517          	auipc	a0,0x1
    80000210:	66150513          	addi	a0,a0,1633 # 8000186d <__am_mainargs>
    80000214:	ef9ff0ef          	jal	ra,8000010c <main>
    80000218:	fc5ff0ef          	jal	ra,800001dc <_halt>

Disassembly of section .text.__am_init_uartlite:

000000008000021c <__am_init_uartlite>:
    8000021c:	406007b7          	lui	a5,0x40600
    80000220:	00300713          	li	a4,3
    80000224:	00e78623          	sb	a4,12(a5) # 4060000c <_start-0x3f9ffff4>
    80000228:	00008067          	ret

Disassembly of section .text.__am_uartlite_putchar:

000000008000022c <__am_uartlite_putchar>:
    8000022c:	00a00793          	li	a5,10
    80000230:	00f50863          	beq	a0,a5,80000240 <__am_uartlite_putchar+0x14>
    80000234:	406007b7          	lui	a5,0x40600
    80000238:	00a78223          	sb	a0,4(a5) # 40600004 <_start-0x3f9ffffc>
    8000023c:	00008067          	ret
    80000240:	406007b7          	lui	a5,0x40600
    80000244:	00d00713          	li	a4,13
    80000248:	00e78223          	sb	a4,4(a5) # 40600004 <_start-0x3f9ffffc>
    8000024c:	406007b7          	lui	a5,0x40600
    80000250:	00a78223          	sb	a0,4(a5) # 40600004 <_start-0x3f9ffffc>
    80000254:	00008067          	ret

Disassembly of section .text._out_null:

0000000080000258 <_out_null>:
    80000258:	00008067          	ret

Disassembly of section .text._out_rev:

000000008000025c <_out_rev>:
    8000025c:	fa010113          	addi	sp,sp,-96
    80000260:	04913423          	sd	s1,72(sp)
    80000264:	05213023          	sd	s2,64(sp)
    80000268:	03313c23          	sd	s3,56(sp)
    8000026c:	03413823          	sd	s4,48(sp)
    80000270:	03513423          	sd	s5,40(sp)
    80000274:	03613023          	sd	s6,32(sp)
    80000278:	00060a93          	mv	s5,a2
    8000027c:	01813823          	sd	s8,16(sp)
    80000280:	01913423          	sd	s9,8(sp)
    80000284:	01a13023          	sd	s10,0(sp)
    80000288:	04113c23          	sd	ra,88(sp)
    8000028c:	04813823          	sd	s0,80(sp)
    80000290:	01713c23          	sd	s7,24(sp)
    80000294:	0038f613          	andi	a2,a7,3
    80000298:	00088c93          	mv	s9,a7
    8000029c:	00050913          	mv	s2,a0
    800002a0:	00058993          	mv	s3,a1
    800002a4:	00068a13          	mv	s4,a3
    800002a8:	00070b13          	mv	s6,a4
    800002ac:	00078d13          	mv	s10,a5
    800002b0:	00080c13          	mv	s8,a6
    800002b4:	000a8493          	mv	s1,s5
    800002b8:	02061c63          	bnez	a2,800002f0 <_out_rev+0x94>
    800002bc:	02081793          	slli	a5,a6,0x20
    800002c0:	0207d793          	srli	a5,a5,0x20
    800002c4:	41a784b3          	sub	s1,a5,s10
    800002c8:	015484b3          	add	s1,s1,s5
    800002cc:	000a8413          	mv	s0,s5
    800002d0:	0cfd7063          	bgeu	s10,a5,80000390 <_out_rev+0x134>
    800002d4:	00040613          	mv	a2,s0
    800002d8:	000a0693          	mv	a3,s4
    800002dc:	00140413          	addi	s0,s0,1
    800002e0:	00098593          	mv	a1,s3
    800002e4:	02000513          	li	a0,32
    800002e8:	000900e7          	jalr	s2
    800002ec:	fe9414e3          	bne	s0,s1,800002d4 <_out_rev+0x78>
    800002f0:	01ab0433          	add	s0,s6,s10
    800002f4:	00940bb3          	add	s7,s0,s1
    800002f8:	020d0263          	beqz	s10,8000031c <_out_rev+0xc0>
    800002fc:	fff44503          	lbu	a0,-1(s0)
    80000300:	408b8633          	sub	a2,s7,s0
    80000304:	000a0693          	mv	a3,s4
    80000308:	fff40413          	addi	s0,s0,-1
    8000030c:	00098593          	mv	a1,s3
    80000310:	000900e7          	jalr	s2
    80000314:	fe8b14e3          	bne	s6,s0,800002fc <_out_rev+0xa0>
    80000318:	01a484b3          	add	s1,s1,s10
    8000031c:	002cfc93          	andi	s9,s9,2
    80000320:	020c8a63          	beqz	s9,80000354 <_out_rev+0xf8>
    80000324:	020c1c13          	slli	s8,s8,0x20
    80000328:	41548ab3          	sub	s5,s1,s5
    8000032c:	020c5c13          	srli	s8,s8,0x20
    80000330:	038af263          	bgeu	s5,s8,80000354 <_out_rev+0xf8>
    80000334:	00048613          	mv	a2,s1
    80000338:	001a8a93          	addi	s5,s5,1
    8000033c:	000a0693          	mv	a3,s4
    80000340:	00098593          	mv	a1,s3
    80000344:	02000513          	li	a0,32
    80000348:	00148493          	addi	s1,s1,1
    8000034c:	000900e7          	jalr	s2
    80000350:	ff8ae2e3          	bltu	s5,s8,80000334 <_out_rev+0xd8>
    80000354:	05813083          	ld	ra,88(sp)
    80000358:	05013403          	ld	s0,80(sp)
    8000035c:	04013903          	ld	s2,64(sp)
    80000360:	03813983          	ld	s3,56(sp)
    80000364:	03013a03          	ld	s4,48(sp)
    80000368:	02813a83          	ld	s5,40(sp)
    8000036c:	02013b03          	ld	s6,32(sp)
    80000370:	01813b83          	ld	s7,24(sp)
    80000374:	01013c03          	ld	s8,16(sp)
    80000378:	00813c83          	ld	s9,8(sp)
    8000037c:	00013d03          	ld	s10,0(sp)
    80000380:	00048513          	mv	a0,s1
    80000384:	04813483          	ld	s1,72(sp)
    80000388:	06010113          	addi	sp,sp,96
    8000038c:	00008067          	ret
    80000390:	000a8493          	mv	s1,s5
    80000394:	f5dff06f          	j	800002f0 <_out_rev+0x94>

Disassembly of section .text._ntoa_long:

0000000080000398 <_ntoa_long>:
    80000398:	fb010113          	addi	sp,sp,-80
    8000039c:	04113423          	sd	ra,72(sp)
    800003a0:	05812083          	lw	ra,88(sp)
    800003a4:	02913c23          	sd	s1,56(sp)
    800003a8:	03313423          	sd	s3,40(sp)
    800003ac:	04813023          	sd	s0,64(sp)
    800003b0:	03213823          	sd	s2,48(sp)
    800003b4:	00080e93          	mv	t4,a6
    800003b8:	05012983          	lw	s3,80(sp)
    800003bc:	00070e13          	mv	t3,a4
    800003c0:	00078493          	mv	s1,a5
    800003c4:	4000f813          	andi	a6,ra,1024
    800003c8:	0e071063          	bnez	a4,800004a8 <_ntoa_long+0x110>
    800003cc:	00008913          	mv	s2,ra
    800003d0:	fef0f093          	andi	ra,ra,-17
    800003d4:	0e081663          	bnez	a6,800004c0 <_ntoa_long+0x128>
    800003d8:	0200f793          	andi	a5,ra,32
    800003dc:	00000913          	li	s2,0
    800003e0:	06100293          	li	t0,97
    800003e4:	0c079a63          	bnez	a5,800004b8 <_ntoa_long+0x120>
    800003e8:	00000793          	li	a5,0
    800003ec:	00010713          	mv	a4,sp
    800003f0:	00900393          	li	t2,9
    800003f4:	ff62829b          	addiw	t0,t0,-10
    800003f8:	02000413          	li	s0,32
    800003fc:	00c0006f          	j	80000408 <_ntoa_long+0x70>
    80000400:	02878c63          	beq	a5,s0,80000438 <_ntoa_long+0xa0>
    80000404:	00030e13          	mv	t3,t1
    80000408:	03de7f33          	remu	t5,t3,t4
    8000040c:	0fff7313          	andi	t1,t5,255
    80000410:	03030f9b          	addiw	t6,t1,48
    80000414:	0062833b          	addw	t1,t0,t1
    80000418:	0ff37313          	andi	t1,t1,255
    8000041c:	01e3e463          	bltu	t2,t5,80000424 <_ntoa_long+0x8c>
    80000420:	0ffff313          	andi	t1,t6,255
    80000424:	00178793          	addi	a5,a5,1
    80000428:	00f70f33          	add	t5,a4,a5
    8000042c:	fe6f0fa3          	sb	t1,-1(t5)
    80000430:	03de5333          	divu	t1,t3,t4
    80000434:	fdde76e3          	bgeu	t3,t4,80000400 <_ntoa_long+0x68>
    80000438:	0020f313          	andi	t1,ra,2
    8000043c:	08030a63          	beqz	t1,800004d0 <_ntoa_long+0x138>
    80000440:	14090a63          	beqz	s2,80000594 <_ntoa_long+0x1fc>
    80000444:	12081063          	bnez	a6,80000564 <_ntoa_long+0x1cc>
    80000448:	10079263          	bnez	a5,8000054c <_ntoa_long+0x1b4>
    8000044c:	01000793          	li	a5,16
    80000450:	24fe8463          	beq	t4,a5,80000698 <_ntoa_long+0x300>
    80000454:	00200793          	li	a5,2
    80000458:	28fe8263          	beq	t4,a5,800006dc <_ntoa_long+0x344>
    8000045c:	03000793          	li	a5,48
    80000460:	00f10023          	sb	a5,0(sp)
    80000464:	00100793          	li	a5,1
    80000468:	16048663          	beqz	s1,800005d4 <_ntoa_long+0x23c>
    8000046c:	02010813          	addi	a6,sp,32
    80000470:	00f80833          	add	a6,a6,a5
    80000474:	02d00893          	li	a7,45
    80000478:	ff180023          	sb	a7,-32(a6)
    8000047c:	00178793          	addi	a5,a5,1
    80000480:	00008893          	mv	a7,ra
    80000484:	00098813          	mv	a6,s3
    80000488:	dd5ff0ef          	jal	ra,8000025c <_out_rev>
    8000048c:	04813083          	ld	ra,72(sp)
    80000490:	04013403          	ld	s0,64(sp)
    80000494:	03813483          	ld	s1,56(sp)
    80000498:	03013903          	ld	s2,48(sp)
    8000049c:	02813983          	ld	s3,40(sp)
    800004a0:	05010113          	addi	sp,sp,80
    800004a4:	00008067          	ret
    800004a8:	0200f793          	andi	a5,ra,32
    800004ac:	0100f913          	andi	s2,ra,16
    800004b0:	06100293          	li	t0,97
    800004b4:	f2078ae3          	beqz	a5,800003e8 <_ntoa_long+0x50>
    800004b8:	04100293          	li	t0,65
    800004bc:	f2dff06f          	j	800003e8 <_ntoa_long+0x50>
    800004c0:	00297913          	andi	s2,s2,2
    800004c4:	00000793          	li	a5,0
    800004c8:	00010713          	mv	a4,sp
    800004cc:	f8091ee3          	bnez	s2,80000468 <_ntoa_long+0xd0>
    800004d0:	02089e13          	slli	t3,a7,0x20
    800004d4:	00008313          	mv	t1,ra
    800004d8:	0010f293          	andi	t0,ra,1
    800004dc:	020e5e13          	srli	t3,t3,0x20
    800004e0:	0c099263          	bnez	s3,800005a4 <_ntoa_long+0x20c>
    800004e4:	03c7f663          	bgeu	a5,t3,80000510 <_ntoa_long+0x178>
    800004e8:	02000313          	li	t1,32
    800004ec:	02678263          	beq	a5,t1,80000510 <_ntoa_long+0x178>
    800004f0:	03000f13          	li	t5,48
    800004f4:	02000f93          	li	t6,32
    800004f8:	0080006f          	j	80000500 <_ntoa_long+0x168>
    800004fc:	01f78a63          	beq	a5,t6,80000510 <_ntoa_long+0x178>
    80000500:	00178793          	addi	a5,a5,1
    80000504:	00f70333          	add	t1,a4,a5
    80000508:	ffe30fa3          	sb	t5,-1(t1)
    8000050c:	ffc7e8e3          	bltu	a5,t3,800004fc <_ntoa_long+0x164>
    80000510:	f20288e3          	beqz	t0,80000440 <_ntoa_long+0xa8>
    80000514:	02099f13          	slli	t5,s3,0x20
    80000518:	020f5f13          	srli	t5,t5,0x20
    8000051c:	f3e7f2e3          	bgeu	a5,t5,80000440 <_ntoa_long+0xa8>
    80000520:	02000313          	li	t1,32
    80000524:	0a678063          	beq	a5,t1,800005c4 <_ntoa_long+0x22c>
    80000528:	03000f93          	li	t6,48
    8000052c:	02000293          	li	t0,32
    80000530:	0080006f          	j	80000538 <_ntoa_long+0x1a0>
    80000534:	08578863          	beq	a5,t0,800005c4 <_ntoa_long+0x22c>
    80000538:	00178793          	addi	a5,a5,1
    8000053c:	00f70333          	add	t1,a4,a5
    80000540:	fff30fa3          	sb	t6,-1(t1)
    80000544:	ffe798e3          	bne	a5,t5,80000534 <_ntoa_long+0x19c>
    80000548:	ef9ff06f          	j	80000440 <_ntoa_long+0xa8>
    8000054c:	02089e13          	slli	t3,a7,0x20
    80000550:	020e5e13          	srli	t3,t3,0x20
    80000554:	0efe0a63          	beq	t3,a5,80000648 <_ntoa_long+0x2b0>
    80000558:	02099813          	slli	a6,s3,0x20
    8000055c:	02085813          	srli	a6,a6,0x20
    80000560:	0ef80463          	beq	a6,a5,80000648 <_ntoa_long+0x2b0>
    80000564:	01000813          	li	a6,16
    80000568:	110e8463          	beq	t4,a6,80000670 <_ntoa_long+0x2d8>
    8000056c:	00200813          	li	a6,2
    80000570:	0b0e8e63          	beq	t4,a6,8000062c <_ntoa_long+0x294>
    80000574:	02000813          	li	a6,32
    80000578:	f10784e3          	beq	a5,a6,80000480 <_ntoa_long+0xe8>
    8000057c:	00078813          	mv	a6,a5
    80000580:	02010793          	addi	a5,sp,32
    80000584:	010788b3          	add	a7,a5,a6
    80000588:	00180793          	addi	a5,a6,1
    8000058c:	03000813          	li	a6,48
    80000590:	ff088023          	sb	a6,-32(a7)
    80000594:	02000813          	li	a6,32
    80000598:	ed0798e3          	bne	a5,a6,80000468 <_ntoa_long+0xd0>
    8000059c:	02000793          	li	a5,32
    800005a0:	ee1ff06f          	j	80000480 <_ntoa_long+0xe8>
    800005a4:	04028c63          	beqz	t0,800005fc <_ntoa_long+0x264>
    800005a8:	08049c63          	bnez	s1,80000640 <_ntoa_long+0x2a8>
    800005ac:	00c37313          	andi	t1,t1,12
    800005b0:	08031863          	bnez	t1,80000640 <_ntoa_long+0x2a8>
    800005b4:	f7c7f0e3          	bgeu	a5,t3,80000514 <_ntoa_long+0x17c>
    800005b8:	02000313          	li	t1,32
    800005bc:	f2679ae3          	bne	a5,t1,800004f0 <_ntoa_long+0x158>
    800005c0:	e937f0e3          	bgeu	a5,s3,80000440 <_ntoa_long+0xa8>
    800005c4:	fc090ce3          	beqz	s2,8000059c <_ntoa_long+0x204>
    800005c8:	02000793          	li	a5,32
    800005cc:	f80804e3          	beqz	a6,80000554 <_ntoa_long+0x1bc>
    800005d0:	f95ff06f          	j	80000564 <_ntoa_long+0x1cc>
    800005d4:	0040f813          	andi	a6,ra,4
    800005d8:	02081e63          	bnez	a6,80000614 <_ntoa_long+0x27c>
    800005dc:	0080f813          	andi	a6,ra,8
    800005e0:	ea0800e3          	beqz	a6,80000480 <_ntoa_long+0xe8>
    800005e4:	02010813          	addi	a6,sp,32
    800005e8:	00f80833          	add	a6,a6,a5
    800005ec:	02000893          	li	a7,32
    800005f0:	ff180023          	sb	a7,-32(a6)
    800005f4:	00178793          	addi	a5,a5,1
    800005f8:	e89ff06f          	j	80000480 <_ntoa_long+0xe8>
    800005fc:	e5c7f2e3          	bgeu	a5,t3,80000440 <_ntoa_long+0xa8>
    80000600:	02000313          	li	t1,32
    80000604:	ee6796e3          	bne	a5,t1,800004f0 <_ntoa_long+0x158>
    80000608:	e2091ee3          	bnez	s2,80000444 <_ntoa_long+0xac>
    8000060c:	02000793          	li	a5,32
    80000610:	e71ff06f          	j	80000480 <_ntoa_long+0xe8>
    80000614:	02010813          	addi	a6,sp,32
    80000618:	00f80833          	add	a6,a6,a5
    8000061c:	02b00893          	li	a7,43
    80000620:	ff180023          	sb	a7,-32(a6)
    80000624:	00178793          	addi	a5,a5,1
    80000628:	e59ff06f          	j	80000480 <_ntoa_long+0xe8>
    8000062c:	02000813          	li	a6,32
    80000630:	e50788e3          	beq	a5,a6,80000480 <_ntoa_long+0xe8>
    80000634:	00f70833          	add	a6,a4,a5
    80000638:	00178793          	addi	a5,a5,1
    8000063c:	0280006f          	j	80000664 <_ntoa_long+0x2cc>
    80000640:	fff9899b          	addiw	s3,s3,-1
    80000644:	f71ff06f          	j	800005b4 <_ntoa_long+0x21c>
    80000648:	fff78813          	addi	a6,a5,-1
    8000064c:	e00800e3          	beqz	a6,8000044c <_ntoa_long+0xb4>
    80000650:	01000893          	li	a7,16
    80000654:	091e8c63          	beq	t4,a7,800006ec <_ntoa_long+0x354>
    80000658:	00200893          	li	a7,2
    8000065c:	f31e92e3          	bne	t4,a7,80000580 <_ntoa_long+0x1e8>
    80000660:	01070833          	add	a6,a4,a6
    80000664:	06200893          	li	a7,98
    80000668:	01180023          	sb	a7,0(a6)
    8000066c:	f09ff06f          	j	80000574 <_ntoa_long+0x1dc>
    80000670:	0200f813          	andi	a6,ra,32
    80000674:	02080e63          	beqz	a6,800006b0 <_ntoa_long+0x318>
    80000678:	02000813          	li	a6,32
    8000067c:	e10782e3          	beq	a5,a6,80000480 <_ntoa_long+0xe8>
    80000680:	02010813          	addi	a6,sp,32
    80000684:	00f80833          	add	a6,a6,a5
    80000688:	05800893          	li	a7,88
    8000068c:	00178793          	addi	a5,a5,1
    80000690:	ff180023          	sb	a7,-32(a6)
    80000694:	ee1ff06f          	j	80000574 <_ntoa_long+0x1dc>
    80000698:	0200f793          	andi	a5,ra,32
    8000069c:	02079863          	bnez	a5,800006cc <_ntoa_long+0x334>
    800006a0:	07800793          	li	a5,120
    800006a4:	00f10023          	sb	a5,0(sp)
    800006a8:	00100813          	li	a6,1
    800006ac:	ed5ff06f          	j	80000580 <_ntoa_long+0x1e8>
    800006b0:	02000813          	li	a6,32
    800006b4:	dd0786e3          	beq	a5,a6,80000480 <_ntoa_long+0xe8>
    800006b8:	00f708b3          	add	a7,a4,a5
    800006bc:	00178793          	addi	a5,a5,1
    800006c0:	07800813          	li	a6,120
    800006c4:	01088023          	sb	a6,0(a7)
    800006c8:	eadff06f          	j	80000574 <_ntoa_long+0x1dc>
    800006cc:	05800793          	li	a5,88
    800006d0:	00f10023          	sb	a5,0(sp)
    800006d4:	00100813          	li	a6,1
    800006d8:	ea9ff06f          	j	80000580 <_ntoa_long+0x1e8>
    800006dc:	06200793          	li	a5,98
    800006e0:	00f10023          	sb	a5,0(sp)
    800006e4:	00100813          	li	a6,1
    800006e8:	e99ff06f          	j	80000580 <_ntoa_long+0x1e8>
    800006ec:	0200f893          	andi	a7,ra,32
    800006f0:	ffe78793          	addi	a5,a5,-2
    800006f4:	f80896e3          	bnez	a7,80000680 <_ntoa_long+0x2e8>
    800006f8:	00f708b3          	add	a7,a4,a5
    800006fc:	00080793          	mv	a5,a6
    80000700:	fc1ff06f          	j	800006c0 <_ntoa_long+0x328>

Disassembly of section .text._out_char:

0000000080000704 <_out_char>:
    80000704:	00051463          	bnez	a0,8000070c <_out_char+0x8>
    80000708:	00008067          	ret
    8000070c:	acdff06f          	j	800001d8 <_putc>

Disassembly of section .text._ftoa:

0000000080000710 <_ftoa>:
    80000710:	a2a52353          	feq.d	t1,fa0,fa0
    80000714:	00080893          	mv	a7,a6
    80000718:	1e030c63          	beqz	t1,80000910 <_ftoa+0x200>
    8000071c:	00001817          	auipc	a6,0x1
    80000720:	3a483787          	fld	fa5,932(a6) # 80001ac0 <pow10.0+0x50>
    80000724:	a2f51853          	flt.d	a6,fa0,fa5
    80000728:	2e081463          	bnez	a6,80000a10 <_ftoa+0x300>
    8000072c:	fc010113          	addi	sp,sp,-64
    80000730:	02813823          	sd	s0,48(sp)
    80000734:	00068413          	mv	s0,a3
    80000738:	00001697          	auipc	a3,0x1
    8000073c:	3906b787          	fld	fa5,912(a3) # 80001ac8 <pow10.0+0x58>
    80000740:	a2a796d3          	flt.d	a3,fa5,fa0
    80000744:	02113c23          	sd	ra,56(sp)
    80000748:	02913423          	sd	s1,40(sp)
    8000074c:	00050f93          	mv	t6,a0
    80000750:	00058293          	mv	t0,a1
    80000754:	00060393          	mv	t2,a2
    80000758:	16069c63          	bnez	a3,800008d0 <_ftoa+0x1c0>
    8000075c:	00001697          	auipc	a3,0x1
    80000760:	3746b787          	fld	fa5,884(a3) # 80001ad0 <pow10.0+0x60>
    80000764:	a2a796d3          	flt.d	a3,fa5,fa0
    80000768:	28069063          	bnez	a3,800009e8 <_ftoa+0x2d8>
    8000076c:	00001697          	auipc	a3,0x1
    80000770:	36c6b787          	fld	fa5,876(a3) # 80001ad8 <pow10.0+0x68>
    80000774:	a2f516d3          	flt.d	a3,fa0,fa5
    80000778:	26069863          	bnez	a3,800009e8 <_ftoa+0x2d8>
    8000077c:	f20007d3          	fmv.d.x	fa5,zero
    80000780:	00000513          	li	a0,0
    80000784:	a2f516d3          	flt.d	a3,fa0,fa5
    80000788:	24069a63          	bnez	a3,800009dc <_ftoa+0x2cc>
    8000078c:	4008f693          	andi	a3,a7,1024
    80000790:	00069463          	bnez	a3,80000798 <_ftoa+0x88>
    80000794:	00600713          	li	a4,6
    80000798:	00000313          	li	t1,0
    8000079c:	00900693          	li	a3,9
    800007a0:	03000593          	li	a1,48
    800007a4:	02000613          	li	a2,32
    800007a8:	00e6fc63          	bgeu	a3,a4,800007c0 <_ftoa+0xb0>
    800007ac:	00130313          	addi	t1,t1,1
    800007b0:	00610e33          	add	t3,sp,t1
    800007b4:	febe0fa3          	sb	a1,-1(t3)
    800007b8:	fff7071b          	addiw	a4,a4,-1
    800007bc:	fec316e3          	bne	t1,a2,800007a8 <_ftoa+0x98>
    800007c0:	c2051653          	fcvt.w.d	a2,fa0,rtz
    800007c4:	02071693          	slli	a3,a4,0x20
    800007c8:	01d6d593          	srli	a1,a3,0x1d
    800007cc:	d20607d3          	fcvt.d.w	fa5,a2
    800007d0:	00001697          	auipc	a3,0x1
    800007d4:	2a068693          	addi	a3,a3,672 # 80001a70 <pow10.0>
    800007d8:	00b686b3          	add	a3,a3,a1
    800007dc:	0af577d3          	fsub.d	fa5,fa0,fa5
    800007e0:	0006b687          	fld	fa3,0(a3)
    800007e4:	00001697          	auipc	a3,0x1
    800007e8:	2fc6b707          	fld	fa4,764(a3) # 80001ae0 <pow10.0+0x70>
    800007ec:	00060e1b          	sext.w	t3,a2
    800007f0:	12d7f7d3          	fmul.d	fa5,fa5,fa3
    800007f4:	c2379f53          	fcvt.lu.d	t5,fa5,rtz
    800007f8:	d23f7653          	fcvt.d.lu	fa2,t5
    800007fc:	0ac7f7d3          	fsub.d	fa5,fa5,fa2
    80000800:	a2f716d3          	flt.d	a3,fa4,fa5
    80000804:	12068063          	beqz	a3,80000924 <_ftoa+0x214>
    80000808:	001f0f13          	addi	t5,t5,1
    8000080c:	d23f77d3          	fcvt.d.lu	fa5,t5
    80000810:	a2f686d3          	fle.d	a3,fa3,fa5
    80000814:	00068663          	beqz	a3,80000820 <_ftoa+0x110>
    80000818:	00160e1b          	addiw	t3,a2,1
    8000081c:	00000f13          	li	t5,0
    80000820:	10071c63          	bnez	a4,80000938 <_ftoa+0x228>
    80000824:	d20e07d3          	fcvt.d.w	fa5,t3
    80000828:	0af57553          	fsub.d	fa0,fa0,fa5
    8000082c:	a2e51753          	flt.d	a4,fa0,fa4
    80000830:	00070663          	beqz	a4,8000083c <_ftoa+0x12c>
    80000834:	a2a71753          	flt.d	a4,fa4,fa0
    80000838:	00070863          	beqz	a4,80000848 <_ftoa+0x138>
    8000083c:	001e7713          	andi	a4,t3,1
    80000840:	00070463          	beqz	a4,80000848 <_ftoa+0x138>
    80000844:	001e0e1b          	addiw	t3,t3,1
    80000848:	02000613          	li	a2,32
    8000084c:	00a00813          	li	a6,10
    80000850:	12c30663          	beq	t1,a2,8000097c <_ftoa+0x26c>
    80000854:	030e673b          	remw	a4,t3,a6
    80000858:	00130313          	addi	t1,t1,1
    8000085c:	006106b3          	add	a3,sp,t1
    80000860:	030e4e3b          	divw	t3,t3,a6
    80000864:	0307071b          	addiw	a4,a4,48
    80000868:	fee68fa3          	sb	a4,-1(a3)
    8000086c:	fe0e12e3          	bnez	t3,80000850 <_ftoa+0x140>
    80000870:	0038f713          	andi	a4,a7,3
    80000874:	00100693          	li	a3,1
    80000878:	10d70863          	beq	a4,a3,80000988 <_ftoa+0x278>
    8000087c:	01f00713          	li	a4,31
    80000880:	00676e63          	bltu	a4,t1,8000089c <_ftoa+0x18c>
    80000884:	1a050063          	beqz	a0,80000a24 <_ftoa+0x314>
    80000888:	02010713          	addi	a4,sp,32
    8000088c:	00670733          	add	a4,a4,t1
    80000890:	02d00693          	li	a3,45
    80000894:	fed70023          	sb	a3,-32(a4)
    80000898:	00130313          	addi	t1,t1,1
    8000089c:	00078813          	mv	a6,a5
    800008a0:	00010713          	mv	a4,sp
    800008a4:	00040693          	mv	a3,s0
    800008a8:	00030793          	mv	a5,t1
    800008ac:	00038613          	mv	a2,t2
    800008b0:	00028593          	mv	a1,t0
    800008b4:	000f8513          	mv	a0,t6
    800008b8:	9a5ff0ef          	jal	ra,8000025c <_out_rev>
    800008bc:	03813083          	ld	ra,56(sp)
    800008c0:	03013403          	ld	s0,48(sp)
    800008c4:	02813483          	ld	s1,40(sp)
    800008c8:	04010113          	addi	sp,sp,64
    800008cc:	00008067          	ret
    800008d0:	0048f713          	andi	a4,a7,4
    800008d4:	0e071c63          	bnez	a4,800009cc <_ftoa+0x2bc>
    800008d8:	00001717          	auipc	a4,0x1
    800008dc:	f9870713          	addi	a4,a4,-104 # 80001870 <__am_mainargs+0x3>
    800008e0:	00300693          	li	a3,3
    800008e4:	00078813          	mv	a6,a5
    800008e8:	00068793          	mv	a5,a3
    800008ec:	00040693          	mv	a3,s0
    800008f0:	03013403          	ld	s0,48(sp)
    800008f4:	03813083          	ld	ra,56(sp)
    800008f8:	02813483          	ld	s1,40(sp)
    800008fc:	00038613          	mv	a2,t2
    80000900:	00028593          	mv	a1,t0
    80000904:	000f8513          	mv	a0,t6
    80000908:	04010113          	addi	sp,sp,64
    8000090c:	951ff06f          	j	8000025c <_out_rev>
    80000910:	00078813          	mv	a6,a5
    80000914:	00001717          	auipc	a4,0x1
    80000918:	f6c70713          	addi	a4,a4,-148 # 80001880 <__am_mainargs+0x13>
    8000091c:	00300793          	li	a5,3
    80000920:	93dff06f          	j	8000025c <_out_rev>
    80000924:	a2e796d3          	flt.d	a3,fa5,fa4
    80000928:	ee069ce3          	bnez	a3,80000820 <_ftoa+0x110>
    8000092c:	160f1a63          	bnez	t5,80000aa0 <_ftoa+0x390>
    80000930:	001f0f13          	addi	t5,t5,1
    80000934:	ee0708e3          	beqz	a4,80000824 <_ftoa+0x114>
    80000938:	fe07009b          	addiw	ra,a4,-32
    8000093c:	006080bb          	addw	ra,ra,t1
    80000940:	00a00613          	li	a2,10
    80000944:	00900493          	li	s1,9
    80000948:	0280006f          	j	80000970 <_ftoa+0x260>
    8000094c:	02cf76b3          	remu	a3,t5,a2
    80000950:	fff7081b          	addiw	a6,a4,-1
    80000954:	0306869b          	addiw	a3,a3,48
    80000958:	fed58fa3          	sb	a3,-1(a1)
    8000095c:	02cf56b3          	divu	a3,t5,a2
    80000960:	0fe4f663          	bgeu	s1,t5,80000a4c <_ftoa+0x33c>
    80000964:	00080713          	mv	a4,a6
    80000968:	000e8313          	mv	t1,t4
    8000096c:	00068f13          	mv	t5,a3
    80000970:	00130e93          	addi	t4,t1,1
    80000974:	01d105b3          	add	a1,sp,t4
    80000978:	fc171ae3          	bne	a4,ra,8000094c <_ftoa+0x23c>
    8000097c:	0038f713          	andi	a4,a7,3
    80000980:	00100693          	li	a3,1
    80000984:	f0d71ce3          	bne	a4,a3,8000089c <_ftoa+0x18c>
    80000988:	ee078ae3          	beqz	a5,8000087c <_ftoa+0x16c>
    8000098c:	12051e63          	bnez	a0,80000ac8 <_ftoa+0x3b8>
    80000990:	00c8f713          	andi	a4,a7,12
    80000994:	12071a63          	bnez	a4,80000ac8 <_ftoa+0x3b8>
    80000998:	02079693          	slli	a3,a5,0x20
    8000099c:	0206d693          	srli	a3,a3,0x20
    800009a0:	ecd37ee3          	bgeu	t1,a3,8000087c <_ftoa+0x16c>
    800009a4:	01f00713          	li	a4,31
    800009a8:	03000593          	li	a1,48
    800009ac:	02000613          	li	a2,32
    800009b0:	ee6766e3          	bltu	a4,t1,8000089c <_ftoa+0x18c>
    800009b4:	00130313          	addi	t1,t1,1
    800009b8:	00610733          	add	a4,sp,t1
    800009bc:	feb70fa3          	sb	a1,-1(a4)
    800009c0:	ead30ee3          	beq	t1,a3,8000087c <_ftoa+0x16c>
    800009c4:	fec318e3          	bne	t1,a2,800009b4 <_ftoa+0x2a4>
    800009c8:	ed5ff06f          	j	8000089c <_ftoa+0x18c>
    800009cc:	00001717          	auipc	a4,0x1
    800009d0:	eac70713          	addi	a4,a4,-340 # 80001878 <__am_mainargs+0xb>
    800009d4:	00400693          	li	a3,4
    800009d8:	f0dff06f          	j	800008e4 <_ftoa+0x1d4>
    800009dc:	0aa7f553          	fsub.d	fa0,fa5,fa0
    800009e0:	00100513          	li	a0,1
    800009e4:	da9ff06f          	j	8000078c <_ftoa+0x7c>
    800009e8:	00040693          	mv	a3,s0
    800009ec:	03013403          	ld	s0,48(sp)
    800009f0:	03813083          	ld	ra,56(sp)
    800009f4:	02813483          	ld	s1,40(sp)
    800009f8:	00088813          	mv	a6,a7
    800009fc:	00038613          	mv	a2,t2
    80000a00:	00028593          	mv	a1,t0
    80000a04:	000f8513          	mv	a0,t6
    80000a08:	04010113          	addi	sp,sp,64
    80000a0c:	0d40006f          	j	80000ae0 <_etoa>
    80000a10:	00078813          	mv	a6,a5
    80000a14:	00001717          	auipc	a4,0x1
    80000a18:	e7470713          	addi	a4,a4,-396 # 80001888 <__am_mainargs+0x1b>
    80000a1c:	00400793          	li	a5,4
    80000a20:	83dff06f          	j	8000025c <_out_rev>
    80000a24:	0048f713          	andi	a4,a7,4
    80000a28:	08071463          	bnez	a4,80000ab0 <_ftoa+0x3a0>
    80000a2c:	0088f713          	andi	a4,a7,8
    80000a30:	e60706e3          	beqz	a4,8000089c <_ftoa+0x18c>
    80000a34:	02010713          	addi	a4,sp,32
    80000a38:	00670733          	add	a4,a4,t1
    80000a3c:	02000693          	li	a3,32
    80000a40:	fed70023          	sb	a3,-32(a4)
    80000a44:	00130313          	addi	t1,t1,1
    80000a48:	e55ff06f          	j	8000089c <_ftoa+0x18c>
    80000a4c:	02000693          	li	a3,32
    80000a50:	08de8463          	beq	t4,a3,80000ad8 <_ftoa+0x3c8>
    80000a54:	ffe7071b          	addiw	a4,a4,-2
    80000a58:	06080c63          	beqz	a6,80000ad0 <_ftoa+0x3c0>
    80000a5c:	02071713          	slli	a4,a4,0x20
    80000a60:	00230313          	addi	t1,t1,2
    80000a64:	02075713          	srli	a4,a4,0x20
    80000a68:	00e30733          	add	a4,t1,a4
    80000a6c:	03000593          	li	a1,48
    80000a70:	02000613          	li	a2,32
    80000a74:	001e8e93          	addi	t4,t4,1
    80000a78:	01d106b3          	add	a3,sp,t4
    80000a7c:	feb68fa3          	sb	a1,-1(a3)
    80000a80:	04ce8c63          	beq	t4,a2,80000ad8 <_ftoa+0x3c8>
    80000a84:	feee98e3          	bne	t4,a4,80000a74 <_ftoa+0x364>
    80000a88:	02010693          	addi	a3,sp,32
    80000a8c:	00e686b3          	add	a3,a3,a4
    80000a90:	00170313          	addi	t1,a4,1
    80000a94:	02e00713          	li	a4,46
    80000a98:	fee68023          	sb	a4,-32(a3)
    80000a9c:	dadff06f          	j	80000848 <_ftoa+0x138>
    80000aa0:	001f7693          	andi	a3,t5,1
    80000aa4:	d6068ee3          	beqz	a3,80000820 <_ftoa+0x110>
    80000aa8:	001f0f13          	addi	t5,t5,1
    80000aac:	e89ff06f          	j	80000934 <_ftoa+0x224>
    80000ab0:	02010713          	addi	a4,sp,32
    80000ab4:	00670733          	add	a4,a4,t1
    80000ab8:	02b00693          	li	a3,43
    80000abc:	fed70023          	sb	a3,-32(a4)
    80000ac0:	00130313          	addi	t1,t1,1
    80000ac4:	dd9ff06f          	j	8000089c <_ftoa+0x18c>
    80000ac8:	fff7879b          	addiw	a5,a5,-1
    80000acc:	ecdff06f          	j	80000998 <_ftoa+0x288>
    80000ad0:	000e8713          	mv	a4,t4
    80000ad4:	fb5ff06f          	j	80000a88 <_ftoa+0x378>
    80000ad8:	02000313          	li	t1,32
    80000adc:	ea1ff06f          	j	8000097c <_ftoa+0x26c>

Disassembly of section .text._etoa:

0000000080000ae0 <_etoa>:
    80000ae0:	a2a528d3          	feq.d	a7,fa0,fa0
    80000ae4:	f9010113          	addi	sp,sp,-112
    80000ae8:	06813023          	sd	s0,96(sp)
    80000aec:	04913c23          	sd	s1,88(sp)
    80000af0:	05213823          	sd	s2,80(sp)
    80000af4:	05413023          	sd	s4,64(sp)
    80000af8:	03613823          	sd	s6,48(sp)
    80000afc:	03713423          	sd	s7,40(sp)
    80000b00:	06113423          	sd	ra,104(sp)
    80000b04:	05313423          	sd	s3,72(sp)
    80000b08:	03513c23          	sd	s5,56(sp)
    80000b0c:	03813023          	sd	s8,32(sp)
    80000b10:	01913c23          	sd	s9,24(sp)
    80000b14:	00050b13          	mv	s6,a0
    80000b18:	00058493          	mv	s1,a1
    80000b1c:	00060b93          	mv	s7,a2
    80000b20:	00068913          	mv	s2,a3
    80000b24:	00078a13          	mv	s4,a5
    80000b28:	00080413          	mv	s0,a6
    80000b2c:	2e088463          	beqz	a7,80000e14 <_etoa+0x334>
    80000b30:	00001797          	auipc	a5,0x1
    80000b34:	f987b787          	fld	fa5,-104(a5) # 80001ac8 <pow10.0+0x58>
    80000b38:	a2a797d3          	flt.d	a5,fa5,fa0
    80000b3c:	2c079c63          	bnez	a5,80000e14 <_etoa+0x334>
    80000b40:	00001797          	auipc	a5,0x1
    80000b44:	f807b787          	fld	fa5,-128(a5) # 80001ac0 <pow10.0+0x50>
    80000b48:	a2f517d3          	flt.d	a5,fa0,fa5
    80000b4c:	2c079463          	bnez	a5,80000e14 <_etoa+0x334>
    80000b50:	f20007d3          	fmv.d.x	fa5,zero
    80000b54:	e20506d3          	fmv.x.d	a3,fa0
    80000b58:	a2f517d3          	flt.d	a5,fa0,fa5
    80000b5c:	00078663          	beqz	a5,80000b68 <_etoa+0x88>
    80000b60:	22a517d3          	fneg.d	fa5,fa0
    80000b64:	e20786d3          	fmv.x.d	a3,fa5
    80000b68:	40047613          	andi	a2,s0,1024
    80000b6c:	00061463          	bnez	a2,80000b74 <_etoa+0x94>
    80000b70:	00600713          	li	a4,6
    80000b74:	0346d793          	srli	a5,a3,0x34
    80000b78:	7ff7f793          	andi	a5,a5,2047
    80000b7c:	00001597          	auipc	a1,0x1
    80000b80:	f6c5b707          	fld	fa4,-148(a1) # 80001ae8 <pow10.0+0x78>
    80000b84:	00001597          	auipc	a1,0x1
    80000b88:	f6c5b787          	fld	fa5,-148(a1) # 80001af0 <pow10.0+0x80>
    80000b8c:	c017879b          	addiw	a5,a5,-1023
    80000b90:	d2078653          	fcvt.d.w	fa2,a5
    80000b94:	3ff00593          	li	a1,1023
    80000b98:	00c69793          	slli	a5,a3,0xc
    80000b9c:	03459593          	slli	a1,a1,0x34
    80000ba0:	00c7d793          	srli	a5,a5,0xc
    80000ba4:	00b7e7b3          	or	a5,a5,a1
    80000ba8:	7ae67643          	fmadd.d	fa2,fa2,fa4,fa5
    80000bac:	f20787d3          	fmv.d.x	fa5,a5
    80000bb0:	00001597          	auipc	a1,0x1
    80000bb4:	f485b687          	fld	fa3,-184(a1) # 80001af8 <pow10.0+0x88>
    80000bb8:	00001797          	auipc	a5,0x1
    80000bbc:	f507b587          	fld	fa1,-176(a5) # 80001b08 <pow10.0+0x98>
    80000bc0:	0ad7f6d3          	fsub.d	fa3,fa5,fa3
    80000bc4:	00001797          	auipc	a5,0x1
    80000bc8:	f3c7b787          	fld	fa5,-196(a5) # 80001b00 <pow10.0+0x90>
    80000bcc:	00001797          	auipc	a5,0x1
    80000bd0:	f147b287          	fld	ft5,-236(a5) # 80001ae0 <pow10.0+0x70>
    80000bd4:	00001797          	auipc	a5,0x1
    80000bd8:	f3c7b207          	fld	ft4,-196(a5) # 80001b10 <pow10.0+0xa0>
    80000bdc:	00001797          	auipc	a5,0x1
    80000be0:	f3c7b187          	fld	ft3,-196(a5) # 80001b18 <pow10.0+0xa8>
    80000be4:	00001797          	auipc	a5,0x1
    80000be8:	f3c7b707          	fld	fa4,-196(a5) # 80001b20 <pow10.0+0xb0>
    80000bec:	00001797          	auipc	a5,0x1
    80000bf0:	f3c7b007          	fld	ft0,-196(a5) # 80001b28 <pow10.0+0xb8>
    80000bf4:	62f6f6c3          	fmadd.d	fa3,fa3,fa5,fa2
    80000bf8:	00001797          	auipc	a5,0x1
    80000bfc:	f387b107          	fld	ft2,-200(a5) # 80001b30 <pow10.0+0xc0>
    80000c00:	00001797          	auipc	a5,0x1
    80000c04:	f387b607          	fld	fa2,-200(a5) # 80001b38 <pow10.0+0xc8>
    80000c08:	00001797          	auipc	a5,0x1
    80000c0c:	f387b087          	fld	ft1,-200(a5) # 80001b40 <pow10.0+0xd0>
    80000c10:	c20695d3          	fcvt.w.d	a1,fa3,rtz
    80000c14:	d20587d3          	fcvt.d.w	fa5,a1
    80000c18:	00058c1b          	sext.w	s8,a1
    80000c1c:	2ab7f5c3          	fmadd.d	fa1,fa5,fa1,ft5
    80000c20:	c20597d3          	fcvt.w.d	a5,fa1,rtz
    80000c24:	d20786d3          	fcvt.d.w	fa3,a5
    80000c28:	3ff7879b          	addiw	a5,a5,1023
    80000c2c:	03479793          	slli	a5,a5,0x34
    80000c30:	1246f6d3          	fmul.d	fa3,fa3,ft4
    80000c34:	6a37f7c7          	fmsub.d	fa5,fa5,ft3,fa3
    80000c38:	12f7f6d3          	fmul.d	fa3,fa5,fa5
    80000c3c:	0af67653          	fsub.d	fa2,fa2,fa5
    80000c40:	02f7f7d3          	fadd.d	fa5,fa5,fa5
    80000c44:	1ae6f753          	fdiv.d	fa4,fa3,fa4
    80000c48:	02077753          	fadd.d	fa4,fa4,ft0
    80000c4c:	1ae6f753          	fdiv.d	fa4,fa3,fa4
    80000c50:	02277753          	fadd.d	fa4,fa4,ft2
    80000c54:	1ae6f6d3          	fdiv.d	fa3,fa3,fa4
    80000c58:	f2078753          	fmv.d.x	fa4,a5
    80000c5c:	02c6f6d3          	fadd.d	fa3,fa3,fa2
    80000c60:	1ad7f7d3          	fdiv.d	fa5,fa5,fa3
    80000c64:	0217f7d3          	fadd.d	fa5,fa5,ft1
    80000c68:	12e7f7d3          	fmul.d	fa5,fa5,fa4
    80000c6c:	f2068753          	fmv.d.x	fa4,a3
    80000c70:	a2f717d3          	flt.d	a5,fa4,fa5
    80000c74:	00078663          	beqz	a5,80000c80 <_etoa+0x1a0>
    80000c78:	1a07f7d3          	fdiv.d	fa5,fa5,ft0
    80000c7c:	fff58c1b          	addiw	s8,a1,-1
    80000c80:	063c0c9b          	addiw	s9,s8,99
    80000c84:	00b45793          	srli	a5,s0,0xb
    80000c88:	0c600593          	li	a1,198
    80000c8c:	0195bcb3          	sltu	s9,a1,s9
    80000c90:	0017f793          	andi	a5,a5,1
    80000c94:	004c8c93          	addi	s9,s9,4
    80000c98:	04078463          	beqz	a5,80000ce0 <_etoa+0x200>
    80000c9c:	f20686d3          	fmv.d.x	fa3,a3
    80000ca0:	00001797          	auipc	a5,0x1
    80000ca4:	ea87b707          	fld	fa4,-344(a5) # 80001b48 <pow10.0+0xd8>
    80000ca8:	a2d707d3          	fle.d	a5,fa4,fa3
    80000cac:	1c078263          	beqz	a5,80000e70 <_etoa+0x390>
    80000cb0:	00001797          	auipc	a5,0x1
    80000cb4:	ea07b707          	fld	fa4,-352(a5) # 80001b50 <pow10.0+0xe0>
    80000cb8:	a2e697d3          	flt.d	a5,fa3,fa4
    80000cbc:	1a078a63          	beqz	a5,80000e70 <_etoa+0x390>
    80000cc0:	0007079b          	sext.w	a5,a4
    80000cc4:	00000713          	li	a4,0
    80000cc8:	00fc5663          	bge	s8,a5,80000cd4 <_etoa+0x1f4>
    80000ccc:	4187873b          	subw	a4,a5,s8
    80000cd0:	fff7071b          	addiw	a4,a4,-1
    80000cd4:	40046413          	ori	s0,s0,1024
    80000cd8:	00000c93          	li	s9,0
    80000cdc:	00000c13          	li	s8,0
    80000ce0:	00000793          	li	a5,0
    80000ce4:	014cf463          	bgeu	s9,s4,80000cec <_etoa+0x20c>
    80000ce8:	419a07bb          	subw	a5,s4,s9
    80000cec:	00247a93          	andi	s5,s0,2
    80000cf0:	000a8863          	beqz	s5,80000d00 <_etoa+0x220>
    80000cf4:	001cb613          	seqz	a2,s9
    80000cf8:	40c00633          	neg	a2,a2
    80000cfc:	00c7f7b3          	and	a5,a5,a2
    80000d00:	160c1063          	bnez	s8,80000e60 <_etoa+0x380>
    80000d04:	f20007d3          	fmv.d.x	fa5,zero
    80000d08:	a2f51653          	flt.d	a2,fa0,fa5
    80000d0c:	00060863          	beqz	a2,80000d1c <_etoa+0x23c>
    80000d10:	f20687d3          	fmv.d.x	fa5,a3
    80000d14:	22f797d3          	fneg.d	fa5,fa5
    80000d18:	e20786d3          	fmv.x.d	a3,fa5
    80000d1c:	f2068553          	fmv.d.x	fa0,a3
    80000d20:	fffff837          	lui	a6,0xfffff
    80000d24:	7ff80813          	addi	a6,a6,2047 # fffffffffffff7ff <_pmem_end+0xffffffff77fff7ff>
    80000d28:	01047833          	and	a6,s0,a6
    80000d2c:	00090693          	mv	a3,s2
    80000d30:	000b8613          	mv	a2,s7
    80000d34:	00048593          	mv	a1,s1
    80000d38:	000b0513          	mv	a0,s6
    80000d3c:	9d5ff0ef          	jal	ra,80000710 <_ftoa>
    80000d40:	00050993          	mv	s3,a0
    80000d44:	080c8c63          	beqz	s9,80000ddc <_etoa+0x2fc>
    80000d48:	02047413          	andi	s0,s0,32
    80000d4c:	04500513          	li	a0,69
    80000d50:	00041463          	bnez	s0,80000d58 <_etoa+0x278>
    80000d54:	06500513          	li	a0,101
    80000d58:	00098613          	mv	a2,s3
    80000d5c:	00090693          	mv	a3,s2
    80000d60:	00048593          	mv	a1,s1
    80000d64:	000b00e7          	jalr	s6
    80000d68:	41fc571b          	sraiw	a4,s8,0x1f
    80000d6c:	00ec46b3          	xor	a3,s8,a4
    80000d70:	00500793          	li	a5,5
    80000d74:	fffc8c9b          	addiw	s9,s9,-1
    80000d78:	00198613          	addi	a2,s3,1
    80000d7c:	00f13423          	sd	a5,8(sp)
    80000d80:	40e6873b          	subw	a4,a3,a4
    80000d84:	01913023          	sd	s9,0(sp)
    80000d88:	00000893          	li	a7,0
    80000d8c:	00a00813          	li	a6,10
    80000d90:	01fc579b          	srliw	a5,s8,0x1f
    80000d94:	00090693          	mv	a3,s2
    80000d98:	00048593          	mv	a1,s1
    80000d9c:	000b0513          	mv	a0,s6
    80000da0:	df8ff0ef          	jal	ra,80000398 <_ntoa_long>
    80000da4:	00050993          	mv	s3,a0
    80000da8:	020a8a63          	beqz	s5,80000ddc <_etoa+0x2fc>
    80000dac:	020a1a13          	slli	s4,s4,0x20
    80000db0:	41750bb3          	sub	s7,a0,s7
    80000db4:	020a5a13          	srli	s4,s4,0x20
    80000db8:	034bf263          	bgeu	s7,s4,80000ddc <_etoa+0x2fc>
    80000dbc:	00098613          	mv	a2,s3
    80000dc0:	001b8b93          	addi	s7,s7,1
    80000dc4:	00090693          	mv	a3,s2
    80000dc8:	00048593          	mv	a1,s1
    80000dcc:	02000513          	li	a0,32
    80000dd0:	00198993          	addi	s3,s3,1
    80000dd4:	000b00e7          	jalr	s6
    80000dd8:	ff4be2e3          	bltu	s7,s4,80000dbc <_etoa+0x2dc>
    80000ddc:	06813083          	ld	ra,104(sp)
    80000de0:	06013403          	ld	s0,96(sp)
    80000de4:	05813483          	ld	s1,88(sp)
    80000de8:	05013903          	ld	s2,80(sp)
    80000dec:	04013a03          	ld	s4,64(sp)
    80000df0:	03813a83          	ld	s5,56(sp)
    80000df4:	03013b03          	ld	s6,48(sp)
    80000df8:	02813b83          	ld	s7,40(sp)
    80000dfc:	02013c03          	ld	s8,32(sp)
    80000e00:	01813c83          	ld	s9,24(sp)
    80000e04:	00098513          	mv	a0,s3
    80000e08:	04813983          	ld	s3,72(sp)
    80000e0c:	07010113          	addi	sp,sp,112
    80000e10:	00008067          	ret
    80000e14:	00040813          	mv	a6,s0
    80000e18:	06013403          	ld	s0,96(sp)
    80000e1c:	06813083          	ld	ra,104(sp)
    80000e20:	04813983          	ld	s3,72(sp)
    80000e24:	03813a83          	ld	s5,56(sp)
    80000e28:	02013c03          	ld	s8,32(sp)
    80000e2c:	01813c83          	ld	s9,24(sp)
    80000e30:	000a0793          	mv	a5,s4
    80000e34:	00090693          	mv	a3,s2
    80000e38:	04013a03          	ld	s4,64(sp)
    80000e3c:	05013903          	ld	s2,80(sp)
    80000e40:	000b8613          	mv	a2,s7
    80000e44:	00048593          	mv	a1,s1
    80000e48:	02813b83          	ld	s7,40(sp)
    80000e4c:	05813483          	ld	s1,88(sp)
    80000e50:	000b0513          	mv	a0,s6
    80000e54:	03013b03          	ld	s6,48(sp)
    80000e58:	07010113          	addi	sp,sp,112
    80000e5c:	8b5ff06f          	j	80000710 <_ftoa>
    80000e60:	f2068753          	fmv.d.x	fa4,a3
    80000e64:	1af777d3          	fdiv.d	fa5,fa4,fa5
    80000e68:	e20786d3          	fmv.x.d	a3,fa5
    80000e6c:	e99ff06f          	j	80000d04 <_etoa+0x224>
    80000e70:	e60708e3          	beqz	a4,80000ce0 <_etoa+0x200>
    80000e74:	e60606e3          	beqz	a2,80000ce0 <_etoa+0x200>
    80000e78:	fff7071b          	addiw	a4,a4,-1
    80000e7c:	e65ff06f          	j	80000ce0 <_etoa+0x200>

Disassembly of section .text._vsnprintf:

0000000080000e80 <_vsnprintf>:
    80000e80:	f6010113          	addi	sp,sp,-160
    80000e84:	08913423          	sd	s1,136(sp)
    80000e88:	09213023          	sd	s2,128(sp)
    80000e8c:	07313c23          	sd	s3,120(sp)
    80000e90:	07413823          	sd	s4,112(sp)
    80000e94:	07613023          	sd	s6,96(sp)
    80000e98:	08113c23          	sd	ra,152(sp)
    80000e9c:	08813823          	sd	s0,144(sp)
    80000ea0:	07513423          	sd	s5,104(sp)
    80000ea4:	05713c23          	sd	s7,88(sp)
    80000ea8:	05813823          	sd	s8,80(sp)
    80000eac:	05913423          	sd	s9,72(sp)
    80000eb0:	05a13023          	sd	s10,64(sp)
    80000eb4:	03b13c23          	sd	s11,56(sp)
    80000eb8:	00058913          	mv	s2,a1
    80000ebc:	00060493          	mv	s1,a2
    80000ec0:	00068b13          	mv	s6,a3
    80000ec4:	00070a13          	mv	s4,a4
    80000ec8:	fffff997          	auipc	s3,0xfffff
    80000ecc:	39098993          	addi	s3,s3,912 # 80000258 <_out_null>
    80000ed0:	00058463          	beqz	a1,80000ed8 <_vsnprintf+0x58>
    80000ed4:	00050993          	mv	s3,a0
    80000ed8:	000b4503          	lbu	a0,0(s6)
    80000edc:	00000c13          	li	s8,0
    80000ee0:	68050063          	beqz	a0,80001560 <_vsnprintf+0x6e0>
    80000ee4:	000017b7          	lui	a5,0x1
    80000ee8:	80078793          	addi	a5,a5,-2048 # 800 <_start-0x7ffff800>
    80000eec:	00f13c23          	sd	a5,24(sp)
    80000ef0:	000107b7          	lui	a5,0x10
    80000ef4:	fff78793          	addi	a5,a5,-1 # ffff <_start-0x7fff0001>
    80000ef8:	00001b97          	auipc	s7,0x1
    80000efc:	998b8b93          	addi	s7,s7,-1640 # 80001890 <__am_mainargs+0x23>
    80000f00:	02f13023          	sd	a5,32(sp)
    80000f04:	0200006f          	j	80000f24 <_vsnprintf+0xa4>
    80000f08:	000c0613          	mv	a2,s8
    80000f0c:	00048693          	mv	a3,s1
    80000f10:	00090593          	mv	a1,s2
    80000f14:	001c0c13          	addi	s8,s8,1
    80000f18:	000980e7          	jalr	s3
    80000f1c:	000b4503          	lbu	a0,0(s6)
    80000f20:	1a050663          	beqz	a0,800010cc <_vsnprintf+0x24c>
    80000f24:	02500793          	li	a5,37
    80000f28:	001b0b13          	addi	s6,s6,1
    80000f2c:	fcf51ee3          	bne	a0,a5,80000f08 <_vsnprintf+0x88>
    80000f30:	00000813          	li	a6,0
    80000f34:	01000613          	li	a2,16
    80000f38:	000b4503          	lbu	a0,0(s6)
    80000f3c:	001b0713          	addi	a4,s6,1
    80000f40:	00070693          	mv	a3,a4
    80000f44:	fe05079b          	addiw	a5,a0,-32
    80000f48:	0ff7f793          	andi	a5,a5,255
    80000f4c:	00f66c63          	bltu	a2,a5,80000f64 <_vsnprintf+0xe4>
    80000f50:	00279793          	slli	a5,a5,0x2
    80000f54:	017787b3          	add	a5,a5,s7
    80000f58:	0007a783          	lw	a5,0(a5)
    80000f5c:	017787b3          	add	a5,a5,s7
    80000f60:	00078067          	jr	a5
    80000f64:	fd05079b          	addiw	a5,a0,-48
    80000f68:	0ff7f793          	andi	a5,a5,255
    80000f6c:	00900613          	li	a2,9
    80000f70:	0cf67e63          	bgeu	a2,a5,8000104c <_vsnprintf+0x1cc>
    80000f74:	02a00793          	li	a5,42
    80000f78:	1af50a63          	beq	a0,a5,8000112c <_vsnprintf+0x2ac>
    80000f7c:	000b0693          	mv	a3,s6
    80000f80:	00000a93          	li	s5,0
    80000f84:	00070b13          	mv	s6,a4
    80000f88:	02e00713          	li	a4,46
    80000f8c:	00000893          	li	a7,0
    80000f90:	10e50663          	beq	a0,a4,8000109c <_vsnprintf+0x21c>
    80000f94:	f985071b          	addiw	a4,a0,-104
    80000f98:	0ff77713          	andi	a4,a4,255
    80000f9c:	01200613          	li	a2,18
    80000fa0:	08e66063          	bltu	a2,a4,80001020 <_vsnprintf+0x1a0>
    80000fa4:	00001797          	auipc	a5,0x1
    80000fa8:	93078793          	addi	a5,a5,-1744 # 800018d4 <__am_mainargs+0x67>
    80000fac:	00271713          	slli	a4,a4,0x2
    80000fb0:	00f70733          	add	a4,a4,a5
    80000fb4:	00072703          	lw	a4,0(a4)
    80000fb8:	00f70733          	add	a4,a4,a5
    80000fbc:	00070067          	jr	a4
    80000fc0:	00186813          	ori	a6,a6,1
    80000fc4:	0008081b          	sext.w	a6,a6
    80000fc8:	00070b13          	mv	s6,a4
    80000fcc:	f6dff06f          	j	80000f38 <_vsnprintf+0xb8>
    80000fd0:	00286813          	ori	a6,a6,2
    80000fd4:	0008081b          	sext.w	a6,a6
    80000fd8:	00070b13          	mv	s6,a4
    80000fdc:	f5dff06f          	j	80000f38 <_vsnprintf+0xb8>
    80000fe0:	00486813          	ori	a6,a6,4
    80000fe4:	0008081b          	sext.w	a6,a6
    80000fe8:	00070b13          	mv	s6,a4
    80000fec:	f4dff06f          	j	80000f38 <_vsnprintf+0xb8>
    80000ff0:	01086813          	ori	a6,a6,16
    80000ff4:	0008081b          	sext.w	a6,a6
    80000ff8:	00070b13          	mv	s6,a4
    80000ffc:	f3dff06f          	j	80000f38 <_vsnprintf+0xb8>
    80001000:	00886813          	ori	a6,a6,8
    80001004:	0008081b          	sext.w	a6,a6
    80001008:	00070b13          	mv	s6,a4
    8000100c:	f2dff06f          	j	80000f38 <_vsnprintf+0xb8>
    80001010:	0016c503          	lbu	a0,1(a3)
    80001014:	10086813          	ori	a6,a6,256
    80001018:	0008081b          	sext.w	a6,a6
    8000101c:	001b0b13          	addi	s6,s6,1
    80001020:	fdb5071b          	addiw	a4,a0,-37
    80001024:	0ff77713          	andi	a4,a4,255
    80001028:	05300693          	li	a3,83
    8000102c:	ece6eee3          	bltu	a3,a4,80000f08 <_vsnprintf+0x88>
    80001030:	00001797          	auipc	a5,0x1
    80001034:	8f078793          	addi	a5,a5,-1808 # 80001920 <__am_mainargs+0xb3>
    80001038:	00271713          	slli	a4,a4,0x2
    8000103c:	00f70733          	add	a4,a4,a5
    80001040:	00072703          	lw	a4,0(a4)
    80001044:	00f70733          	add	a4,a4,a5
    80001048:	00070067          	jr	a4
    8000104c:	00000a93          	li	s5,0
    80001050:	00900613          	li	a2,9
    80001054:	0080006f          	j	8000105c <_vsnprintf+0x1dc>
    80001058:	00170713          	addi	a4,a4,1
    8000105c:	002a969b          	slliw	a3,s5,0x2
    80001060:	015687bb          	addw	a5,a3,s5
    80001064:	0017979b          	slliw	a5,a5,0x1
    80001068:	00a787bb          	addw	a5,a5,a0
    8000106c:	00074503          	lbu	a0,0(a4)
    80001070:	000b0593          	mv	a1,s6
    80001074:	fd078a9b          	addiw	s5,a5,-48
    80001078:	fd05069b          	addiw	a3,a0,-48
    8000107c:	0ff6f693          	andi	a3,a3,255
    80001080:	00070b13          	mv	s6,a4
    80001084:	fcd67ae3          	bgeu	a2,a3,80001058 <_vsnprintf+0x1d8>
    80001088:	00070693          	mv	a3,a4
    8000108c:	02e00713          	li	a4,46
    80001090:	00258b13          	addi	s6,a1,2
    80001094:	00000893          	li	a7,0
    80001098:	eee51ee3          	bne	a0,a4,80000f94 <_vsnprintf+0x114>
    8000109c:	0016c503          	lbu	a0,1(a3)
    800010a0:	40086813          	ori	a6,a6,1024
    800010a4:	00900613          	li	a2,9
    800010a8:	fd05071b          	addiw	a4,a0,-48
    800010ac:	0ff77713          	andi	a4,a4,255
    800010b0:	0008081b          	sext.w	a6,a6
    800010b4:	34e67263          	bgeu	a2,a4,800013f8 <_vsnprintf+0x578>
    800010b8:	02a00713          	li	a4,42
    800010bc:	36e50c63          	beq	a0,a4,80001434 <_vsnprintf+0x5b4>
    800010c0:	000b0693          	mv	a3,s6
    800010c4:	001b0b13          	addi	s6,s6,1
    800010c8:	ecdff06f          	j	80000f94 <_vsnprintf+0x114>
    800010cc:	000c041b          	sext.w	s0,s8
    800010d0:	009c6463          	bltu	s8,s1,800010d8 <_vsnprintf+0x258>
    800010d4:	fff48c13          	addi	s8,s1,-1
    800010d8:	00048693          	mv	a3,s1
    800010dc:	000c0613          	mv	a2,s8
    800010e0:	00090593          	mv	a1,s2
    800010e4:	00000513          	li	a0,0
    800010e8:	000980e7          	jalr	s3
    800010ec:	09813083          	ld	ra,152(sp)
    800010f0:	00040513          	mv	a0,s0
    800010f4:	09013403          	ld	s0,144(sp)
    800010f8:	08813483          	ld	s1,136(sp)
    800010fc:	08013903          	ld	s2,128(sp)
    80001100:	07813983          	ld	s3,120(sp)
    80001104:	07013a03          	ld	s4,112(sp)
    80001108:	06813a83          	ld	s5,104(sp)
    8000110c:	06013b03          	ld	s6,96(sp)
    80001110:	05813b83          	ld	s7,88(sp)
    80001114:	05013c03          	ld	s8,80(sp)
    80001118:	04813c83          	ld	s9,72(sp)
    8000111c:	04013d03          	ld	s10,64(sp)
    80001120:	03813d83          	ld	s11,56(sp)
    80001124:	0a010113          	addi	sp,sp,160
    80001128:	00008067          	ret
    8000112c:	000a2603          	lw	a2,0(s4)
    80001130:	008a0a13          	addi	s4,s4,8
    80001134:	00060a9b          	sext.w	s5,a2
    80001138:	00064863          	bltz	a2,80001148 <_vsnprintf+0x2c8>
    8000113c:	001b4503          	lbu	a0,1(s6)
    80001140:	002b0b13          	addi	s6,s6,2
    80001144:	e45ff06f          	j	80000f88 <_vsnprintf+0x108>
    80001148:	00286813          	ori	a6,a6,2
    8000114c:	001b4503          	lbu	a0,1(s6)
    80001150:	0008081b          	sext.w	a6,a6
    80001154:	40c00abb          	negw	s5,a2
    80001158:	002b0b13          	addi	s6,s6,2
    8000115c:	e2dff06f          	j	80000f88 <_vsnprintf+0x108>
    80001160:	07800713          	li	a4,120
    80001164:	008a0c93          	addi	s9,s4,8
    80001168:	58e50663          	beq	a0,a4,800016f4 <_vsnprintf+0x874>
    8000116c:	05800713          	li	a4,88
    80001170:	3ee50e63          	beq	a0,a4,8000156c <_vsnprintf+0x6ec>
    80001174:	06f00713          	li	a4,111
    80001178:	5ee50063          	beq	a0,a4,80001758 <_vsnprintf+0x8d8>
    8000117c:	06200713          	li	a4,98
    80001180:	62e50263          	beq	a0,a4,800017a4 <_vsnprintf+0x924>
    80001184:	fef87693          	andi	a3,a6,-17
    80001188:	06900613          	li	a2,105
    8000118c:	00080713          	mv	a4,a6
    80001190:	0006869b          	sext.w	a3,a3
    80001194:	40087813          	andi	a6,a6,1024
    80001198:	66c51063          	bne	a0,a2,800017f8 <_vsnprintf+0x978>
    8000119c:	56081863          	bnez	a6,8000170c <_vsnprintf+0x88c>
    800011a0:	20077413          	andi	s0,a4,512
    800011a4:	00a00593          	li	a1,10
    800011a8:	50041663          	bnez	s0,800016b4 <_vsnprintf+0x834>
    800011ac:	1006f713          	andi	a4,a3,256
    800011b0:	00068613          	mv	a2,a3
    800011b4:	5c071463          	bnez	a4,8000177c <_vsnprintf+0x8fc>
    800011b8:	0406f713          	andi	a4,a3,64
    800011bc:	000a2503          	lw	a0,0(s4)
    800011c0:	54071e63          	bnez	a4,8000171c <_vsnprintf+0x89c>
    800011c4:	08067613          	andi	a2,a2,128
    800011c8:	60060063          	beqz	a2,800017c8 <_vsnprintf+0x948>
    800011cc:	0105151b          	slliw	a0,a0,0x10
    800011d0:	4105551b          	sraiw	a0,a0,0x10
    800011d4:	40f5561b          	sraiw	a2,a0,0xf
    800011d8:	00c54733          	xor	a4,a0,a2
    800011dc:	40c7073b          	subw	a4,a4,a2
    800011e0:	03071713          	slli	a4,a4,0x30
    800011e4:	03075713          	srli	a4,a4,0x30
    800011e8:	000c0613          	mv	a2,s8
    800011ec:	00d13423          	sd	a3,8(sp)
    800011f0:	01513023          	sd	s5,0(sp)
    800011f4:	00058813          	mv	a6,a1
    800011f8:	01f5579b          	srliw	a5,a0,0x1f
    800011fc:	00048693          	mv	a3,s1
    80001200:	00090593          	mv	a1,s2
    80001204:	00098513          	mv	a0,s3
    80001208:	990ff0ef          	jal	ra,80000398 <_ntoa_long>
    8000120c:	00050c13          	mv	s8,a0
    80001210:	000c8a13          	mv	s4,s9
    80001214:	d09ff06f          	j	80000f1c <_vsnprintf+0x9c>
    80001218:	0016c503          	lbu	a0,1(a3)
    8000121c:	06c00713          	li	a4,108
    80001220:	dee51ae3          	bne	a0,a4,80001014 <_vsnprintf+0x194>
    80001224:	30086813          	ori	a6,a6,768
    80001228:	0026c503          	lbu	a0,2(a3)
    8000122c:	0008081b          	sext.w	a6,a6
    80001230:	00368b13          	addi	s6,a3,3
    80001234:	dedff06f          	j	80001020 <_vsnprintf+0x1a0>
    80001238:	0016c503          	lbu	a0,1(a3)
    8000123c:	06800713          	li	a4,104
    80001240:	30e50663          	beq	a0,a4,8000154c <_vsnprintf+0x6cc>
    80001244:	08086813          	ori	a6,a6,128
    80001248:	0008081b          	sext.w	a6,a6
    8000124c:	001b0b13          	addi	s6,s6,1
    80001250:	dd1ff06f          	j	80001020 <_vsnprintf+0x1a0>
    80001254:	04600713          	li	a4,70
    80001258:	24e50863          	beq	a0,a4,800014a8 <_vsnprintf+0x628>
    8000125c:	000a3507          	fld	fa0,0(s4)
    80001260:	000c0613          	mv	a2,s8
    80001264:	000a8793          	mv	a5,s5
    80001268:	00088713          	mv	a4,a7
    8000126c:	00048693          	mv	a3,s1
    80001270:	00090593          	mv	a1,s2
    80001274:	00098513          	mv	a0,s3
    80001278:	c98ff0ef          	jal	ra,80000710 <_ftoa>
    8000127c:	008a0a13          	addi	s4,s4,8
    80001280:	00050c13          	mv	s8,a0
    80001284:	c99ff06f          	j	80000f1c <_vsnprintf+0x9c>
    80001288:	001c0d93          	addi	s11,s8,1
    8000128c:	00287813          	andi	a6,a6,2
    80001290:	008a0c93          	addi	s9,s4,8
    80001294:	000d8d13          	mv	s10,s11
    80001298:	3c080063          	beqz	a6,80001658 <_vsnprintf+0x7d8>
    8000129c:	000a4503          	lbu	a0,0(s4)
    800012a0:	00048693          	mv	a3,s1
    800012a4:	000c0613          	mv	a2,s8
    800012a8:	00090593          	mv	a1,s2
    800012ac:	000980e7          	jalr	s3
    800012b0:	00100713          	li	a4,1
    800012b4:	47577e63          	bgeu	a4,s5,80001730 <_vsnprintf+0x8b0>
    800012b8:	ffea879b          	addiw	a5,s5,-2
    800012bc:	02079793          	slli	a5,a5,0x20
    800012c0:	002c0513          	addi	a0,s8,2
    800012c4:	0207d793          	srli	a5,a5,0x20
    800012c8:	00f50c33          	add	s8,a0,a5
    800012cc:	000d0613          	mv	a2,s10
    800012d0:	00048693          	mv	a3,s1
    800012d4:	001d0d13          	addi	s10,s10,1
    800012d8:	00090593          	mv	a1,s2
    800012dc:	02000513          	li	a0,32
    800012e0:	000980e7          	jalr	s3
    800012e4:	ff8d14e3          	bne	s10,s8,800012cc <_vsnprintf+0x44c>
    800012e8:	000c8a13          	mv	s4,s9
    800012ec:	c31ff06f          	j	80000f1c <_vsnprintf+0x9c>
    800012f0:	000c0613          	mv	a2,s8
    800012f4:	00048693          	mv	a3,s1
    800012f8:	00090593          	mv	a1,s2
    800012fc:	02500513          	li	a0,37
    80001300:	001c0c13          	addi	s8,s8,1
    80001304:	000980e7          	jalr	s3
    80001308:	c15ff06f          	j	80000f1c <_vsnprintf+0x9c>
    8000130c:	000a3d03          	ld	s10,0(s4)
    80001310:	008a0793          	addi	a5,s4,8
    80001314:	02f13423          	sd	a5,40(sp)
    80001318:	000d4503          	lbu	a0,0(s10)
    8000131c:	12088e63          	beqz	a7,80001458 <_vsnprintf+0x5d8>
    80001320:	02089693          	slli	a3,a7,0x20
    80001324:	0206d693          	srli	a3,a3,0x20
    80001328:	12050c63          	beqz	a0,80001460 <_vsnprintf+0x5e0>
    8000132c:	fff68693          	addi	a3,a3,-1
    80001330:	00168693          	addi	a3,a3,1
    80001334:	00dd06b3          	add	a3,s10,a3
    80001338:	000d0d93          	mv	s11,s10
    8000133c:	0080006f          	j	80001344 <_vsnprintf+0x4c4>
    80001340:	00dd8863          	beq	s11,a3,80001350 <_vsnprintf+0x4d0>
    80001344:	001dc703          	lbu	a4,1(s11)
    80001348:	001d8d93          	addi	s11,s11,1
    8000134c:	fe071ae3          	bnez	a4,80001340 <_vsnprintf+0x4c0>
    80001350:	41ad8dbb          	subw	s11,s11,s10
    80001354:	40087c93          	andi	s9,a6,1024
    80001358:	000c8a63          	beqz	s9,8000136c <_vsnprintf+0x4ec>
    8000135c:	00088713          	mv	a4,a7
    80001360:	011df463          	bgeu	s11,a7,80001368 <_vsnprintf+0x4e8>
    80001364:	000d8713          	mv	a4,s11
    80001368:	00070d9b          	sext.w	s11,a4
    8000136c:	00287413          	andi	s0,a6,2
    80001370:	28040463          	beqz	s0,800015f8 <_vsnprintf+0x778>
    80001374:	16050863          	beqz	a0,800014e4 <_vsnprintf+0x664>
    80001378:	120c8e63          	beqz	s9,800014b4 <_vsnprintf+0x634>
    8000137c:	02089893          	slli	a7,a7,0x20
    80001380:	0208d893          	srli	a7,a7,0x20
    80001384:	01888cb3          	add	s9,a7,s8
    80001388:	000c0613          	mv	a2,s8
    8000138c:	14cc8863          	beq	s9,a2,800014dc <_vsnprintf+0x65c>
    80001390:	00048693          	mv	a3,s1
    80001394:	00090593          	mv	a1,s2
    80001398:	00160a13          	addi	s4,a2,1
    8000139c:	000980e7          	jalr	s3
    800013a0:	418a0733          	sub	a4,s4,s8
    800013a4:	00ed0733          	add	a4,s10,a4
    800013a8:	00074503          	lbu	a0,0(a4)
    800013ac:	24050063          	beqz	a0,800015ec <_vsnprintf+0x76c>
    800013b0:	000a0613          	mv	a2,s4
    800013b4:	fd9ff06f          	j	8000138c <_vsnprintf+0x50c>
    800013b8:	02186793          	ori	a5,a6,33
    800013bc:	000a3703          	ld	a4,0(s4)
    800013c0:	0007879b          	sext.w	a5,a5
    800013c4:	00f13423          	sd	a5,8(sp)
    800013c8:	01000793          	li	a5,16
    800013cc:	000c0613          	mv	a2,s8
    800013d0:	00f13023          	sd	a5,0(sp)
    800013d4:	01000813          	li	a6,16
    800013d8:	00000793          	li	a5,0
    800013dc:	00048693          	mv	a3,s1
    800013e0:	00090593          	mv	a1,s2
    800013e4:	00098513          	mv	a0,s3
    800013e8:	fb1fe0ef          	jal	ra,80000398 <_ntoa_long>
    800013ec:	008a0a13          	addi	s4,s4,8
    800013f0:	00050c13          	mv	s8,a0
    800013f4:	b29ff06f          	j	80000f1c <_vsnprintf+0x9c>
    800013f8:	00900693          	li	a3,9
    800013fc:	0028971b          	slliw	a4,a7,0x2
    80001400:	011708bb          	addw	a7,a4,a7
    80001404:	000b0613          	mv	a2,s6
    80001408:	0018989b          	slliw	a7,a7,0x1
    8000140c:	001b0b13          	addi	s6,s6,1
    80001410:	00a888bb          	addw	a7,a7,a0
    80001414:	000b4503          	lbu	a0,0(s6)
    80001418:	fd08889b          	addiw	a7,a7,-48
    8000141c:	fd05071b          	addiw	a4,a0,-48
    80001420:	0ff77713          	andi	a4,a4,255
    80001424:	fce6fce3          	bgeu	a3,a4,800013fc <_vsnprintf+0x57c>
    80001428:	000b0693          	mv	a3,s6
    8000142c:	00260b13          	addi	s6,a2,2
    80001430:	b65ff06f          	j	80000f94 <_vsnprintf+0x114>
    80001434:	000a2883          	lw	a7,0(s4)
    80001438:	0026c503          	lbu	a0,2(a3)
    8000143c:	00368b13          	addi	s6,a3,3
    80001440:	fff8c713          	not	a4,a7
    80001444:	43f75713          	srai	a4,a4,0x3f
    80001448:	00e8f8b3          	and	a7,a7,a4
    8000144c:	008a0a13          	addi	s4,s4,8
    80001450:	00268693          	addi	a3,a3,2
    80001454:	b41ff06f          	j	80000f94 <_vsnprintf+0x114>
    80001458:	ffe00693          	li	a3,-2
    8000145c:	ec051ae3          	bnez	a0,80001330 <_vsnprintf+0x4b0>
    80001460:	00000d93          	li	s11,0
    80001464:	ef1ff06f          	j	80001354 <_vsnprintf+0x4d4>
    80001468:	0df57713          	andi	a4,a0,223
    8000146c:	04700693          	li	a3,71
    80001470:	0ad70c63          	beq	a4,a3,80001528 <_vsnprintf+0x6a8>
    80001474:	04500713          	li	a4,69
    80001478:	0ce50463          	beq	a0,a4,80001540 <_vsnprintf+0x6c0>
    8000147c:	000a3507          	fld	fa0,0(s4)
    80001480:	000c0613          	mv	a2,s8
    80001484:	000a8793          	mv	a5,s5
    80001488:	00088713          	mv	a4,a7
    8000148c:	00048693          	mv	a3,s1
    80001490:	00090593          	mv	a1,s2
    80001494:	00098513          	mv	a0,s3
    80001498:	e48ff0ef          	jal	ra,80000ae0 <_etoa>
    8000149c:	008a0a13          	addi	s4,s4,8
    800014a0:	00050c13          	mv	s8,a0
    800014a4:	a79ff06f          	j	80000f1c <_vsnprintf+0x9c>
    800014a8:	02086813          	ori	a6,a6,32
    800014ac:	0008081b          	sext.w	a6,a6
    800014b0:	dadff06f          	j	8000125c <_vsnprintf+0x3dc>
    800014b4:	000c0c93          	mv	s9,s8
    800014b8:	000c8613          	mv	a2,s9
    800014bc:	00048693          	mv	a3,s1
    800014c0:	00090593          	mv	a1,s2
    800014c4:	000980e7          	jalr	s3
    800014c8:	001c8c93          	addi	s9,s9,1
    800014cc:	418c8733          	sub	a4,s9,s8
    800014d0:	00ed0733          	add	a4,s10,a4
    800014d4:	00074503          	lbu	a0,0(a4)
    800014d8:	fe0510e3          	bnez	a0,800014b8 <_vsnprintf+0x638>
    800014dc:	000c8c13          	mv	s8,s9
    800014e0:	04040063          	beqz	s0,80001520 <_vsnprintf+0x6a0>
    800014e4:	000c0413          	mv	s0,s8
    800014e8:	035dfc63          	bgeu	s11,s5,80001520 <_vsnprintf+0x6a0>
    800014ec:	fffa879b          	addiw	a5,s5,-1
    800014f0:	41b787bb          	subw	a5,a5,s11
    800014f4:	02079793          	slli	a5,a5,0x20
    800014f8:	0207d793          	srli	a5,a5,0x20
    800014fc:	001c0513          	addi	a0,s8,1
    80001500:	00a78c33          	add	s8,a5,a0
    80001504:	00040613          	mv	a2,s0
    80001508:	00048693          	mv	a3,s1
    8000150c:	00140413          	addi	s0,s0,1
    80001510:	00090593          	mv	a1,s2
    80001514:	02000513          	li	a0,32
    80001518:	000980e7          	jalr	s3
    8000151c:	ff8414e3          	bne	s0,s8,80001504 <_vsnprintf+0x684>
    80001520:	02813a03          	ld	s4,40(sp)
    80001524:	9f9ff06f          	j	80000f1c <_vsnprintf+0x9c>
    80001528:	01813783          	ld	a5,24(sp)
    8000152c:	0fd57513          	andi	a0,a0,253
    80001530:	04500713          	li	a4,69
    80001534:	00f86833          	or	a6,a6,a5
    80001538:	0008081b          	sext.w	a6,a6
    8000153c:	f4e510e3          	bne	a0,a4,8000147c <_vsnprintf+0x5fc>
    80001540:	02086813          	ori	a6,a6,32
    80001544:	0008081b          	sext.w	a6,a6
    80001548:	f35ff06f          	j	8000147c <_vsnprintf+0x5fc>
    8000154c:	0c086813          	ori	a6,a6,192
    80001550:	0026c503          	lbu	a0,2(a3)
    80001554:	0008081b          	sext.w	a6,a6
    80001558:	00368b13          	addi	s6,a3,3
    8000155c:	ac5ff06f          	j	80001020 <_vsnprintf+0x1a0>
    80001560:	00000413          	li	s0,0
    80001564:	b69c6ae3          	bltu	s8,s1,800010d8 <_vsnprintf+0x258>
    80001568:	b6dff06f          	j	800010d4 <_vsnprintf+0x254>
    8000156c:	ff387693          	andi	a3,a6,-13
    80001570:	0006869b          	sext.w	a3,a3
    80001574:	40087713          	andi	a4,a6,1024
    80001578:	0206e693          	ori	a3,a3,32
    8000157c:	01000593          	li	a1,16
    80001580:	18070a63          	beqz	a4,80001714 <_vsnprintf+0x894>
    80001584:	ffe6f693          	andi	a3,a3,-2
    80001588:	0006869b          	sext.w	a3,a3
    8000158c:	06900713          	li	a4,105
    80001590:	2006f413          	andi	s0,a3,512
    80001594:	c0e50ae3          	beq	a0,a4,800011a8 <_vsnprintf+0x328>
    80001598:	06400713          	li	a4,100
    8000159c:	c0e506e3          	beq	a0,a4,800011a8 <_vsnprintf+0x328>
    800015a0:	18041e63          	bnez	s0,8000173c <_vsnprintf+0x8bc>
    800015a4:	1006f713          	andi	a4,a3,256
    800015a8:	00068613          	mv	a2,a3
    800015ac:	20071063          	bnez	a4,800017ac <_vsnprintf+0x92c>
    800015b0:	0406f713          	andi	a4,a3,64
    800015b4:	16071a63          	bnez	a4,80001728 <_vsnprintf+0x8a8>
    800015b8:	08067613          	andi	a2,a2,128
    800015bc:	000a2703          	lw	a4,0(s4)
    800015c0:	00060663          	beqz	a2,800015cc <_vsnprintf+0x74c>
    800015c4:	02013783          	ld	a5,32(sp)
    800015c8:	00e7f733          	and	a4,a5,a4
    800015cc:	02071713          	slli	a4,a4,0x20
    800015d0:	000c0613          	mv	a2,s8
    800015d4:	00d13423          	sd	a3,8(sp)
    800015d8:	01513023          	sd	s5,0(sp)
    800015dc:	00058813          	mv	a6,a1
    800015e0:	00000793          	li	a5,0
    800015e4:	02075713          	srli	a4,a4,0x20
    800015e8:	c15ff06f          	j	800011fc <_vsnprintf+0x37c>
    800015ec:	000a0c13          	mv	s8,s4
    800015f0:	f20408e3          	beqz	s0,80001520 <_vsnprintf+0x6a0>
    800015f4:	ef1ff06f          	j	800014e4 <_vsnprintf+0x664>
    800015f8:	001d871b          	addiw	a4,s11,1
    800015fc:	1d5dfe63          	bgeu	s11,s5,800017d8 <_vsnprintf+0x958>
    80001600:	fffa871b          	addiw	a4,s5,-1
    80001604:	41b70dbb          	subw	s11,a4,s11
    80001608:	020d9793          	slli	a5,s11,0x20
    8000160c:	0207d793          	srli	a5,a5,0x20
    80001610:	001c0d93          	addi	s11,s8,1
    80001614:	01b78a33          	add	s4,a5,s11
    80001618:	0080006f          	j	80001620 <_vsnprintf+0x7a0>
    8000161c:	001d8d93          	addi	s11,s11,1
    80001620:	01113823          	sd	a7,16(sp)
    80001624:	000c0613          	mv	a2,s8
    80001628:	00048693          	mv	a3,s1
    8000162c:	00090593          	mv	a1,s2
    80001630:	02000513          	li	a0,32
    80001634:	000980e7          	jalr	s3
    80001638:	01013883          	ld	a7,16(sp)
    8000163c:	000d8c13          	mv	s8,s11
    80001640:	fd4d9ee3          	bne	s11,s4,8000161c <_vsnprintf+0x79c>
    80001644:	000d4503          	lbu	a0,0(s10)
    80001648:	001a8d9b          	addiw	s11,s5,1
    8000164c:	d20516e3          	bnez	a0,80001378 <_vsnprintf+0x4f8>
    80001650:	02813a03          	ld	s4,40(sp)
    80001654:	8c9ff06f          	j	80000f1c <_vsnprintf+0x9c>
    80001658:	00100693          	li	a3,1
    8000165c:	1956f463          	bgeu	a3,s5,800017e4 <_vsnprintf+0x964>
    80001660:	ffea879b          	addiw	a5,s5,-2
    80001664:	02079413          	slli	s0,a5,0x20
    80001668:	02045413          	srli	s0,s0,0x20
    8000166c:	01b40433          	add	s0,s0,s11
    80001670:	0080006f          	j	80001678 <_vsnprintf+0x7f8>
    80001674:	001d8d93          	addi	s11,s11,1
    80001678:	000c0613          	mv	a2,s8
    8000167c:	00048693          	mv	a3,s1
    80001680:	00090593          	mv	a1,s2
    80001684:	02000513          	li	a0,32
    80001688:	000d8c13          	mv	s8,s11
    8000168c:	000980e7          	jalr	s3
    80001690:	fe8d92e3          	bne	s11,s0,80001674 <_vsnprintf+0x7f4>
    80001694:	001d8c13          	addi	s8,s11,1
    80001698:	000a4503          	lbu	a0,0(s4)
    8000169c:	00048693          	mv	a3,s1
    800016a0:	00040613          	mv	a2,s0
    800016a4:	00090593          	mv	a1,s2
    800016a8:	000980e7          	jalr	s3
    800016ac:	000c8a13          	mv	s4,s9
    800016b0:	86dff06f          	j	80000f1c <_vsnprintf+0x9c>
    800016b4:	000a3783          	ld	a5,0(s4)
    800016b8:	00d13423          	sd	a3,8(sp)
    800016bc:	000c0613          	mv	a2,s8
    800016c0:	43f7d713          	srai	a4,a5,0x3f
    800016c4:	00f746b3          	xor	a3,a4,a5
    800016c8:	01513023          	sd	s5,0(sp)
    800016cc:	00058813          	mv	a6,a1
    800016d0:	03f7d793          	srli	a5,a5,0x3f
    800016d4:	40e68733          	sub	a4,a3,a4
    800016d8:	00048693          	mv	a3,s1
    800016dc:	00090593          	mv	a1,s2
    800016e0:	00098513          	mv	a0,s3
    800016e4:	cb5fe0ef          	jal	ra,80000398 <_ntoa_long>
    800016e8:	00050c13          	mv	s8,a0
    800016ec:	000c8a13          	mv	s4,s9
    800016f0:	82dff06f          	j	80000f1c <_vsnprintf+0x9c>
    800016f4:	40087713          	andi	a4,a6,1024
    800016f8:	01000593          	li	a1,16
    800016fc:	ff387693          	andi	a3,a6,-13
    80001700:	0006869b          	sext.w	a3,a3
    80001704:	e80704e3          	beqz	a4,8000158c <_vsnprintf+0x70c>
    80001708:	e7dff06f          	j	80001584 <_vsnprintf+0x704>
    8000170c:	00a00593          	li	a1,10
    80001710:	e75ff06f          	j	80001584 <_vsnprintf+0x704>
    80001714:	20087413          	andi	s0,a6,512
    80001718:	e89ff06f          	j	800015a0 <_vsnprintf+0x720>
    8000171c:	0ff57513          	andi	a0,a0,255
    80001720:	00050713          	mv	a4,a0
    80001724:	ac5ff06f          	j	800011e8 <_vsnprintf+0x368>
    80001728:	000a4703          	lbu	a4,0(s4)
    8000172c:	ea1ff06f          	j	800015cc <_vsnprintf+0x74c>
    80001730:	000d8c13          	mv	s8,s11
    80001734:	000c8a13          	mv	s4,s9
    80001738:	fe4ff06f          	j	80000f1c <_vsnprintf+0x9c>
    8000173c:	000a3703          	ld	a4,0(s4)
    80001740:	000c0613          	mv	a2,s8
    80001744:	00d13423          	sd	a3,8(sp)
    80001748:	01513023          	sd	s5,0(sp)
    8000174c:	00058813          	mv	a6,a1
    80001750:	00000793          	li	a5,0
    80001754:	f85ff06f          	j	800016d8 <_vsnprintf+0x858>
    80001758:	00800593          	li	a1,8
    8000175c:	00080693          	mv	a3,a6
    80001760:	06400613          	li	a2,100
    80001764:	00068413          	mv	s0,a3
    80001768:	4006f713          	andi	a4,a3,1024
    8000176c:	08c51263          	bne	a0,a2,800017f0 <_vsnprintf+0x970>
    80001770:	20047413          	andi	s0,s0,512
    80001774:	a2070ae3          	beqz	a4,800011a8 <_vsnprintf+0x328>
    80001778:	e0dff06f          	j	80001584 <_vsnprintf+0x704>
    8000177c:	000a3783          	ld	a5,0(s4)
    80001780:	00d13423          	sd	a3,8(sp)
    80001784:	000c0613          	mv	a2,s8
    80001788:	43f7d713          	srai	a4,a5,0x3f
    8000178c:	00f746b3          	xor	a3,a4,a5
    80001790:	01513023          	sd	s5,0(sp)
    80001794:	00058813          	mv	a6,a1
    80001798:	03f7d793          	srli	a5,a5,0x3f
    8000179c:	40e68733          	sub	a4,a3,a4
    800017a0:	a5dff06f          	j	800011fc <_vsnprintf+0x37c>
    800017a4:	00200593          	li	a1,2
    800017a8:	fb5ff06f          	j	8000175c <_vsnprintf+0x8dc>
    800017ac:	000a3703          	ld	a4,0(s4)
    800017b0:	000c0613          	mv	a2,s8
    800017b4:	00d13423          	sd	a3,8(sp)
    800017b8:	01513023          	sd	s5,0(sp)
    800017bc:	00058813          	mv	a6,a1
    800017c0:	00000793          	li	a5,0
    800017c4:	a39ff06f          	j	800011fc <_vsnprintf+0x37c>
    800017c8:	41f5561b          	sraiw	a2,a0,0x1f
    800017cc:	00c54733          	xor	a4,a0,a2
    800017d0:	40c7073b          	subw	a4,a4,a2
    800017d4:	a15ff06f          	j	800011e8 <_vsnprintf+0x368>
    800017d8:	00070d93          	mv	s11,a4
    800017dc:	b8051ee3          	bnez	a0,80001378 <_vsnprintf+0x4f8>
    800017e0:	e71ff06f          	j	80001650 <_vsnprintf+0x7d0>
    800017e4:	000c0413          	mv	s0,s8
    800017e8:	000d8c13          	mv	s8,s11
    800017ec:	eadff06f          	j	80001698 <_vsnprintf+0x818>
    800017f0:	00068813          	mv	a6,a3
    800017f4:	f09ff06f          	j	800016fc <_vsnprintf+0x87c>
    800017f8:	00a00593          	li	a1,10
    800017fc:	f65ff06f          	j	80001760 <_vsnprintf+0x8e0>

Disassembly of section .text.printf_:

0000000080001800 <printf_>:
    80001800:	fa010113          	addi	sp,sp,-96
    80001804:	02810313          	addi	t1,sp,40
    80001808:	02b13423          	sd	a1,40(sp)
    8000180c:	02c13823          	sd	a2,48(sp)
    80001810:	02d13c23          	sd	a3,56(sp)
    80001814:	04e13023          	sd	a4,64(sp)
    80001818:	00050693          	mv	a3,a0
    8000181c:	00010593          	mv	a1,sp
    80001820:	00030713          	mv	a4,t1
    80001824:	fff00613          	li	a2,-1
    80001828:	fffff517          	auipc	a0,0xfffff
    8000182c:	edc50513          	addi	a0,a0,-292 # 80000704 <_out_char>
    80001830:	00113c23          	sd	ra,24(sp)
    80001834:	04f13423          	sd	a5,72(sp)
    80001838:	05013823          	sd	a6,80(sp)
    8000183c:	05113c23          	sd	a7,88(sp)
    80001840:	00613423          	sd	t1,8(sp)
    80001844:	e3cff0ef          	jal	ra,80000e80 <_vsnprintf>
    80001848:	01813083          	ld	ra,24(sp)
    8000184c:	06010113          	addi	sp,sp,96
    80001850:	00008067          	ret
